Microsoft (R) COFF/PE Dumper Version 14.29.30037.0
Copyright (C) Microsoft Corporation.  All rights reserved.


Dump of file tesseract50d.dll

File Type: DLL

  Section contains the following exports for tesseract50d.dll

    00000000 characteristics
    FFFFFFFF time date stamp
        0.00 version
           1 ordinal base
        3101 number of functions
        3101 number of names

    ordinal hint RVA      name

          1    0 0001B897 ??0?$BBGrid@VBLOBNBOX@tesseract@@VBLOBNBOX_CLIST@2@VBLOBNBOX_C_IT@2@@tesseract@@QEAA@AEBV01@@Z = @ILT+108690(??0?$BBGrid@VBLOBNBOX@tesseract@@VBLOBNBOX_CLIST@2@VBLOBNBOX_C_IT@2@@tesseract@@QEAA@AEBV01@@Z)
          2    1 00014C6D ??0?$BBGrid@VBLOBNBOX@tesseract@@VBLOBNBOX_CLIST@2@VBLOBNBOX_C_IT@2@@tesseract@@QEAA@HAEBVICOORD@1@0@Z = @ILT+81000(??0?$BBGrid@VBLOBNBOX@tesseract@@VBLOBNBOX_CLIST@2@VBLOBNBOX_C_IT@2@@tesseract@@QEAA@HAEBVICOORD@1@0@Z)
          3    2 0000D837 ??0?$BBGrid@VBLOBNBOX@tesseract@@VBLOBNBOX_CLIST@2@VBLOBNBOX_C_IT@2@@tesseract@@QEAA@XZ = @ILT+51250(??0?$BBGrid@VBLOBNBOX@tesseract@@VBLOBNBOX_CLIST@2@VBLOBNBOX_C_IT@2@@tesseract@@QEAA@XZ)
          4    3 0001A3E3 ??0?$BBGrid@VColPartition@tesseract@@VColPartition_CLIST@2@VColPartition_C_IT@2@@tesseract@@QEAA@AEBV01@@Z = @ILT+103390(??0?$BBGrid@VColPartition@tesseract@@VColPartition_CLIST@2@VColPartition_C_IT@2@@tesseract@@QEAA@AEBV01@@Z)
          5    4 00010A96 ??0?$BBGrid@VColPartition@tesseract@@VColPartition_CLIST@2@VColPartition_C_IT@2@@tesseract@@QEAA@HAEBVICOORD@1@0@Z = @ILT+64145(??0?$BBGrid@VColPartition@tesseract@@VColPartition_CLIST@2@VColPartition_C_IT@2@@tesseract@@QEAA@HAEBVICOORD@1@0@Z)
          6    5 0001B6D5 ??0?$BBGrid@VColPartition@tesseract@@VColPartition_CLIST@2@VColPartition_C_IT@2@@tesseract@@QEAA@XZ = @ILT+108240(??0?$BBGrid@VColPartition@tesseract@@VColPartition_CLIST@2@VColPartition_C_IT@2@@tesseract@@QEAA@XZ)
          7    6 0000F3FD ??0AlignedBlob@tesseract@@QEAA@AEBV01@@Z = @ILT+58360(??0AlignedBlob@tesseract@@QEAA@AEBV01@@Z)
          8    7 00016437 ??0AlignedBlob@tesseract@@QEAA@HAEBVICOORD@1@0@Z = @ILT+87090(??0AlignedBlob@tesseract@@QEAA@HAEBVICOORD@1@0@Z)
          9    8 00014BAA ??0BLOCK@tesseract@@QEAA@PEBD_NFFFFFF@Z = @ILT+80805(??0BLOCK@tesseract@@QEAA@PEBD_NFFFFFF@Z)
         10    9 00017BB6 ??0BLOCK@tesseract@@QEAA@XZ = @ILT+93105(??0BLOCK@tesseract@@QEAA@XZ)
         11    A 000088E6 ??0BitVector@tesseract@@QEAA@AEBV01@@Z = @ILT+30945(??0BitVector@tesseract@@QEAA@AEBV01@@Z)
         12    B 00018043 ??0BitVector@tesseract@@QEAA@H@Z = @ILT+94270(??0BitVector@tesseract@@QEAA@H@Z)
         13    C 00011F0E ??0BitVector@tesseract@@QEAA@XZ = @ILT+69385(??0BitVector@tesseract@@QEAA@XZ)
         14    D 0000E37C ??0BlobGrid@tesseract@@QEAA@AEBV01@@Z = @ILT+54135(??0BlobGrid@tesseract@@QEAA@AEBV01@@Z)
         15    E 000050A1 ??0BlobGrid@tesseract@@QEAA@HAEBVICOORD@1@0@Z = @ILT+16540(??0BlobGrid@tesseract@@QEAA@HAEBVICOORD@1@0@Z)
         16    F 000152C1 ??0CCStruct@tesseract@@QEAA@AEBV01@@Z = @ILT+82620(??0CCStruct@tesseract@@QEAA@AEBV01@@Z)
         17   10 0001D4BC ??0CCStruct@tesseract@@QEAA@XZ = @ILT+115895(??0CCStruct@tesseract@@QEAA@XZ)
         18   11 000144C5 ??0CCUtil@tesseract@@QEAA@AEBV01@@Z = @ILT+79040(??0CCUtil@tesseract@@QEAA@AEBV01@@Z)
         19   12 0000E688 ??0CCUtil@tesseract@@QEAA@XZ = @ILT+54915(??0CCUtil@tesseract@@QEAA@XZ)
         20   13 0000578B ??0CLIST@tesseract@@QEAA@XZ = @ILT+18310(??0CLIST@tesseract@@QEAA@XZ)
         21   14 00001721 ??0CLIST_ITERATOR@tesseract@@QEAA@PEAVCLIST@1@@Z = @ILT+1820(??0CLIST_ITERATOR@tesseract@@QEAA@PEAVCLIST@1@@Z)
         22   15 00015730 ??0CLIST_ITERATOR@tesseract@@QEAA@XZ = @ILT+83755(??0CLIST_ITERATOR@tesseract@@QEAA@XZ)
         23   16 0000E93A ??0C_BLOB@tesseract@@QEAA@PEAVC_OUTLINE@1@@Z = @ILT+55605(??0C_BLOB@tesseract@@QEAA@PEAVC_OUTLINE@1@@Z)
         24   17 00003E22 ??0C_BLOB@tesseract@@QEAA@PEAVC_OUTLINE_LIST@1@@Z = @ILT+11805(??0C_BLOB@tesseract@@QEAA@PEAVC_OUTLINE_LIST@1@@Z)
         25   18 00005597 ??0C_BLOB@tesseract@@QEAA@XZ = @ILT+17810(??0C_BLOB@tesseract@@QEAA@XZ)
         26   19 00001703 ??0ChoiceIterator@tesseract@@QEAA@AEBV01@@Z = @ILT+1790(??0ChoiceIterator@tesseract@@QEAA@AEBV01@@Z)
         27   1A 0001480D ??0ChoiceIterator@tesseract@@QEAA@AEBVLTRResultIterator@1@@Z = @ILT+79880(??0ChoiceIterator@tesseract@@QEAA@AEBVLTRResultIterator@1@@Z)
         28   1B 00011806 ??0Classify@tesseract@@QEAA@AEBV01@@Z = @ILT+67585(??0Classify@tesseract@@QEAA@AEBV01@@Z)
         29   1C 0001256C ??0Classify@tesseract@@QEAA@XZ = @ILT+71015(??0Classify@tesseract@@QEAA@XZ)
         30   1D 0000ECE6 ??0ColPartition@tesseract@@QEAA@W4BlobRegionType@1@AEBVICOORD@1@@Z = @ILT+56545(??0ColPartition@tesseract@@QEAA@W4BlobRegionType@1@AEBVICOORD@1@@Z)
         31   1E 0001BCE8 ??0ColPartition@tesseract@@QEAA@XZ = @ILT+109795(??0ColPartition@tesseract@@QEAA@XZ)
         32   1F 0001519F ??0ColPartitionGrid@tesseract@@QEAA@AEBV01@@Z = @ILT+82330(??0ColPartitionGrid@tesseract@@QEAA@AEBV01@@Z)
         33   20 00017341 ??0ColPartitionGrid@tesseract@@QEAA@HAEBVICOORD@1@0@Z = @ILT+90940(??0ColPartitionGrid@tesseract@@QEAA@HAEBVICOORD@1@0@Z)
         34   21 0000E6E7 ??0ColPartitionGrid@tesseract@@QEAA@XZ = @ILT+55010(??0ColPartitionGrid@tesseract@@QEAA@XZ)
         35   22 00019349 ??0ColumnFinder@tesseract@@QEAA@HAEBVICOORD@1@0H_NNPEAVTabVector_LIST@1@2HH@Z = @ILT+99140(??0ColumnFinder@tesseract@@QEAA@HAEBVICOORD@1@0H_NNPEAVTabVector_LIST@1@2HH@Z)
         36   23 0001C4A9 ??0Convolve@tesseract@@QEAA@AEBV?$basic_string@DU?$char_traits@D@std@@V?$allocator@D@2@@std@@HHH@Z = @ILT+111780(??0Convolve@tesseract@@QEAA@AEBV?$basic_string@DU?$char_traits@D@std@@V?$allocator@D@2@@std@@HHH@Z)
         37   24 00019EA7 ??0DENORM@tesseract@@QEAA@AEBV01@@Z = @ILT+102050(??0DENORM@tesseract@@QEAA@AEBV01@@Z)
         38   25 00013E26 ??0DENORM@tesseract@@QEAA@XZ = @ILT+77345(??0DENORM@tesseract@@QEAA@XZ)
         39   26 0000239C ??0Dawg@tesseract@@IEAA@W4DawgType@1@AEBV?$basic_string@DU?$char_traits@D@std@@V?$allocator@D@2@@std@@W4PermuterType@1@H@Z = @ILT+5015(??0Dawg@tesseract@@IEAA@W4DawgType@1@AEBV?$basic_string@DU?$char_traits@D@std@@V?$allocator@D@2@@std@@W4PermuterType@1@H@Z)
         40   27 0000DA7B ??0Dawg@tesseract@@QEAA@AEBV01@@Z = @ILT+51830(??0Dawg@tesseract@@QEAA@AEBV01@@Z)
         41   28 0000BD66 ??0Dict@tesseract@@QEAA@AEBV01@@Z = @ILT+44385(??0Dict@tesseract@@QEAA@AEBV01@@Z)
         42   29 0000F00B ??0Dict@tesseract@@QEAA@PEAVCCUtil@1@@Z = @ILT+57350(??0Dict@tesseract@@QEAA@PEAVCCUtil@1@@Z)
         43   2A 0001ABB3 ??0DocumentCache@tesseract@@QEAA@_J@Z = @ILT+105390(??0DocumentCache@tesseract@@QEAA@_J@Z)
         44   2B 00012C29 ??0DocumentData@tesseract@@QEAA@AEBV?$basic_string@DU?$char_traits@D@std@@V?$allocator@D@2@@std@@@Z = @ILT+72740(??0DocumentData@tesseract@@QEAA@AEBV?$basic_string@DU?$char_traits@D@std@@V?$allocator@D@2@@std@@@Z)
         45   2C 0000E449 ??0ELIST2@tesseract@@QEAA@XZ = @ILT+54340(??0ELIST2@tesseract@@QEAA@XZ)
         46   2D 000143C1 ??0ELIST2_ITERATOR@tesseract@@QEAA@PEAVELIST2@1@@Z = @ILT+78780(??0ELIST2_ITERATOR@tesseract@@QEAA@PEAVELIST2@1@@Z)
         47   2E 00001A14 ??0ELIST@tesseract@@QEAA@XZ = @ILT+2575(??0ELIST@tesseract@@QEAA@XZ)
         48   2F 000031DE ??0ELIST_ITERATOR@tesseract@@QEAA@PEAVELIST@1@@Z = @ILT+8665(??0ELIST_ITERATOR@tesseract@@QEAA@PEAVELIST@1@@Z)
         49   30 0001CC97 ??0ELIST_ITERATOR@tesseract@@QEAA@XZ = @ILT+113810(??0ELIST_ITERATOR@tesseract@@QEAA@XZ)
         50   31 00004BBA ??0ERRCODE@tesseract@@QEAA@PEBD@Z = @ILT+15285(??0ERRCODE@tesseract@@QEAA@PEBD@Z)
         51   32 00016FF9 ??0EquationDetect@tesseract@@QEAA@PEBD0@Z = @ILT+90100(??0EquationDetect@tesseract@@QEAA@PEBD0@Z)
         52   33 000048DB ??0EquationDetectBase@tesseract@@QEAA@AEBV01@@Z = @ILT+14550(??0EquationDetectBase@tesseract@@QEAA@AEBV01@@Z)
         53   34 0000DCBF ??0EquationDetectBase@tesseract@@QEAA@XZ = @ILT+52410(??0EquationDetectBase@tesseract@@QEAA@XZ)
         54   35 00018949 ??0FCOORD@tesseract@@QEAA@MM@Z = @ILT+96580(??0FCOORD@tesseract@@QEAA@MM@Z)
         55   36 00006C44 ??0FCOORD@tesseract@@QEAA@VICOORD@1@@Z = @ILT+23615(??0FCOORD@tesseract@@QEAA@VICOORD@1@@Z)
         56   37 0001AA96 ??0FontInfoTable@tesseract@@QEAA@XZ = @ILT+105105(??0FontInfoTable@tesseract@@QEAA@XZ)
         57   38 0001266B ??0FullyConnected@tesseract@@QEAA@AEBV?$basic_string@DU?$char_traits@D@std@@V?$allocator@D@2@@std@@HHW4NetworkType@1@@Z = @ILT+71270(??0FullyConnected@tesseract@@QEAA@AEBV?$basic_string@DU?$char_traits@D@std@@V?$allocator@D@2@@std@@HHW4NetworkType@1@@Z)
         58   39 0000D657 ??0GridBase@tesseract@@QEAA@AEBV01@@Z = @ILT+50770(??0GridBase@tesseract@@QEAA@AEBV01@@Z)
         59   3A 00007CC0 ??0GridBase@tesseract@@QEAA@HAEBVICOORD@1@0@Z = @ILT+27835(??0GridBase@tesseract@@QEAA@HAEBVICOORD@1@0@Z)
         60   3B 00004746 ??0GridBase@tesseract@@QEAA@XZ = @ILT+14145(??0GridBase@tesseract@@QEAA@XZ)
         61   3C 00005C13 ??0INT_TEMPLATES_STRUCT@tesseract@@QEAA@XZ = @ILT+19470(??0INT_TEMPLATES_STRUCT@tesseract@@QEAA@XZ)
         62   3D 00001D25 ??0Image@tesseract@@QEAA@PEAUPix@@@Z = @ILT+3360(??0Image@tesseract@@QEAA@PEAUPix@@@Z)
         63   3E 0000406B ??0Image@tesseract@@QEAA@XZ = @ILT+12390(??0Image@tesseract@@QEAA@XZ)
         64   3F 0000EF07 ??0ImageData@tesseract@@QEAA@AEBV01@@Z = @ILT+57090(??0ImageData@tesseract@@QEAA@AEBV01@@Z)
         65   40 00009147 ??0ImageData@tesseract@@QEAA@XZ = @ILT+33090(??0ImageData@tesseract@@QEAA@XZ)
         66   41 000067B7 ??0ImageData@tesseract@@QEAA@_NVImage@1@@Z = @ILT+22450(??0ImageData@tesseract@@QEAA@_NVImage@1@@Z)
         67   42 0000129E ??0ImageThresholder@tesseract@@QEAA@AEBV01@@Z = @ILT+665(??0ImageThresholder@tesseract@@QEAA@AEBV01@@Z)
         68   43 000147EA ??0ImageThresholder@tesseract@@QEAA@XZ = @ILT+79845(??0ImageThresholder@tesseract@@QEAA@XZ)
         69   44 0001ACE9 ??0IndexMap@tesseract@@QEAA@AEBV01@@Z = @ILT+105700(??0IndexMap@tesseract@@QEAA@AEBV01@@Z)
         70   45 0000C03B ??0IndexMap@tesseract@@QEAA@XZ = @ILT+45110(??0IndexMap@tesseract@@QEAA@XZ)
         71   46 0001C387 ??0IndexMapBiDi@tesseract@@QEAA@AEBV01@@Z = @ILT+111490(??0IndexMapBiDi@tesseract@@QEAA@AEBV01@@Z)
         72   47 00010050 ??0IndexMapBiDi@tesseract@@QEAA@XZ = @ILT+61515(??0IndexMapBiDi@tesseract@@QEAA@XZ)
         73   48 000149F7 ??0Input@tesseract@@QEAA@AEBV?$basic_string@DU?$char_traits@D@std@@V?$allocator@D@2@@std@@AEBVStaticShape@1@@Z = @ILT+80370(??0Input@tesseract@@QEAA@AEBV?$basic_string@DU?$char_traits@D@std@@V?$allocator@D@2@@std@@AEBVStaticShape@1@@Z)
         74   49 00015F2D ??0Input@tesseract@@QEAA@AEBV?$basic_string@DU?$char_traits@D@std@@V?$allocator@D@2@@std@@HH@Z = @ILT+85800(??0Input@tesseract@@QEAA@AEBV?$basic_string@DU?$char_traits@D@std@@V?$allocator@D@2@@std@@HH@Z)
         75   4A 0000F6F5 ??0IntFeatureSpace@tesseract@@QEAA@XZ = @ILT+59120(??0IntFeatureSpace@tesseract@@QEAA@XZ)
         76   4B 0000A2EF ??0LLSQ@tesseract@@QEAA@XZ = @ILT+37610(??0LLSQ@tesseract@@QEAA@XZ)
         77   4C 00008A2B ??0LSTM@tesseract@@QEAA@AEBV?$basic_string@DU?$char_traits@D@std@@V?$allocator@D@2@@std@@HHH_NW4NetworkType@1@@Z = @ILT+31270(??0LSTM@tesseract@@QEAA@AEBV?$basic_string@DU?$char_traits@D@std@@V?$allocator@D@2@@std@@HHH_NW4NetworkType@1@@Z)
         78   4D 0000C5CC ??0LSTMRecognizer@tesseract@@QEAA@AEBV?$basic_string@DU?$char_traits@D@std@@V?$allocator@D@2@@std@@@Z = @ILT+46535(??0LSTMRecognizer@tesseract@@QEAA@AEBV?$basic_string@DU?$char_traits@D@std@@V?$allocator@D@2@@std@@@Z)
         79   4E 00005CDB ??0LSTMRecognizer@tesseract@@QEAA@XZ = @ILT+19670(??0LSTMRecognizer@tesseract@@QEAA@XZ)
         80   4F 0000759A ??0LTRResultIterator@tesseract@@QEAA@AEBV01@@Z = @ILT+26005(??0LTRResultIterator@tesseract@@QEAA@AEBV01@@Z)
         81   50 0000F218 ??0LTRResultIterator@tesseract@@QEAA@PEAVPAGE_RES@1@PEAVTesseract@1@HHHHHH@Z = @ILT+57875(??0LTRResultIterator@tesseract@@QEAA@PEAVPAGE_RES@1@PEAVTesseract@1@HHHHHH@Z)
         82   51 000131B5 ??0Maxpool@tesseract@@QEAA@PEBDHHH@Z = @ILT+74160(??0Maxpool@tesseract@@QEAA@PEBDHHH@Z)
         83   52 00002C52 ??0MutableIterator@tesseract@@QEAA@AEBV01@@Z = @ILT+7245(??0MutableIterator@tesseract@@QEAA@AEBV01@@Z)
         84   53 0000CF54 ??0MutableIterator@tesseract@@QEAA@PEAVPAGE_RES@1@PEAVTesseract@1@HHHHHH@Z = @ILT+48975(??0MutableIterator@tesseract@@QEAA@PEAVPAGE_RES@1@PEAVTesseract@1@HHHHHH@Z)
         85   54 0000DA76 ??0Network@tesseract@@QEAA@AEBV01@@Z = @ILT+51825(??0Network@tesseract@@QEAA@AEBV01@@Z)
         86   55 0001A4DD ??0Network@tesseract@@QEAA@W4NetworkType@1@AEBV?$basic_string@DU?$char_traits@D@std@@V?$allocator@D@2@@std@@HH@Z = @ILT+103640(??0Network@tesseract@@QEAA@W4NetworkType@1@AEBV?$basic_string@DU?$char_traits@D@std@@V?$allocator@D@2@@std@@HH@Z)
         87   56 0001818D ??0Network@tesseract@@QEAA@XZ = @ILT+94600(??0Network@tesseract@@QEAA@XZ)
         88   57 00004ACA ??0NetworkIO@tesseract@@QEAA@$$QEAV01@@Z = @ILT+15045(??0NetworkIO@tesseract@@QEAA@$$QEAV01@@Z)
         89   58 0000B17C ??0NetworkIO@tesseract@@QEAA@AEBV01@@Z = @ILT+41335(??0NetworkIO@tesseract@@QEAA@AEBV01@@Z)
         90   59 00016E0F ??0NetworkIO@tesseract@@QEAA@XZ = @ILT+89610(??0NetworkIO@tesseract@@QEAA@XZ)
         91   5A 00009165 ??0PAGE_RES_IT@tesseract@@QEAA@PEAVPAGE_RES@1@@Z = @ILT+33120(??0PAGE_RES_IT@tesseract@@QEAA@PEAVPAGE_RES@1@@Z)
         92   5B 00019394 ??0PAGE_RES_IT@tesseract@@QEAA@XZ = @ILT+99215(??0PAGE_RES_IT@tesseract@@QEAA@XZ)
         93   5C 000112BB ??0POLY_BLOCK@tesseract@@QEAA@AEBVTBOX@1@W4PolyBlockType@1@@Z = @ILT+66230(??0POLY_BLOCK@tesseract@@QEAA@AEBVTBOX@1@W4PolyBlockType@1@@Z)
         94   5D 0000C9F5 ??0POLY_BLOCK@tesseract@@QEAA@PEAVICOORDELT_LIST@1@W4PolyBlockType@1@@Z = @ILT+47600(??0POLY_BLOCK@tesseract@@QEAA@PEAVICOORDELT_LIST@1@W4PolyBlockType@1@@Z)
         95   5E 00005042 ??0POLY_BLOCK@tesseract@@QEAA@XZ = @ILT+16445(??0POLY_BLOCK@tesseract@@QEAA@XZ)
         96   5F 00006442 ??0PageIterator@tesseract@@QEAA@AEBV01@@Z = @ILT+21565(??0PageIterator@tesseract@@QEAA@AEBV01@@Z)
         97   60 00008E5E ??0PageIterator@tesseract@@QEAA@PEAVPAGE_RES@1@PEAVTesseract@1@HHHHHH@Z = @ILT+32345(??0PageIterator@tesseract@@QEAA@PEAVPAGE_RES@1@PEAVTesseract@1@HHHHHH@Z)
         98   61 000021CB ??0ParagraphModel@tesseract@@QEAA@W4ParagraphJustification@1@HHHH@Z = @ILT+4550(??0ParagraphModel@tesseract@@QEAA@W4ParagraphJustification@1@HHHH@Z)
         99   62 0000865C ??0ParagraphModel@tesseract@@QEAA@XZ = @ILT+30295(??0ParagraphModel@tesseract@@QEAA@XZ)
        100   63 00014E43 ??0Parallel@tesseract@@QEAA@PEBDW4NetworkType@1@@Z = @ILT+81470(??0Parallel@tesseract@@QEAA@PEBDW4NetworkType@1@@Z)
        101   64 00012530 ??0ParamsModel@tesseract@@QEAA@$$QEAV01@@Z = @ILT+70955(??0ParamsModel@tesseract@@QEAA@$$QEAV01@@Z)
        102   65 0000BAAA ??0ParamsModel@tesseract@@QEAA@AEBV01@@Z = @ILT+43685(??0ParamsModel@tesseract@@QEAA@AEBV01@@Z)
        103   66 0001402E ??0ParamsModel@tesseract@@QEAA@PEBDAEBV?$vector@MV?$allocator@M@std@@@std@@@Z = @ILT+77865(??0ParamsModel@tesseract@@QEAA@PEBDAEBV?$vector@MV?$allocator@M@std@@@std@@@Z)
        104   67 0001C238 ??0ParamsModel@tesseract@@QEAA@XZ = @ILT+111155(??0ParamsModel@tesseract@@QEAA@XZ)
        105   68 000050FB ??0QSPLINE@tesseract@@QEAA@AEBV01@@Z = @ILT+16630(??0QSPLINE@tesseract@@QEAA@AEBV01@@Z)
        106   69 00017035 ??0QSPLINE@tesseract@@QEAA@HPEAHPEAN@Z = @ILT+90160(??0QSPLINE@tesseract@@QEAA@HPEAHPEAN@Z)
        107   6A 000146E1 ??0QSPLINE@tesseract@@QEAA@QEAHH00HH@Z = @ILT+79580(??0QSPLINE@tesseract@@QEAA@QEAHH00HH@Z)
        108   6B 0000308A ??0QSPLINE@tesseract@@QEAA@XZ = @ILT+8325(??0QSPLINE@tesseract@@QEAA@XZ)
        109   6C 00002356 ??0RecodeBeamSearch@tesseract@@QEAA@AEBV01@@Z = @ILT+4945(??0RecodeBeamSearch@tesseract@@QEAA@AEBV01@@Z)
        110   6D 00011E2D ??0RecodeBeamSearch@tesseract@@QEAA@AEBVUnicharCompress@1@H_NPEAVDict@1@@Z = @ILT+69160(??0RecodeBeamSearch@tesseract@@QEAA@AEBVUnicharCompress@1@H_NPEAVDict@1@@Z)
        111   6E 00006AA5 ??0Reconfig@tesseract@@QEAA@PEBDHHH@Z = @ILT+23200(??0Reconfig@tesseract@@QEAA@PEBDHHH@Z)
        112   6F 00016211 ??0ResultIterator@tesseract@@IEAA@AEBVLTRResultIterator@1@@Z = @ILT+86540(??0ResultIterator@tesseract@@IEAA@AEBVLTRResultIterator@1@@Z)
        113   70 00012CF6 ??0ResultIterator@tesseract@@QEAA@AEBV01@@Z = @ILT+72945(??0ResultIterator@tesseract@@QEAA@AEBV01@@Z)
        114   71 00002810 ??0Reversed@tesseract@@QEAA@AEBV?$basic_string@DU?$char_traits@D@std@@V?$allocator@D@2@@std@@W4NetworkType@1@@Z = @ILT+6155(??0Reversed@tesseract@@QEAA@AEBV?$basic_string@DU?$char_traits@D@std@@V?$allocator@D@2@@std@@W4NetworkType@1@@Z)
        115   72 0001046A ??0STATS@tesseract@@QEAA@HH@Z = @ILT+62565(??0STATS@tesseract@@QEAA@HH@Z)
        116   73 0000A196 ??0STATS@tesseract@@QEAA@XZ = @ILT+37265(??0STATS@tesseract@@QEAA@XZ)
        117   74 0001904C ??0ScrollView@tesseract@@QEAA@PEBDHHHHHH@Z = @ILT+98375(??0ScrollView@tesseract@@QEAA@PEBDHHHHHH@Z)
        118   75 0000EE21 ??0ScrollView@tesseract@@QEAA@PEBDHHHHHH_N0@Z = @ILT+56860(??0ScrollView@tesseract@@QEAA@PEBDHHHHHH_N0@Z)
        119   76 00015B31 ??0ScrollView@tesseract@@QEAA@PEBDHHHHHH_N@Z = @ILT+84780(??0ScrollView@tesseract@@QEAA@PEBDHHHHHH_N@Z)
        120   77 0000C02C ??0Series@tesseract@@QEAA@PEBD@Z = @ILT+45095(??0Series@tesseract@@QEAA@PEBD@Z)
        121   78 000073C4 ??0Shape@tesseract@@QEAA@$$QEAV01@@Z = @ILT+25535(??0Shape@tesseract@@QEAA@$$QEAV01@@Z)
        122   79 00016464 ??0Shape@tesseract@@QEAA@AEBV01@@Z = @ILT+87135(??0Shape@tesseract@@QEAA@AEBV01@@Z)
        123   7A 00004A89 ??0Shape@tesseract@@QEAA@XZ = @ILT+14980(??0Shape@tesseract@@QEAA@XZ)
        124   7B 0000DB2A ??0ShapeClassifier@tesseract@@QEAA@AEBV01@@Z = @ILT+52005(??0ShapeClassifier@tesseract@@QEAA@AEBV01@@Z)
        125   7C 0000656E ??0ShapeClassifier@tesseract@@QEAA@XZ = @ILT+21865(??0ShapeClassifier@tesseract@@QEAA@XZ)
        126   7D 00005669 ??0ShapeTable@tesseract@@QEAA@AEBV01@@Z = @ILT+18020(??0ShapeTable@tesseract@@QEAA@AEBV01@@Z)
        127   7E 0000DC6A ??0ShapeTable@tesseract@@QEAA@AEBVUNICHARSET@1@@Z = @ILT+52325(??0ShapeTable@tesseract@@QEAA@AEBVUNICHARSET@1@@Z)
        128   7F 0001C3D7 ??0ShapeTable@tesseract@@QEAA@XZ = @ILT+111570(??0ShapeTable@tesseract@@QEAA@XZ)
        129   80 000071E4 ??0SquishedDawg@tesseract@@QEAA@AEBV01@@Z = @ILT+25055(??0SquishedDawg@tesseract@@QEAA@AEBV01@@Z)
        130   81 0000C32E ??0SquishedDawg@tesseract@@QEAA@PEA_KHW4DawgType@1@AEBV?$basic_string@DU?$char_traits@D@std@@V?$allocator@D@2@@std@@W4PermuterType@1@HH@Z = @ILT+45865(??0SquishedDawg@tesseract@@QEAA@PEA_KHW4DawgType@1@AEBV?$basic_string@DU?$char_traits@D@std@@V?$allocator@D@2@@std@@W4PermuterType@1@HH@Z)
        131   82 00007C02 ??0SquishedDawg@tesseract@@QEAA@PEBDW4DawgType@1@AEBV?$basic_string@DU?$char_traits@D@std@@V?$allocator@D@2@@std@@W4PermuterType@1@H@Z = @ILT+27645(??0SquishedDawg@tesseract@@QEAA@PEBDW4DawgType@1@AEBV?$basic_string@DU?$char_traits@D@std@@V?$allocator@D@2@@std@@W4PermuterType@1@H@Z)
        132   83 000073B0 ??0SquishedDawg@tesseract@@QEAA@W4DawgType@1@AEBV?$basic_string@DU?$char_traits@D@std@@V?$allocator@D@2@@std@@W4PermuterType@1@H@Z = @ILT+25515(??0SquishedDawg@tesseract@@QEAA@W4DawgType@1@AEBV?$basic_string@DU?$char_traits@D@std@@V?$allocator@D@2@@std@@W4PermuterType@1@H@Z)
        133   84 000011D1 ??0StructuredTable@tesseract@@QEAA@AEBV01@@Z = @ILT+460(??0StructuredTable@tesseract@@QEAA@AEBV01@@Z)
        134   85 000122E2 ??0StructuredTable@tesseract@@QEAA@XZ = @ILT+70365(??0StructuredTable@tesseract@@QEAA@XZ)
        135   86 00016E28 ??0TBOX@tesseract@@QEAA@FFFF@Z = @ILT+89635(??0TBOX@tesseract@@QEAA@FFFF@Z)
        136   87 0001307A ??0TBOX@tesseract@@QEAA@VFCOORD@1@@Z = @ILT+73845(??0TBOX@tesseract@@QEAA@VFCOORD@1@@Z)
        137   88 00013DE0 ??0TBOX@tesseract@@QEAA@VICOORD@1@0@Z = @ILT+77275(??0TBOX@tesseract@@QEAA@VICOORD@1@0@Z)
        138   89 0001B43C ??0TBOX@tesseract@@QEAA@XZ = @ILT+107575(??0TBOX@tesseract@@QEAA@XZ)
        139   8A 00017652 ??0TFile@tesseract@@QEAA@XZ = @ILT+91725(??0TFile@tesseract@@QEAA@XZ)
        140   8B 0000B177 ??0TO_BLOCK@tesseract@@QEAA@PEAVBLOCK@1@@Z = @ILT+41330(??0TO_BLOCK@tesseract@@QEAA@PEAVBLOCK@1@@Z)
        141   8C 00001AFA ??0TO_BLOCK@tesseract@@QEAA@XZ = @ILT+2805(??0TO_BLOCK@tesseract@@QEAA@XZ)
        142   8D 00005ABA ??0TabFind@tesseract@@QEAA@HAEBVICOORD@1@0PEAVTabVector_LIST@1@HHH@Z = @ILT+19125(??0TabFind@tesseract@@QEAA@HAEBVICOORD@1@0PEAVTabVector_LIST@1@HHH@Z)
        143   8E 0001222E ??0TableFinder@tesseract@@QEAA@AEBV01@@Z = @ILT+70185(??0TableFinder@tesseract@@QEAA@AEBV01@@Z)
        144   8F 00012283 ??0TableFinder@tesseract@@QEAA@XZ = @ILT+70270(??0TableFinder@tesseract@@QEAA@XZ)
        145   90 00017837 ??0TableRecognizer@tesseract@@QEAA@XZ = @ILT+92210(??0TableRecognizer@tesseract@@QEAA@XZ)
        146   91 000167ED ??0TessAltoRenderer@tesseract@@QEAA@$$QEAV01@@Z = @ILT+88040(??0TessAltoRenderer@tesseract@@QEAA@$$QEAV01@@Z)
        147   92 000163FB ??0TessAltoRenderer@tesseract@@QEAA@AEBV01@@Z = @ILT+87030(??0TessAltoRenderer@tesseract@@QEAA@AEBV01@@Z)
        148   93 000044BC ??0TessAltoRenderer@tesseract@@QEAA@PEBD@Z = @ILT+13495(??0TessAltoRenderer@tesseract@@QEAA@PEBD@Z)
        149   94 0001D3DB ??0TessBaseAPI@tesseract@@QEAA@XZ = @ILT+115670(??0TessBaseAPI@tesseract@@QEAA@XZ)
        150   95 0000D918 ??0TessBoxTextRenderer@tesseract@@QEAA@$$QEAV01@@Z = @ILT+51475(??0TessBoxTextRenderer@tesseract@@QEAA@$$QEAV01@@Z)
        151   96 0001406F ??0TessBoxTextRenderer@tesseract@@QEAA@AEBV01@@Z = @ILT+77930(??0TessBoxTextRenderer@tesseract@@QEAA@AEBV01@@Z)
        152   97 000076B7 ??0TessBoxTextRenderer@tesseract@@QEAA@PEBD@Z = @ILT+26290(??0TessBoxTextRenderer@tesseract@@QEAA@PEBD@Z)
        153   98 00018471 ??0TessClassifier@tesseract@@QEAA@AEBV01@@Z = @ILT+95340(??0TessClassifier@tesseract@@QEAA@AEBV01@@Z)
        154   99 00005B19 ??0TessClassifier@tesseract@@QEAA@_NPEAVClassify@1@@Z = @ILT+19220(??0TessClassifier@tesseract@@QEAA@_NPEAVClassify@1@@Z)
        155   9A 00016FD6 ??0TessHOcrRenderer@tesseract@@QEAA@$$QEAV01@@Z = @ILT+90065(??0TessHOcrRenderer@tesseract@@QEAA@$$QEAV01@@Z)
        156   9B 0000410B ??0TessHOcrRenderer@tesseract@@QEAA@AEBV01@@Z = @ILT+12550(??0TessHOcrRenderer@tesseract@@QEAA@AEBV01@@Z)
        157   9C 000050F1 ??0TessHOcrRenderer@tesseract@@QEAA@PEBD@Z = @ILT+16620(??0TessHOcrRenderer@tesseract@@QEAA@PEBD@Z)
        158   9D 0001712F ??0TessHOcrRenderer@tesseract@@QEAA@PEBD_N@Z = @ILT+90410(??0TessHOcrRenderer@tesseract@@QEAA@PEBD_N@Z)
        159   9E 00008643 ??0TessLSTMBoxRenderer@tesseract@@QEAA@$$QEAV01@@Z = @ILT+30270(??0TessLSTMBoxRenderer@tesseract@@QEAA@$$QEAV01@@Z)
        160   9F 0001C4E0 ??0TessLSTMBoxRenderer@tesseract@@QEAA@AEBV01@@Z = @ILT+111835(??0TessLSTMBoxRenderer@tesseract@@QEAA@AEBV01@@Z)
        161   A0 0001AB3B ??0TessLSTMBoxRenderer@tesseract@@QEAA@PEBD@Z = @ILT+105270(??0TessLSTMBoxRenderer@tesseract@@QEAA@PEBD@Z)
        162   A1 0001438F ??0TessOsdRenderer@tesseract@@QEAA@$$QEAV01@@Z = @ILT+78730(??0TessOsdRenderer@tesseract@@QEAA@$$QEAV01@@Z)
        163   A2 00018F89 ??0TessOsdRenderer@tesseract@@QEAA@AEBV01@@Z = @ILT+98180(??0TessOsdRenderer@tesseract@@QEAA@AEBV01@@Z)
        164   A3 0001843A ??0TessOsdRenderer@tesseract@@QEAA@PEBD@Z = @ILT+95285(??0TessOsdRenderer@tesseract@@QEAA@PEBD@Z)
        165   A4 00012652 ??0TessPDFRenderer@tesseract@@QEAA@$$QEAV01@@Z = @ILT+71245(??0TessPDFRenderer@tesseract@@QEAA@$$QEAV01@@Z)
        166   A5 0000DAC6 ??0TessPDFRenderer@tesseract@@QEAA@AEBV01@@Z = @ILT+51905(??0TessPDFRenderer@tesseract@@QEAA@AEBV01@@Z)
        167   A6 00017CB5 ??0TessPDFRenderer@tesseract@@QEAA@PEBD0_N@Z = @ILT+93360(??0TessPDFRenderer@tesseract@@QEAA@PEBD0_N@Z)
        168   A7 0000E426 ??0TessResultRenderer@tesseract@@IEAA@PEBD0@Z = @ILT+54305(??0TessResultRenderer@tesseract@@IEAA@PEBD0@Z)
        169   A8 00007725 ??0TessResultRenderer@tesseract@@QEAA@AEBV01@@Z = @ILT+26400(??0TessResultRenderer@tesseract@@QEAA@AEBV01@@Z)
        170   A9 0000E2D2 ??0TessTextRenderer@tesseract@@QEAA@$$QEAV01@@Z = @ILT+53965(??0TessTextRenderer@tesseract@@QEAA@$$QEAV01@@Z)
        171   AA 00011EFF ??0TessTextRenderer@tesseract@@QEAA@AEBV01@@Z = @ILT+69370(??0TessTextRenderer@tesseract@@QEAA@AEBV01@@Z)
        172   AB 0001CE8B ??0TessTextRenderer@tesseract@@QEAA@PEBD@Z = @ILT+114310(??0TessTextRenderer@tesseract@@QEAA@PEBD@Z)
        173   AC 0000F556 ??0TessTsvRenderer@tesseract@@QEAA@$$QEAV01@@Z = @ILT+58705(??0TessTsvRenderer@tesseract@@QEAA@$$QEAV01@@Z)
        174   AD 00017D23 ??0TessTsvRenderer@tesseract@@QEAA@AEBV01@@Z = @ILT+93470(??0TessTsvRenderer@tesseract@@QEAA@AEBV01@@Z)
        175   AE 0001043D ??0TessTsvRenderer@tesseract@@QEAA@PEBD@Z = @ILT+62520(??0TessTsvRenderer@tesseract@@QEAA@PEBD@Z)
        176   AF 000082F6 ??0TessTsvRenderer@tesseract@@QEAA@PEBD_N@Z = @ILT+29425(??0TessTsvRenderer@tesseract@@QEAA@PEBD_N@Z)
        177   B0 000087F1 ??0TessUnlvRenderer@tesseract@@QEAA@$$QEAV01@@Z = @ILT+30700(??0TessUnlvRenderer@tesseract@@QEAA@$$QEAV01@@Z)
        178   B1 00005EC0 ??0TessUnlvRenderer@tesseract@@QEAA@AEBV01@@Z = @ILT+20155(??0TessUnlvRenderer@tesseract@@QEAA@AEBV01@@Z)
        179   B2 0000133E ??0TessUnlvRenderer@tesseract@@QEAA@PEBD@Z = @ILT+825(??0TessUnlvRenderer@tesseract@@QEAA@PEBD@Z)
        180   B3 0001AA91 ??0TessWordStrBoxRenderer@tesseract@@QEAA@$$QEAV01@@Z = @ILT+105100(??0TessWordStrBoxRenderer@tesseract@@QEAA@$$QEAV01@@Z)
        181   B4 00003337 ??0TessWordStrBoxRenderer@tesseract@@QEAA@AEBV01@@Z = @ILT+9010(??0TessWordStrBoxRenderer@tesseract@@QEAA@AEBV01@@Z)
        182   B5 0000F344 ??0TessWordStrBoxRenderer@tesseract@@QEAA@PEBD@Z = @ILT+58175(??0TessWordStrBoxRenderer@tesseract@@QEAA@PEBD@Z)
        183   B6 00017C60 ??0TessdataManager@tesseract@@QEAA@AEBV01@@Z = @ILT+93275(??0TessdataManager@tesseract@@QEAA@AEBV01@@Z)
        184   B7 0000AF47 ??0TessdataManager@tesseract@@QEAA@P6A_NPEBDPEAV?$vector@DV?$allocator@D@std@@@std@@@Z@Z = @ILT+40770(??0TessdataManager@tesseract@@QEAA@P6A_NPEBDPEAV?$vector@DV?$allocator@D@std@@@std@@@Z@Z)
        185   B8 00003C24 ??0TessdataManager@tesseract@@QEAA@XZ = @ILT+11295(??0TessdataManager@tesseract@@QEAA@XZ)
        186   B9 0001CC47 ??0Tesseract@tesseract@@QEAA@XZ = @ILT+113730(??0Tesseract@tesseract@@QEAA@XZ)
        187   BA 000198B7 ??0TextlineProjection@tesseract@@QEAA@H@Z = @ILT+100530(??0TextlineProjection@tesseract@@QEAA@H@Z)
        188   BB 000133FE ??0TrainingSample@tesseract@@QEAA@AEBV01@@Z = @ILT+74745(??0TrainingSample@tesseract@@QEAA@AEBV01@@Z)
        189   BC 0001942F ??0TrainingSample@tesseract@@QEAA@XZ = @ILT+99370(??0TrainingSample@tesseract@@QEAA@XZ)
        190   BD 0001D179 ??0Trie@tesseract@@QEAA@AEBV01@@Z = @ILT+115060(??0Trie@tesseract@@QEAA@AEBV01@@Z)
        191   BE 0000330F ??0Trie@tesseract@@QEAA@W4DawgType@1@AEBV?$basic_string@DU?$char_traits@D@std@@V?$allocator@D@2@@std@@W4PermuterType@1@HH@Z = @ILT+8970(??0Trie@tesseract@@QEAA@W4DawgType@1@AEBV?$basic_string@DU?$char_traits@D@std@@V?$allocator@D@2@@std@@W4PermuterType@1@HH@Z)
        192   BF 0000A8EE ??0UNICHAR@tesseract@@QEAA@H@Z = @ILT+39145(??0UNICHAR@tesseract@@QEAA@H@Z)
        193   C0 00007563 ??0UNICHAR@tesseract@@QEAA@PEBDH@Z = @ILT+25950(??0UNICHAR@tesseract@@QEAA@PEBDH@Z)
        194   C1 0000CB08 ??0UNICHAR@tesseract@@QEAA@XZ = @ILT+47875(??0UNICHAR@tesseract@@QEAA@XZ)
        195   C2 0000353F ??0UNICHARMAP@tesseract@@QEAA@XZ = @ILT+9530(??0UNICHARMAP@tesseract@@QEAA@XZ)
        196   C3 0000E903 ??0UNICHARSET@tesseract@@QEAA@AEBV01@@Z = @ILT+55550(??0UNICHARSET@tesseract@@QEAA@AEBV01@@Z)
        197   C4 00015028 ??0UNICHARSET@tesseract@@QEAA@XZ = @ILT+81955(??0UNICHARSET@tesseract@@QEAA@XZ)
        198   C5 00014FBF ??0UNICHAR_PROPERTIES@UNICHARSET@tesseract@@QEAA@$$QEAU012@@Z = @ILT+81850(??0UNICHAR_PROPERTIES@UNICHARSET@tesseract@@QEAA@$$QEAU012@@Z)
        199   C6 00003BF7 ??0UNICHAR_PROPERTIES@UNICHARSET@tesseract@@QEAA@AEBU012@@Z = @ILT+11250(??0UNICHAR_PROPERTIES@UNICHARSET@tesseract@@QEAA@AEBU012@@Z)
        200   C7 000123A0 ??0UNICHAR_PROPERTIES@UNICHARSET@tesseract@@QEAA@XZ = @ILT+70555(??0UNICHAR_PROPERTIES@UNICHARSET@tesseract@@QEAA@XZ)
        201   C8 0000A36C ??0UnicharCompress@tesseract@@QEAA@AEBV01@@Z = @ILT+37735(??0UnicharCompress@tesseract@@QEAA@AEBV01@@Z)
        202   C9 0000506F ??0UnicharCompress@tesseract@@QEAA@XZ = @ILT+16490(??0UnicharCompress@tesseract@@QEAA@XZ)
        203   CA 0000BEFB ??0WERD@tesseract@@QEAA@PEAVC_BLOB_LIST@1@EPEBD@Z = @ILT+44790(??0WERD@tesseract@@QEAA@PEAVC_BLOB_LIST@1@EPEBD@Z)
        204   CB 0000CFC2 ??0WERD@tesseract@@QEAA@PEAVC_BLOB_LIST@1@PEAV01@@Z = @ILT+49085(??0WERD@tesseract@@QEAA@PEAVC_BLOB_LIST@1@PEAV01@@Z)
        205   CC 0000FDC6 ??0WERD@tesseract@@QEAA@XZ = @ILT+60865(??0WERD@tesseract@@QEAA@XZ)
        206   CD 00010848 ??0WERD_CHOICE@tesseract@@QEAA@AEBV01@@Z = @ILT+63555(??0WERD_CHOICE@tesseract@@QEAA@AEBV01@@Z)
        207   CE 0000A3C6 ??0WERD_CHOICE@tesseract@@QEAA@PEBD0MMEAEBVUNICHARSET@1@@Z = @ILT+37825(??0WERD_CHOICE@tesseract@@QEAA@PEBD0MMEAEBVUNICHARSET@1@@Z)
        208   CF 0000D927 ??0WERD_CHOICE@tesseract@@QEAA@PEBDAEBVUNICHARSET@1@@Z = @ILT+51490(??0WERD_CHOICE@tesseract@@QEAA@PEBDAEBVUNICHARSET@1@@Z)
        209   D0 00006A0F ??0WERD_CHOICE@tesseract@@QEAA@PEBVUNICHARSET@1@@Z = @ILT+23050(??0WERD_CHOICE@tesseract@@QEAA@PEBVUNICHARSET@1@@Z)
        210   D1 000107EE ??0WERD_CHOICE@tesseract@@QEAA@PEBVUNICHARSET@1@H@Z = @ILT+63465(??0WERD_CHOICE@tesseract@@QEAA@PEBVUNICHARSET@1@H@Z)
        211   D2 000135D9 ??0WERD_RES@tesseract@@QEAA@AEBV01@@Z = @ILT+75220(??0WERD_RES@tesseract@@QEAA@AEBV01@@Z)
        212   D3 0001CDE6 ??0WERD_RES@tesseract@@QEAA@PEAVWERD@1@@Z = @ILT+114145(??0WERD_RES@tesseract@@QEAA@PEAVWERD@1@@Z)
        213   D4 00004F2F ??0WERD_RES@tesseract@@QEAA@XZ = @ILT+16170(??0WERD_RES@tesseract@@QEAA@XZ)
        214   D5 0000E5BB ??0Wordrec@tesseract@@QEAA@XZ = @ILT+54710(??0Wordrec@tesseract@@QEAA@XZ)
        215   D6 000034EF ??0const_iterator@UNICHAR@tesseract@@AEAA@PEBD@Z = @ILT+9450(??0const_iterator@UNICHAR@tesseract@@AEAA@PEBD@Z)
        216   D7 00015D66 ??1?$BBGrid@VBLOBNBOX@tesseract@@VBLOBNBOX_CLIST@2@VBLOBNBOX_C_IT@2@@tesseract@@UEAA@XZ = @ILT+85345(??1?$BBGrid@VBLOBNBOX@tesseract@@VBLOBNBOX_CLIST@2@VBLOBNBOX_C_IT@2@@tesseract@@UEAA@XZ)
        217   D8 0001A5B9 ??1?$BBGrid@VColPartition@tesseract@@VColPartition_CLIST@2@VColPartition_C_IT@2@@tesseract@@UEAA@XZ = @ILT+103860(??1?$BBGrid@VColPartition@tesseract@@VColPartition_CLIST@2@VColPartition_C_IT@2@@tesseract@@UEAA@XZ)
        218   D9 000174F9 ??1AlignedBlob@tesseract@@UEAA@XZ = @ILT+91380(??1AlignedBlob@tesseract@@UEAA@XZ)
        219   DA 000163BA ??1BLOCK@tesseract@@QEAA@XZ = @ILT+86965(??1BLOCK@tesseract@@QEAA@XZ)
        220   DB 00019240 ??1BitVector@tesseract@@QEAA@XZ = @ILT+98875(??1BitVector@tesseract@@QEAA@XZ)
        221   DC 00013BD3 ??1BlobGrid@tesseract@@UEAA@XZ = @ILT+76750(??1BlobGrid@tesseract@@UEAA@XZ)
        222   DD 0001A901 ??1CCStruct@tesseract@@UEAA@XZ = @ILT+104700(??1CCStruct@tesseract@@UEAA@XZ)
        223   DE 00015898 ??1CCUtil@tesseract@@UEAA@XZ = @ILT+84115(??1CCUtil@tesseract@@UEAA@XZ)
        224   DF 000064C9 ??1CLIST@tesseract@@QEAA@XZ = @ILT+21700(??1CLIST@tesseract@@QEAA@XZ)
        225   E0 0001D4D5 ??1C_BLOB@tesseract@@QEAA@XZ = @ILT+115920(??1C_BLOB@tesseract@@QEAA@XZ)
        226   E1 0001639C ??1ChoiceIterator@tesseract@@QEAA@XZ = @ILT+86935(??1ChoiceIterator@tesseract@@QEAA@XZ)
        227   E2 000016FE ??1Classify@tesseract@@UEAA@XZ = @ILT+1785(??1Classify@tesseract@@UEAA@XZ)
        228   E3 0000BEE2 ??1ColPartition@tesseract@@QEAA@XZ = @ILT+44765(??1ColPartition@tesseract@@QEAA@XZ)
        229   E4 000178A0 ??1ColPartitionGrid@tesseract@@UEAA@XZ = @ILT+92315(??1ColPartitionGrid@tesseract@@UEAA@XZ)
        230   E5 00007B3F ??1ColumnFinder@tesseract@@UEAA@XZ = @ILT+27450(??1ColumnFinder@tesseract@@UEAA@XZ)
        231   E6 000032A6 ??1DENORM@tesseract@@QEAA@XZ = @ILT+8865(??1DENORM@tesseract@@QEAA@XZ)
        232   E7 0001A6BD ??1Dawg@tesseract@@UEAA@XZ = @ILT+104120(??1Dawg@tesseract@@UEAA@XZ)
        233   E8 0000DDE6 ??1Dict@tesseract@@QEAA@XZ = @ILT+52705(??1Dict@tesseract@@QEAA@XZ)
        234   E9 000198E4 ??1DocumentCache@tesseract@@QEAA@XZ = @ILT+100575(??1DocumentCache@tesseract@@QEAA@XZ)
        235   EA 00006947 ??1DocumentData@tesseract@@QEAA@XZ = @ILT+22850(??1DocumentData@tesseract@@QEAA@XZ)
        236   EB 000174BD ??1EquationDetect@tesseract@@UEAA@XZ = @ILT+91320(??1EquationDetect@tesseract@@UEAA@XZ)
        237   EC 00018769 ??1EquationDetectBase@tesseract@@UEAA@XZ = @ILT+96100(??1EquationDetectBase@tesseract@@UEAA@XZ)
        238   ED 0001C684 ??1FontInfoTable@tesseract@@QEAA@XZ = @ILT+112255(??1FontInfoTable@tesseract@@QEAA@XZ)
        239   EE 0001C1C0 ??1GridBase@tesseract@@UEAA@XZ = @ILT+111035(??1GridBase@tesseract@@UEAA@XZ)
        240   EF 0000EA75 ??1INT_TEMPLATES_STRUCT@tesseract@@QEAA@XZ = @ILT+55920(??1INT_TEMPLATES_STRUCT@tesseract@@QEAA@XZ)
        241   F0 00002C89 ??1ImageData@tesseract@@QEAA@XZ = @ILT+7300(??1ImageData@tesseract@@QEAA@XZ)
        242   F1 000045B6 ??1ImageThresholder@tesseract@@UEAA@XZ = @ILT+13745(??1ImageThresholder@tesseract@@UEAA@XZ)
        243   F2 0000FEF7 ??1IndexMap@tesseract@@UEAA@XZ = @ILT+61170(??1IndexMap@tesseract@@UEAA@XZ)
        244   F3 0001A690 ??1IndexMapBiDi@tesseract@@UEAA@XZ = @ILT+104075(??1IndexMapBiDi@tesseract@@UEAA@XZ)
        245   F4 00019C90 ??1LSTMRecognizer@tesseract@@QEAA@XZ = @ILT+101515(??1LSTMRecognizer@tesseract@@QEAA@XZ)
        246   F5 0001CC6F ??1LTRResultIterator@tesseract@@UEAA@XZ = @ILT+113770(??1LTRResultIterator@tesseract@@UEAA@XZ)
        247   F6 000122A1 ??1MutableIterator@tesseract@@UEAA@XZ = @ILT+70300(??1MutableIterator@tesseract@@UEAA@XZ)
        248   F7 00014A74 ??1Network@tesseract@@UEAA@XZ = @ILT+80495(??1Network@tesseract@@UEAA@XZ)
        249   F8 0001442A ??1NetworkIO@tesseract@@QEAA@XZ = @ILT+78885(??1NetworkIO@tesseract@@QEAA@XZ)
        250   F9 00001686 ??1POLY_BLOCK@tesseract@@QEAA@XZ = @ILT+1665(??1POLY_BLOCK@tesseract@@QEAA@XZ)
        251   FA 000017EE ??1PageIterator@tesseract@@UEAA@XZ = @ILT+2025(??1PageIterator@tesseract@@UEAA@XZ)
        252   FB 00008058 ??1ParamsModel@tesseract@@QEAA@XZ = @ILT+28755(??1ParamsModel@tesseract@@QEAA@XZ)
        253   FC 00018E17 ??1QSPLINE@tesseract@@QEAA@XZ = @ILT+97810(??1QSPLINE@tesseract@@QEAA@XZ)
        254   FD 0000E7CD ??1RecodeBeamSearch@tesseract@@QEAA@XZ = @ILT+55240(??1RecodeBeamSearch@tesseract@@QEAA@XZ)
        255   FE 000053DF ??1ResultIterator@tesseract@@UEAA@XZ = @ILT+17370(??1ResultIterator@tesseract@@UEAA@XZ)
        256   FF 00014FE7 ??1STATS@tesseract@@QEAA@XZ = @ILT+81890(??1STATS@tesseract@@QEAA@XZ)
        257  100 0000E23C ??1ScrollView@tesseract@@QEAA@XZ = @ILT+53815(??1ScrollView@tesseract@@QEAA@XZ)
        258  101 0001A735 ??1Shape@tesseract@@QEAA@XZ = @ILT+104240(??1Shape@tesseract@@QEAA@XZ)
        259  102 00015820 ??1ShapeClassifier@tesseract@@UEAA@XZ = @ILT+83995(??1ShapeClassifier@tesseract@@UEAA@XZ)
        260  103 00001FB4 ??1ShapeTable@tesseract@@QEAA@XZ = @ILT+4015(??1ShapeTable@tesseract@@QEAA@XZ)
        261  104 0000D4C7 ??1SquishedDawg@tesseract@@UEAA@XZ = @ILT+50370(??1SquishedDawg@tesseract@@UEAA@XZ)
        262  105 0000B8E3 ??1StructuredTable@tesseract@@QEAA@XZ = @ILT+43230(??1StructuredTable@tesseract@@QEAA@XZ)
        263  106 000150BE ??1TFile@tesseract@@QEAA@XZ = @ILT+82105(??1TFile@tesseract@@QEAA@XZ)
        264  107 0001C2EC ??1TO_BLOCK@tesseract@@QEAA@XZ = @ILT+111335(??1TO_BLOCK@tesseract@@QEAA@XZ)
        265  108 000109F6 ??1TabFind@tesseract@@UEAA@XZ = @ILT+63985(??1TabFind@tesseract@@UEAA@XZ)
        266  109 00019268 ??1TableFinder@tesseract@@QEAA@XZ = @ILT+98915(??1TableFinder@tesseract@@QEAA@XZ)
        267  10A 000079FF ??1TableRecognizer@tesseract@@QEAA@XZ = @ILT+27130(??1TableRecognizer@tesseract@@QEAA@XZ)
        268  10B 00016C16 ??1TessAltoRenderer@tesseract@@UEAA@XZ = @ILT+89105(??1TessAltoRenderer@tesseract@@UEAA@XZ)
        269  10C 0000E17E ??1TessBaseAPI@tesseract@@UEAA@XZ = @ILT+53625(??1TessBaseAPI@tesseract@@UEAA@XZ)
        270  10D 00009BCE ??1TessBoxTextRenderer@tesseract@@UEAA@XZ = @ILT+35785(??1TessBoxTextRenderer@tesseract@@UEAA@XZ)
        271  10E 0001C3F5 ??1TessClassifier@tesseract@@UEAA@XZ = @ILT+111600(??1TessClassifier@tesseract@@UEAA@XZ)
        272  10F 0001B5FE ??1TessHOcrRenderer@tesseract@@UEAA@XZ = @ILT+108025(??1TessHOcrRenderer@tesseract@@UEAA@XZ)
        273  110 00014C90 ??1TessLSTMBoxRenderer@tesseract@@UEAA@XZ = @ILT+81035(??1TessLSTMBoxRenderer@tesseract@@UEAA@XZ)
        274  111 0000467E ??1TessOsdRenderer@tesseract@@UEAA@XZ = @ILT+13945(??1TessOsdRenderer@tesseract@@UEAA@XZ)
        275  112 000047C3 ??1TessPDFRenderer@tesseract@@UEAA@XZ = @ILT+14270(??1TessPDFRenderer@tesseract@@UEAA@XZ)
        276  113 0001870A ??1TessResultRenderer@tesseract@@UEAA@XZ = @ILT+96005(??1TessResultRenderer@tesseract@@UEAA@XZ)
        277  114 0000C919 ??1TessTextRenderer@tesseract@@UEAA@XZ = @ILT+47380(??1TessTextRenderer@tesseract@@UEAA@XZ)
        278  115 000051FA ??1TessTsvRenderer@tesseract@@UEAA@XZ = @ILT+16885(??1TessTsvRenderer@tesseract@@UEAA@XZ)
        279  116 00010A7D ??1TessUnlvRenderer@tesseract@@UEAA@XZ = @ILT+64120(??1TessUnlvRenderer@tesseract@@UEAA@XZ)
        280  117 0001249A ??1TessWordStrBoxRenderer@tesseract@@UEAA@XZ = @ILT+70805(??1TessWordStrBoxRenderer@tesseract@@UEAA@XZ)
        281  118 00013629 ??1TessdataManager@tesseract@@QEAA@XZ = @ILT+75300(??1TessdataManager@tesseract@@QEAA@XZ)
        282  119 00003F44 ??1Tesseract@tesseract@@UEAA@XZ = @ILT+12095(??1Tesseract@tesseract@@UEAA@XZ)
        283  11A 0000738D ??1TextlineProjection@tesseract@@QEAA@XZ = @ILT+25480(??1TextlineProjection@tesseract@@QEAA@XZ)
        284  11B 0000A736 ??1TrainingSample@tesseract@@QEAA@XZ = @ILT+38705(??1TrainingSample@tesseract@@QEAA@XZ)
        285  11C 0001679D ??1Trie@tesseract@@UEAA@XZ = @ILT+87960(??1Trie@tesseract@@UEAA@XZ)
        286  11D 00003A5D ??1UNICHARMAP@tesseract@@QEAA@XZ = @ILT+10840(??1UNICHARMAP@tesseract@@QEAA@XZ)
        287  11E 00019A5B ??1UNICHARSET@tesseract@@QEAA@XZ = @ILT+100950(??1UNICHARSET@tesseract@@QEAA@XZ)
        288  11F 000182E6 ??1UNICHAR_PROPERTIES@UNICHARSET@tesseract@@QEAA@XZ = @ILT+94945(??1UNICHAR_PROPERTIES@UNICHARSET@tesseract@@QEAA@XZ)
        289  120 000153E3 ??1UnicharCompress@tesseract@@QEAA@XZ = @ILT+82910(??1UnicharCompress@tesseract@@QEAA@XZ)
        290  121 000102A8 ??1WERD@tesseract@@QEAA@XZ = @ILT+62115(??1WERD@tesseract@@QEAA@XZ)
        291  122 0000F1AA ??1WERD_CHOICE@tesseract@@QEAA@XZ = @ILT+57765(??1WERD_CHOICE@tesseract@@QEAA@XZ)
        292  123 00013CDC ??1WERD_RES@tesseract@@QEAA@XZ = @ILT+77015(??1WERD_RES@tesseract@@QEAA@XZ)
        293  124 00010BCC ??1Wordrec@tesseract@@UEAA@XZ = @ILT+64455(??1Wordrec@tesseract@@UEAA@XZ)
        294  125 00019713 ??4?$BBGrid@VBLOBNBOX@tesseract@@VBLOBNBOX_CLIST@2@VBLOBNBOX_C_IT@2@@tesseract@@QEAAAEAV01@AEBV01@@Z = @ILT+100110(??4?$BBGrid@VBLOBNBOX@tesseract@@VBLOBNBOX_CLIST@2@VBLOBNBOX_C_IT@2@@tesseract@@QEAAAEAV01@AEBV01@@Z)
        295  126 0001AECE ??4?$BBGrid@VColPartition@tesseract@@VColPartition_CLIST@2@VColPartition_C_IT@2@@tesseract@@QEAAAEAV01@AEBV01@@Z = @ILT+106185(??4?$BBGrid@VColPartition@tesseract@@VColPartition_CLIST@2@VColPartition_C_IT@2@@tesseract@@QEAAAEAV01@AEBV01@@Z)
        296  127 0001900B ??4AlignedBlob@tesseract@@QEAAAEAV01@AEBV01@@Z = @ILT+98310(??4AlignedBlob@tesseract@@QEAAAEAV01@AEBV01@@Z)
        297  128 0001CCC4 ??4BLOCK@tesseract@@QEAAAEAV01@AEBV01@@Z = @ILT+113855(??4BLOCK@tesseract@@QEAAAEAV01@AEBV01@@Z)
        298  129 0000CDFB ??4BitVector@tesseract@@QEAAAEAV01@AEBV01@@Z = @ILT+48630(??4BitVector@tesseract@@QEAAAEAV01@AEBV01@@Z)
        299  12A 0001652C ??4BlobGrid@tesseract@@QEAAAEAV01@AEBV01@@Z = @ILT+87335(??4BlobGrid@tesseract@@QEAAAEAV01@AEBV01@@Z)
        300  12B 0001656D ??4CCStruct@tesseract@@QEAAAEAV01@AEBV01@@Z = @ILT+87400(??4CCStruct@tesseract@@QEAAAEAV01@AEBV01@@Z)
        301  12C 0000CA54 ??4CCUtil@tesseract@@QEAAAEAV01@AEBV01@@Z = @ILT+47695(??4CCUtil@tesseract@@QEAAAEAV01@AEBV01@@Z)
        302  12D 0001811F ??4CHAR_FRAGMENT@tesseract@@QEAAAEAV01@$$QEAV01@@Z = @ILT+94490(??4CHAR_FRAGMENT@tesseract@@QEAAAEAV01@$$QEAV01@@Z)
        303  12E 0000A907 ??4CHAR_FRAGMENT@tesseract@@QEAAAEAV01@AEBV01@@Z = @ILT+39170(??4CHAR_FRAGMENT@tesseract@@QEAAAEAV01@AEBV01@@Z)
        304  12F 0000EB24 ??4CLIST@tesseract@@QEAAAEAV01@AEBV01@@Z = @ILT+56095(??4CLIST@tesseract@@QEAAAEAV01@AEBV01@@Z)
        305  130 0000B456 ??4CLIST_ITERATOR@tesseract@@QEAAAEAV01@$$QEAV01@@Z = @ILT+42065(??4CLIST_ITERATOR@tesseract@@QEAAAEAV01@$$QEAV01@@Z)
        306  131 0000E7C8 ??4CLIST_ITERATOR@tesseract@@QEAAAEAV01@AEBV01@@Z = @ILT+55235(??4CLIST_ITERATOR@tesseract@@QEAAAEAV01@AEBV01@@Z)
        307  132 0000C018 ??4C_BLOB@tesseract@@QEAAAEAV01@AEBV01@@Z = @ILT+45075(??4C_BLOB@tesseract@@QEAAAEAV01@AEBV01@@Z)
        308  133 000035F3 ??4ChoiceIterator@tesseract@@QEAAAEAV01@AEBV01@@Z = @ILT+9710(??4ChoiceIterator@tesseract@@QEAAAEAV01@AEBV01@@Z)
        309  134 00012C60 ??4Classify@tesseract@@QEAAAEAV01@AEBV01@@Z = @ILT+72795(??4Classify@tesseract@@QEAAAEAV01@AEBV01@@Z)
        310  135 0001A947 ??4ColPartitionGrid@tesseract@@QEAAAEAV01@AEBV01@@Z = @ILT+104770(??4ColPartitionGrid@tesseract@@QEAAAEAV01@AEBV01@@Z)
        311  136 0000597A ??4DENORM@tesseract@@QEAAAEAV01@AEBV01@@Z = @ILT+18805(??4DENORM@tesseract@@QEAAAEAV01@AEBV01@@Z)
        312  137 0000F439 ??4Dawg@tesseract@@QEAAAEAV01@AEBV01@@Z = @ILT+58420(??4Dawg@tesseract@@QEAAAEAV01@AEBV01@@Z)
        313  138 00004223 ??4Dict@tesseract@@QEAAAEAV01@AEBV01@@Z = @ILT+12830(??4Dict@tesseract@@QEAAAEAV01@AEBV01@@Z)
        314  139 0000928C ??4ELIST2@tesseract@@QEAAAEAV01@$$QEAV01@@Z = @ILT+33415(??4ELIST2@tesseract@@QEAAAEAV01@$$QEAV01@@Z)
        315  13A 00009200 ??4ELIST2@tesseract@@QEAAAEAV01@AEBV01@@Z = @ILT+33275(??4ELIST2@tesseract@@QEAAAEAV01@AEBV01@@Z)
        316  13B 00002A68 ??4ELIST2_ITERATOR@tesseract@@QEAAAEAV01@$$QEAV01@@Z = @ILT+6755(??4ELIST2_ITERATOR@tesseract@@QEAAAEAV01@$$QEAV01@@Z)
        317  13C 00011FEF ??4ELIST2_ITERATOR@tesseract@@QEAAAEAV01@AEBV01@@Z = @ILT+69610(??4ELIST2_ITERATOR@tesseract@@QEAAAEAV01@AEBV01@@Z)
        318  13D 00015546 ??4ELIST@tesseract@@QEAAAEAV01@$$QEAV01@@Z = @ILT+83265(??4ELIST@tesseract@@QEAAAEAV01@$$QEAV01@@Z)
        319  13E 00014592 ??4ELIST@tesseract@@QEAAAEAV01@AEBV01@@Z = @ILT+79245(??4ELIST@tesseract@@QEAAAEAV01@AEBV01@@Z)
        320  13F 0001A631 ??4ELIST_ITERATOR@tesseract@@QEAAAEAV01@$$QEAV01@@Z = @ILT+103980(??4ELIST_ITERATOR@tesseract@@QEAAAEAV01@$$QEAV01@@Z)
        321  140 00002BDA ??4ELIST_ITERATOR@tesseract@@QEAAAEAV01@AEBV01@@Z = @ILT+7125(??4ELIST_ITERATOR@tesseract@@QEAAAEAV01@AEBV01@@Z)
        322  141 0001160D ??4ERRCODE@tesseract@@QEAAAEAV01@$$QEAV01@@Z = @ILT+67080(??4ERRCODE@tesseract@@QEAAAEAV01@$$QEAV01@@Z)
        323  142 00014F10 ??4ERRCODE@tesseract@@QEAAAEAV01@AEBV01@@Z = @ILT+81675(??4ERRCODE@tesseract@@QEAAAEAV01@AEBV01@@Z)
        324  143 0001BBF8 ??4EquationDetectBase@tesseract@@QEAAAEAV01@AEBV01@@Z = @ILT+109555(??4EquationDetectBase@tesseract@@QEAAAEAV01@AEBV01@@Z)
        325  144 00011C2A ??4FCOORD@tesseract@@QEAAAEAV01@$$QEAV01@@Z = @ILT+68645(??4FCOORD@tesseract@@QEAAAEAV01@$$QEAV01@@Z)
        326  145 00005B41 ??4FCOORD@tesseract@@QEAAAEAV01@AEBV01@@Z = @ILT+19260(??4FCOORD@tesseract@@QEAAAEAV01@AEBV01@@Z)
        327  146 0001015E ??4GridBase@tesseract@@QEAAAEAV01@AEBV01@@Z = @ILT+61785(??4GridBase@tesseract@@QEAAAEAV01@AEBV01@@Z)
        328  147 0000A867 ??4INT_TEMPLATES_STRUCT@tesseract@@QEAAAEAU01@AEBU01@@Z = @ILT+39010(??4INT_TEMPLATES_STRUCT@tesseract@@QEAAAEAU01@AEBU01@@Z)
        329  148 0001B13F ??4Image@tesseract@@QEAAAEAV01@$$QEAV01@@Z = @ILT+106810(??4Image@tesseract@@QEAAAEAV01@$$QEAV01@@Z)
        330  149 00018F43 ??4Image@tesseract@@QEAAAEAV01@AEBV01@@Z = @ILT+98110(??4Image@tesseract@@QEAAAEAV01@AEBV01@@Z)
        331  14A 00012F03 ??4ImageData@tesseract@@QEAAAEAV01@AEBV01@@Z = @ILT+73470(??4ImageData@tesseract@@QEAAAEAV01@AEBV01@@Z)
        332  14B 00007536 ??4ImageThresholder@tesseract@@QEAAAEAV01@AEBV01@@Z = @ILT+25905(??4ImageThresholder@tesseract@@QEAAAEAV01@AEBV01@@Z)
        333  14C 0001A618 ??4IndexMap@tesseract@@QEAAAEAV01@AEBV01@@Z = @ILT+103955(??4IndexMap@tesseract@@QEAAAEAV01@AEBV01@@Z)
        334  14D 00015CF8 ??4IndexMapBiDi@tesseract@@QEAAAEAV01@AEBV01@@Z = @ILT+85235(??4IndexMapBiDi@tesseract@@QEAAAEAV01@AEBV01@@Z)
        335  14E 0001AF3C ??4IntFeatureSpace@tesseract@@QEAAAEAV01@$$QEAV01@@Z = @ILT+106295(??4IntFeatureSpace@tesseract@@QEAAAEAV01@$$QEAV01@@Z)
        336  14F 00004F43 ??4IntFeatureSpace@tesseract@@QEAAAEAV01@AEBV01@@Z = @ILT+16190(??4IntFeatureSpace@tesseract@@QEAAAEAV01@AEBV01@@Z)
        337  150 000067F3 ??4IntSimdMatrix@tesseract@@QEAAAEAU01@$$QEAU01@@Z = @ILT+22510(??4IntSimdMatrix@tesseract@@QEAAAEAU01@$$QEAU01@@Z)
        338  151 0000E412 ??4IntSimdMatrix@tesseract@@QEAAAEAU01@AEBU01@@Z = @ILT+54285(??4IntSimdMatrix@tesseract@@QEAAAEAU01@AEBU01@@Z)
        339  152 00018BA6 ??4LLSQ@tesseract@@QEAAAEAV01@$$QEAV01@@Z = @ILT+97185(??4LLSQ@tesseract@@QEAAAEAV01@$$QEAV01@@Z)
        340  153 000173AA ??4LLSQ@tesseract@@QEAAAEAV01@AEBV01@@Z = @ILT+91045(??4LLSQ@tesseract@@QEAAAEAV01@AEBV01@@Z)
        341  154 0000E4AD ??4LTRResultIterator@tesseract@@QEAAAEAV01@AEBV01@@Z = @ILT+54440(??4LTRResultIterator@tesseract@@QEAAAEAV01@AEBV01@@Z)
        342  155 00002A72 ??4MutableIterator@tesseract@@QEAAAEAV01@AEBV01@@Z = @ILT+6765(??4MutableIterator@tesseract@@QEAAAEAV01@AEBV01@@Z)
        343  156 00001C99 ??4Network@tesseract@@QEAAAEAV01@AEBV01@@Z = @ILT+3220(??4Network@tesseract@@QEAAAEAV01@AEBV01@@Z)
        344  157 00011A4F ??4NetworkIO@tesseract@@QEAAAEAV01@$$QEAV01@@Z = @ILT+68170(??4NetworkIO@tesseract@@QEAAAEAV01@$$QEAV01@@Z)
        345  158 0001CD96 ??4NetworkIO@tesseract@@QEAAAEAV01@AEBV01@@Z = @ILT+114065(??4NetworkIO@tesseract@@QEAAAEAV01@AEBV01@@Z)
        346  159 0001AD93 ??4PAGE_RES_IT@tesseract@@QEAAAEAV01@$$QEAV01@@Z = @ILT+105870(??4PAGE_RES_IT@tesseract@@QEAAAEAV01@$$QEAV01@@Z)
        347  15A 0000FBD2 ??4PAGE_RES_IT@tesseract@@QEAAAEAV01@AEBV01@@Z = @ILT+60365(??4PAGE_RES_IT@tesseract@@QEAAAEAV01@AEBV01@@Z)
        348  15B 000146CD ??4PageIterator@tesseract@@QEAAAEBV01@AEBV01@@Z = @ILT+79560(??4PageIterator@tesseract@@QEAAAEBV01@AEBV01@@Z)
        349  15C 00013313 ??4ParagraphModel@tesseract@@QEAAAEAV01@$$QEAV01@@Z = @ILT+74510(??4ParagraphModel@tesseract@@QEAAAEAV01@$$QEAV01@@Z)
        350  15D 0000E5A7 ??4ParagraphModel@tesseract@@QEAAAEAV01@AEBV01@@Z = @ILT+54690(??4ParagraphModel@tesseract@@QEAAAEAV01@AEBV01@@Z)
        351  15E 0001C47C ??4ParamUtils@tesseract@@QEAAAEAV01@$$QEAV01@@Z = @ILT+111735(??4ParamUtils@tesseract@@QEAAAEAV01@$$QEAV01@@Z)
        352  15F 0001B1E9 ??4ParamUtils@tesseract@@QEAAAEAV01@AEBV01@@Z = @ILT+106980(??4ParamUtils@tesseract@@QEAAAEAV01@AEBV01@@Z)
        353  160 00016388 ??4ParamsModel@tesseract@@QEAAAEAV01@$$QEAV01@@Z = @ILT+86915(??4ParamsModel@tesseract@@QEAAAEAV01@$$QEAV01@@Z)
        354  161 00015F14 ??4ParamsModel@tesseract@@QEAAAEAV01@AEBV01@@Z = @ILT+85775(??4ParamsModel@tesseract@@QEAAAEAV01@AEBV01@@Z)
        355  162 0000346D ??4QSPLINE@tesseract@@QEAAAEAV01@AEBV01@@Z = @ILT+9320(??4QSPLINE@tesseract@@QEAAAEAV01@AEBV01@@Z)
        356  163 00013D36 ??4ResultIterator@tesseract@@QEAAAEAV01@AEBV01@@Z = @ILT+77105(??4ResultIterator@tesseract@@QEAAAEAV01@AEBV01@@Z)
        357  164 00013BA6 ??4STATS@tesseract@@QEAAAEAV01@AEBV01@@Z = @ILT+76705(??4STATS@tesseract@@QEAAAEAV01@AEBV01@@Z)
        358  165 000154FB ??4Shape@tesseract@@QEAAAEAV01@$$QEAV01@@Z = @ILT+83190(??4Shape@tesseract@@QEAAAEAV01@$$QEAV01@@Z)
        359  166 0001B15D ??4Shape@tesseract@@QEAAAEAV01@AEBV01@@Z = @ILT+106840(??4Shape@tesseract@@QEAAAEAV01@AEBV01@@Z)
        360  167 0001B2A7 ??4ShapeClassifier@tesseract@@QEAAAEAV01@AEBV01@@Z = @ILT+107170(??4ShapeClassifier@tesseract@@QEAAAEAV01@AEBV01@@Z)
        361  168 000087E2 ??4ShapeTable@tesseract@@QEAAAEAV01@AEBV01@@Z = @ILT+30685(??4ShapeTable@tesseract@@QEAAAEAV01@AEBV01@@Z)
        362  169 0000C720 ??4SquishedDawg@tesseract@@QEAAAEAV01@AEBV01@@Z = @ILT+46875(??4SquishedDawg@tesseract@@QEAAAEAV01@AEBV01@@Z)
        363  16A 0000CB49 ??4StructuredTable@tesseract@@QEAAAEAV01@AEBV01@@Z = @ILT+47940(??4StructuredTable@tesseract@@QEAAAEAV01@AEBV01@@Z)
        364  16B 00016EF5 ??4TBOX@tesseract@@QEAAAEAV01@$$QEAV01@@Z = @ILT+89840(??4TBOX@tesseract@@QEAAAEAV01@$$QEAV01@@Z)
        365  16C 0000A295 ??4TBOX@tesseract@@QEAAAEAV01@AEBV01@@Z = @ILT+37520(??4TBOX@tesseract@@QEAAAEAV01@AEBV01@@Z)
        366  16D 00006118 ??4TFile@tesseract@@QEAAAEAV01@AEBV01@@Z = @ILT+20755(??4TFile@tesseract@@QEAAAEAV01@AEBV01@@Z)
        367  16E 0000D09E ??4TableFinder@tesseract@@QEAAAEAV01@AEBV01@@Z = @ILT+49305(??4TableFinder@tesseract@@QEAAAEAV01@AEBV01@@Z)
        368  16F 0000EEB7 ??4TableRecognizer@tesseract@@QEAAAEAV01@AEBV01@@Z = @ILT+57010(??4TableRecognizer@tesseract@@QEAAAEAV01@AEBV01@@Z)
        369  170 00006F9B ??4TessAltoRenderer@tesseract@@QEAAAEAV01@$$QEAV01@@Z = @ILT+24470(??4TessAltoRenderer@tesseract@@QEAAAEAV01@$$QEAV01@@Z)
        370  171 0000FA06 ??4TessAltoRenderer@tesseract@@QEAAAEAV01@AEBV01@@Z = @ILT+59905(??4TessAltoRenderer@tesseract@@QEAAAEAV01@AEBV01@@Z)
        371  172 00019D62 ??4TessBoxTextRenderer@tesseract@@QEAAAEAV01@$$QEAV01@@Z = @ILT+101725(??4TessBoxTextRenderer@tesseract@@QEAAAEAV01@$$QEAV01@@Z)
        372  173 000068B1 ??4TessBoxTextRenderer@tesseract@@QEAAAEAV01@AEBV01@@Z = @ILT+22700(??4TessBoxTextRenderer@tesseract@@QEAAAEAV01@AEBV01@@Z)
        373  174 0001C10C ??4TessClassifier@tesseract@@QEAAAEAV01@AEBV01@@Z = @ILT+110855(??4TessClassifier@tesseract@@QEAAAEAV01@AEBV01@@Z)
        374  175 000157AD ??4TessHOcrRenderer@tesseract@@QEAAAEAV01@$$QEAV01@@Z = @ILT+83880(??4TessHOcrRenderer@tesseract@@QEAAAEAV01@$$QEAV01@@Z)
        375  176 00008AD0 ??4TessHOcrRenderer@tesseract@@QEAAAEAV01@AEBV01@@Z = @ILT+31435(??4TessHOcrRenderer@tesseract@@QEAAAEAV01@AEBV01@@Z)
        376  177 0000C25C ??4TessLSTMBoxRenderer@tesseract@@QEAAAEAV01@$$QEAV01@@Z = @ILT+45655(??4TessLSTMBoxRenderer@tesseract@@QEAAAEAV01@$$QEAV01@@Z)
        377  178 00009F84 ??4TessLSTMBoxRenderer@tesseract@@QEAAAEAV01@AEBV01@@Z = @ILT+36735(??4TessLSTMBoxRenderer@tesseract@@QEAAAEAV01@AEBV01@@Z)
        378  179 000038C8 ??4TessOsdRenderer@tesseract@@QEAAAEAV01@$$QEAV01@@Z = @ILT+10435(??4TessOsdRenderer@tesseract@@QEAAAEAV01@$$QEAV01@@Z)
        379  17A 00015CCB ??4TessOsdRenderer@tesseract@@QEAAAEAV01@AEBV01@@Z = @ILT+85190(??4TessOsdRenderer@tesseract@@QEAAAEAV01@AEBV01@@Z)
        380  17B 0000425F ??4TessPDFRenderer@tesseract@@QEAAAEAV01@$$QEAV01@@Z = @ILT+12890(??4TessPDFRenderer@tesseract@@QEAAAEAV01@$$QEAV01@@Z)
        381  17C 00011F2C ??4TessPDFRenderer@tesseract@@QEAAAEAV01@AEBV01@@Z = @ILT+69415(??4TessPDFRenderer@tesseract@@QEAAAEAV01@AEBV01@@Z)
        382  17D 00005F6F ??4TessResultRenderer@tesseract@@QEAAAEAV01@AEBV01@@Z = @ILT+20330(??4TessResultRenderer@tesseract@@QEAAAEAV01@AEBV01@@Z)
        383  17E 0000ECDC ??4TessTextRenderer@tesseract@@QEAAAEAV01@$$QEAV01@@Z = @ILT+56535(??4TessTextRenderer@tesseract@@QEAAAEAV01@$$QEAV01@@Z)
        384  17F 00006A87 ??4TessTextRenderer@tesseract@@QEAAAEAV01@AEBV01@@Z = @ILT+23170(??4TessTextRenderer@tesseract@@QEAAAEAV01@AEBV01@@Z)
        385  180 000167E8 ??4TessTsvRenderer@tesseract@@QEAAAEAV01@$$QEAV01@@Z = @ILT+88035(??4TessTsvRenderer@tesseract@@QEAAAEAV01@$$QEAV01@@Z)
        386  181 0001BF6D ??4TessTsvRenderer@tesseract@@QEAAAEAV01@AEBV01@@Z = @ILT+110440(??4TessTsvRenderer@tesseract@@QEAAAEAV01@AEBV01@@Z)
        387  182 00002671 ??4TessUnlvRenderer@tesseract@@QEAAAEAV01@$$QEAV01@@Z = @ILT+5740(??4TessUnlvRenderer@tesseract@@QEAAAEAV01@$$QEAV01@@Z)
        388  183 000133F4 ??4TessUnlvRenderer@tesseract@@QEAAAEAV01@AEBV01@@Z = @ILT+74735(??4TessUnlvRenderer@tesseract@@QEAAAEAV01@AEBV01@@Z)
        389  184 0001AAD7 ??4TessWordStrBoxRenderer@tesseract@@QEAAAEAV01@$$QEAV01@@Z = @ILT+105170(??4TessWordStrBoxRenderer@tesseract@@QEAAAEAV01@$$QEAV01@@Z)
        390  185 00008797 ??4TessWordStrBoxRenderer@tesseract@@QEAAAEAV01@AEBV01@@Z = @ILT+30610(??4TessWordStrBoxRenderer@tesseract@@QEAAAEAV01@AEBV01@@Z)
        391  186 0000FC04 ??4TessdataManager@tesseract@@QEAAAEAV01@AEBV01@@Z = @ILT+60415(??4TessdataManager@tesseract@@QEAAAEAV01@AEBV01@@Z)
        392  187 0000F0B0 ??4TextlineProjection@tesseract@@QEAAAEAV01@AEBV01@@Z = @ILT+57515(??4TextlineProjection@tesseract@@QEAAAEAV01@AEBV01@@Z)
        393  188 00003D78 ??4TrainingSample@tesseract@@QEAAAEAV01@AEBV01@@Z = @ILT+11635(??4TrainingSample@tesseract@@QEAAAEAV01@AEBV01@@Z)
        394  189 00010FF0 ??4Trie@tesseract@@QEAAAEAV01@AEBV01@@Z = @ILT+65515(??4Trie@tesseract@@QEAAAEAV01@AEBV01@@Z)
        395  18A 0001C42C ??4UNICHAR@tesseract@@QEAAAEAV01@$$QEAV01@@Z = @ILT+111655(??4UNICHAR@tesseract@@QEAAAEAV01@$$QEAV01@@Z)
        396  18B 00007B7B ??4UNICHAR@tesseract@@QEAAAEAV01@AEBV01@@Z = @ILT+27510(??4UNICHAR@tesseract@@QEAAAEAV01@AEBV01@@Z)
        397  18C 000080A3 ??4UNICHARMAP@tesseract@@QEAAAEAV01@AEBV01@@Z = @ILT+28830(??4UNICHARMAP@tesseract@@QEAAAEAV01@AEBV01@@Z)
        398  18D 0000E9DF ??4UNICHARSET@tesseract@@QEAAAEAV01@AEBV01@@Z = @ILT+55770(??4UNICHARSET@tesseract@@QEAAAEAV01@AEBV01@@Z)
        399  18E 000174FE ??4UNICHAR_PROPERTIES@UNICHARSET@tesseract@@QEAAAEAU012@$$QEAU012@@Z = @ILT+91385(??4UNICHAR_PROPERTIES@UNICHARSET@tesseract@@QEAAAEAU012@$$QEAU012@@Z)
        400  18F 0000778E ??4UNICHAR_PROPERTIES@UNICHARSET@tesseract@@QEAAAEAU012@AEBU012@@Z = @ILT+26505(??4UNICHAR_PROPERTIES@UNICHARSET@tesseract@@QEAAAEAU012@AEBU012@@Z)
        401  190 0000CEAF ??4UnicharCompress@tesseract@@QEAAAEAV01@AEBV01@@Z = @ILT+48810(??4UnicharCompress@tesseract@@QEAAAEAV01@AEBV01@@Z)
        402  191 0001B991 ??4WERD@tesseract@@QEAAAEAV01@AEBV01@@Z = @ILT+108940(??4WERD@tesseract@@QEAAAEAV01@AEBV01@@Z)
        403  192 000128E1 ??4WERD_CHOICE@tesseract@@QEAAAEAV01@AEBV01@@Z = @ILT+71900(??4WERD_CHOICE@tesseract@@QEAAAEAV01@AEBV01@@Z)
        404  193 000022DE ??4WERD_RES@tesseract@@QEAAAEAV01@AEBV01@@Z = @ILT+4825(??4WERD_RES@tesseract@@QEAAAEAV01@AEBV01@@Z)
        405  194 000059C5 ??4const_iterator@UNICHAR@tesseract@@QEAAAEAV012@$$QEAV012@@Z = @ILT+18880(??4const_iterator@UNICHAR@tesseract@@QEAAAEAV012@$$QEAV012@@Z)
        406  195 00006D7A ??4const_iterator@UNICHAR@tesseract@@QEAAAEAV012@AEBV012@@Z = @ILT+23925(??4const_iterator@UNICHAR@tesseract@@QEAAAEAV012@AEBV012@@Z)
        407  196 00005D44 ??8FCOORD@tesseract@@QEAA_NAEBV01@@Z = @ILT+19775(??8FCOORD@tesseract@@QEAA_NAEBV01@@Z)
        408  197 0000DB66 ??8Image@tesseract@@QEBA_N$$T@Z = @ILT+52065(??8Image@tesseract@@QEBA_N$$T@Z)
        409  198 0000ED5E ??8PAGE_RES_IT@tesseract@@QEBA_NAEBV01@@Z = @ILT+56665(??8PAGE_RES_IT@tesseract@@QEBA_NAEBV01@@Z)
        410  199 0000B686 ??8Shape@tesseract@@QEBA_NAEBV01@@Z = @ILT+42625(??8Shape@tesseract@@QEBA_NAEBV01@@Z)
        411  19A 0001B22F ??8TBOX@tesseract@@QEBA_NAEBV01@@Z = @ILT+107050(??8TBOX@tesseract@@QEBA_NAEBV01@@Z)
        412  19B 00015389 ??9FCOORD@tesseract@@QEAA_NAEBV01@@Z = @ILT+82820(??9FCOORD@tesseract@@QEAA_NAEBV01@@Z)
        413  19C 0001ACC1 ??9Image@tesseract@@QEBA_N$$T@Z = @ILT+105660(??9Image@tesseract@@QEBA_N$$T@Z)
        414  19D 0001308E ??9PAGE_RES_IT@tesseract@@QEBA_NAEBV01@@Z = @ILT+73865(??9PAGE_RES_IT@tesseract@@QEBA_NAEBV01@@Z)
        415  19E 00014F5B ??ABitVector@tesseract@@QEBA_NH@Z = @ILT+81750(??ABitVector@tesseract@@QEBA_NH@Z)
        416  19F 0000140B ??AShape@tesseract@@QEBAAEBUUnicharAndFonts@1@H@Z = @ILT+1030(??AShape@tesseract@@QEBAAEBUUnicharAndFonts@1@H@Z)
        417  1A0 000135DE ??BImage@tesseract@@QEAAPEAPEAUPix@@XZ = @ILT+75225(??BImage@tesseract@@QEAAPEAPEAUPix@@XZ)
        418  1A1 00013354 ??BImage@tesseract@@QEBAPEAUPix@@XZ = @ILT+74575(??BImage@tesseract@@QEBAPEAUPix@@XZ)
        419  1A2 00012391 ??BImage@tesseract@@QEBA_NXZ = @ILT+70540(??BImage@tesseract@@QEBA_NXZ)
        420  1A3 0000D094 ??CImage@tesseract@@QEBAPEAUPix@@XZ = @ILT+49295(??CImage@tesseract@@QEBAPEAUPix@@XZ)
        421  1A4 0000C7CA ??Dconst_iterator@UNICHAR@tesseract@@QEBAHXZ = @ILT+47045(??Dconst_iterator@UNICHAR@tesseract@@QEBAHXZ)
        422  1A5 0000C752 ??Econst_iterator@UNICHAR@tesseract@@QEAAAEAV012@XZ = @ILT+46925(??Econst_iterator@UNICHAR@tesseract@@QEAAAEAV012@XZ)
        423  1A6 00012620 ??IImage@tesseract@@QEBA?AV01@V01@@Z = @ILT+71195(??IImage@tesseract@@QEBA?AV01@V01@@Z)
        424  1A7 00005925 ??UImage@tesseract@@QEBA?AV01@V01@@Z = @ILT+18720(??UImage@tesseract@@QEBA?AV01@V01@@Z)
        425  1A8 00014682 ??YWERD_CHOICE@tesseract@@QEAAAEAV01@AEBV01@@Z = @ILT+79485(??YWERD_CHOICE@tesseract@@QEAAAEAV01@AEBV01@@Z)
        426  1A9 0001708A ??_4BitVector@tesseract@@QEAAXAEBV01@@Z = @ILT+90245(??_4BitVector@tesseract@@QEAAXAEBV01@@Z)
        427  1AA 000055FB ??_4Image@tesseract@@QEAAAEAV01@V01@@Z = @ILT+17910(??_4Image@tesseract@@QEAAAEAV01@V01@@Z)
        428  1AB 0001AA7D ??_5BitVector@tesseract@@QEAAXAEBV01@@Z = @ILT+105080(??_5BitVector@tesseract@@QEAAXAEBV01@@Z)
        429  1AC 00008931 ??_5Image@tesseract@@QEAAAEAV01@V01@@Z = @ILT+31020(??_5Image@tesseract@@QEAAAEAV01@V01@@Z)
        430  1AD 00002B8A ??_6BitVector@tesseract@@QEAAXAEBV01@@Z = @ILT+7045(??_6BitVector@tesseract@@QEAAXAEBV01@@Z)
        431  1AE 00A3E4F0 ??_7?$BBGrid@VBLOBNBOX@tesseract@@VBLOBNBOX_CLIST@2@VBLOBNBOX_C_IT@2@@tesseract@@6B@ = ??_7?$BBGrid@VBLOBNBOX@tesseract@@VBLOBNBOX_CLIST@2@VBLOBNBOX_C_IT@2@@tesseract@@6B@ (const tesseract::BBGrid<class tesseract::BLOBNBOX,class tesseract::BLOBNBOX_CLIST,class tesseract::BLOBNBOX_C_IT>::`vftable')
        432  1AF 00A3E5D8 ??_7?$BBGrid@VColPartition@tesseract@@VColPartition_CLIST@2@VColPartition_C_IT@2@@tesseract@@6B@ = ??_7?$BBGrid@VColPartition@tesseract@@VColPartition_CLIST@2@VColPartition_C_IT@2@@tesseract@@6B@ (const tesseract::BBGrid<class tesseract::ColPartition,class tesseract::ColPartition_CLIST,class tesseract::ColPartition_C_IT>::`vftable')
        433  1B0 00A3E530 ??_7AlignedBlob@tesseract@@6B@ = ??_7AlignedBlob@tesseract@@6B@ (const tesseract::AlignedBlob::`vftable')
        434  1B1 00A3E510 ??_7BlobGrid@tesseract@@6B@ = ??_7BlobGrid@tesseract@@6B@ (const tesseract::BlobGrid::`vftable')
        435  1B2 00A25D88 ??_7CCStruct@tesseract@@6B@ = ??_7CCStruct@tesseract@@6B@ (const tesseract::CCStruct::`vftable')
        436  1B3 00A25D70 ??_7CCUtil@tesseract@@6B@ = ??_7CCUtil@tesseract@@6B@ (const tesseract::CCUtil::`vftable')
        437  1B4 00A261E8 ??_7Classify@tesseract@@6B@ = ??_7Classify@tesseract@@6B@ (const tesseract::Classify::`vftable')
        438  1B5 00A3E5F8 ??_7ColPartitionGrid@tesseract@@6B@ = ??_7ColPartitionGrid@tesseract@@6B@ (const tesseract::ColPartitionGrid::`vftable')
        439  1B6 00B0DB20 ??_7ColumnFinder@tesseract@@6B@ = ??_7ColumnFinder@tesseract@@6B@ (const tesseract::ColumnFinder::`vftable')
        440  1B7 00A25DA0 ??_7Dawg@tesseract@@6B@ = ??_7Dawg@tesseract@@6B@ (const tesseract::Dawg::`vftable')
        441  1B8 00A3E4C8 ??_7EquationDetect@tesseract@@6B@ = ??_7EquationDetect@tesseract@@6B@ (const tesseract::EquationDetect::`vftable')
        442  1B9 00A3E3D8 ??_7EquationDetectBase@tesseract@@6B@ = ??_7EquationDetectBase@tesseract@@6B@ (const tesseract::EquationDetectBase::`vftable')
        443  1BA 00A25C90 ??_7GridBase@tesseract@@6B@ = ??_7GridBase@tesseract@@6B@ (const tesseract::GridBase::`vftable')
        444  1BB 00A65998 ??_7ImageThresholder@tesseract@@6B@ = ??_7ImageThresholder@tesseract@@6B@ (const tesseract::ImageThresholder::`vftable')
        445  1BC 00A8FBC8 ??_7IndexMap@tesseract@@6B@ = ??_7IndexMap@tesseract@@6B@ (const tesseract::IndexMap::`vftable')
        446  1BD 00A8FBF0 ??_7IndexMapBiDi@tesseract@@6B@ = ??_7IndexMapBiDi@tesseract@@6B@ (const tesseract::IndexMapBiDi::`vftable')
        447  1BE 00A25248 ??_7LTRResultIterator@tesseract@@6B@ = ??_7LTRResultIterator@tesseract@@6B@ (const tesseract::LTRResultIterator::`vftable')
        448  1BF 00A45A10 ??_7MutableIterator@tesseract@@6B@ = ??_7MutableIterator@tesseract@@6B@ (const tesseract::MutableIterator::`vftable')
        449  1C0 00A33D78 ??_7Network@tesseract@@6B@ = ??_7Network@tesseract@@6B@ (const tesseract::Network::`vftable')
        450  1C1 00A49AB8 ??_7PageIterator@tesseract@@6B@ = ??_7PageIterator@tesseract@@6B@ (const tesseract::PageIterator::`vftable')
        451  1C2 00A25298 ??_7ResultIterator@tesseract@@6B@ = ??_7ResultIterator@tesseract@@6B@ (const tesseract::ResultIterator::`vftable')
        452  1C3 00AB1C40 ??_7ShapeClassifier@tesseract@@6B@ = ??_7ShapeClassifier@tesseract@@6B@ (const tesseract::ShapeClassifier::`vftable')
        453  1C4 00A25E00 ??_7SquishedDawg@tesseract@@6B@ = ??_7SquishedDawg@tesseract@@6B@ (const tesseract::SquishedDawg::`vftable')
        454  1C5 00B32DF0 ??_7TabFind@tesseract@@6B@ = ??_7TabFind@tesseract@@6B@ (const tesseract::TabFind::`vftable')
        455  1C6 00B65150 ??_7TessAltoRenderer@tesseract@@6B@ = ??_7TessAltoRenderer@tesseract@@6B@ (const tesseract::TessAltoRenderer::`vftable')
        456  1C7 00B650A0 ??_7TessBaseAPI@tesseract@@6B@ = ??_7TessBaseAPI@tesseract@@6B@ (const tesseract::TessBaseAPI::`vftable')
        457  1C8 00B65240 ??_7TessBoxTextRenderer@tesseract@@6B@ = ??_7TessBoxTextRenderer@tesseract@@6B@ (const tesseract::TessBoxTextRenderer::`vftable')
        458  1C9 00AB1D00 ??_7TessClassifier@tesseract@@6B@ = ??_7TessClassifier@tesseract@@6B@ (const tesseract::TessClassifier::`vftable')
        459  1CA 00B65120 ??_7TessHOcrRenderer@tesseract@@6B@ = ??_7TessHOcrRenderer@tesseract@@6B@ (const tesseract::TessHOcrRenderer::`vftable')
        460  1CB 00B65210 ??_7TessLSTMBoxRenderer@tesseract@@6B@ = ??_7TessLSTMBoxRenderer@tesseract@@6B@ (const tesseract::TessLSTMBoxRenderer::`vftable')
        461  1CC 00B652A0 ??_7TessOsdRenderer@tesseract@@6B@ = ??_7TessOsdRenderer@tesseract@@6B@ (const tesseract::TessOsdRenderer::`vftable')
        462  1CD 00B651B0 ??_7TessPDFRenderer@tesseract@@6B@ = ??_7TessPDFRenderer@tesseract@@6B@ (const tesseract::TessPDFRenderer::`vftable')
        463  1CE 00B650C0 ??_7TessResultRenderer@tesseract@@6B@ = ??_7TessResultRenderer@tesseract@@6B@ (const tesseract::TessResultRenderer::`vftable')
        464  1CF 00B650F0 ??_7TessTextRenderer@tesseract@@6B@ = ??_7TessTextRenderer@tesseract@@6B@ (const tesseract::TessTextRenderer::`vftable')
        465  1D0 00B65180 ??_7TessTsvRenderer@tesseract@@6B@ = ??_7TessTsvRenderer@tesseract@@6B@ (const tesseract::TessTsvRenderer::`vftable')
        466  1D1 00B651E0 ??_7TessUnlvRenderer@tesseract@@6B@ = ??_7TessUnlvRenderer@tesseract@@6B@ (const tesseract::TessUnlvRenderer::`vftable')
        467  1D2 00B65270 ??_7TessWordStrBoxRenderer@tesseract@@6B@ = ??_7TessWordStrBoxRenderer@tesseract@@6B@ (const tesseract::TessWordStrBoxRenderer::`vftable')
        468  1D3 00A63208 ??_7Tesseract@tesseract@@6B@ = ??_7Tesseract@tesseract@@6B@ (const tesseract::Tesseract::`vftable')
        469  1D4 00A26080 ??_7Trie@tesseract@@6B@ = ??_7Trie@tesseract@@6B@ (const tesseract::Trie::`vftable')
        470  1D5 00B61100 ??_7Wordrec@tesseract@@6B@ = ??_7Wordrec@tesseract@@6B@ (const tesseract::Wordrec::`vftable')
        471  1D6 0001B2AC ?Absorb@ColPartition@tesseract@@QEAAXPEAV12@V?$function@$$A6A_NH@Z@std@@@Z = @ILT+107175(?Absorb@ColPartition@tesseract@@QEAAXPEAV12@V?$function@$$A6A_NH@Z@std@@@Z)
        472  1D7 00009B7E ?AbsorbNearbyLines@StructuredTable@tesseract@@IEAAXXZ = @ILT+35705(?AbsorbNearbyLines@StructuredTable@tesseract@@IEAAXXZ)
        473  1D8 00019F51 ?AcceptableChoice@Dict@tesseract@@QEAA_NAEBVWERD_CHOICE@2@W4XHeightConsistencyEnum@2@@Z = @ILT+102220(?AcceptableChoice@Dict@tesseract@@QEAA_NAEBVWERD_CHOICE@2@W4XHeightConsistencyEnum@2@@Z)
        474  1D9 00016A4A ?AcceptableResult@Dict@tesseract@@QEBA_NPEAVWERD_RES@2@@Z = @ILT+88645(?AcceptableResult@Dict@tesseract@@QEBA_NPEAVWERD_RES@2@@Z)
        475  1DA 0000B834 ?AccumulatePartDistances@ColPartitionGrid@tesseract@@AEAAXAEBVColPartition@2@AEBVICOORD@2@AEBVTBOX@2@VImage@2@2AEBVFCOORD@2@_NPEAV?$vector@HV?$allocator@H@std@@@std@@@Z = @ILT+43055(?AccumulatePartDistances@ColPartitionGrid@tesseract@@AEAAXAEBVColPartition@2@AEBVICOORD@2@AEBVTBOX@2@VImage@2@2AEBVFCOORD@2@_NPEAV?$vector@HV?$allocator@H@std@@@std@@@Z)
        476  1DB 0000D6C5 ?AdaptToChar@Classify@tesseract@@QEAAXPEAUTBLOB@2@HHMPEAVADAPT_TEMPLATES_STRUCT@2@@Z = @ILT+50880(?AdaptToChar@Classify@tesseract@@QEAAXPEAUTBLOB@2@HHMPEAVADAPT_TEMPLATES_STRUCT@2@@Z)
        477  1DC 0001267F ?AdaptToWordStr@TessBaseAPI@tesseract@@QEAA_NW4PageSegMode@2@PEBD@Z = @ILT+71290(?AdaptToWordStr@TessBaseAPI@tesseract@@QEAA_NW4PageSegMode@2@PEBD@Z)
        478  1DD 000133E5 ?AdaptableWord@Classify@tesseract@@QEAA_NPEAVWERD_RES@2@@Z = @ILT+74720(?AdaptableWord@Classify@tesseract@@QEAA_NPEAVWERD_RES@2@@Z)
        479  1DE 0001B5A4 ?AdaptiveClassifier@Classify@tesseract@@QEAAXPEAUTBLOB@2@PEAVBLOB_CHOICE_LIST@2@@Z = @ILT+107935(?AdaptiveClassifier@Classify@tesseract@@QEAAXPEAUTBLOB@2@PEAVBLOB_CHOICE_LIST@2@@Z)
        480  1DF 00008E2C ?AdaptiveClassifierIsEmpty@Classify@tesseract@@QEBA_NXZ = @ILT+32295(?AdaptiveClassifierIsEmpty@Classify@tesseract@@QEBA_NXZ)
        481  1E0 00013FCA ?AdaptiveClassifierIsFull@Classify@tesseract@@QEBA_NXZ = @ILT+77765(?AdaptiveClassifierIsFull@Classify@tesseract@@QEBA_NXZ)
        482  1E1 0000A344 ?AddAllToFloat@NetworkIO@tesseract@@QEAAXAEBV12@@Z = @ILT+37695(?AddAllToFloat@NetworkIO@tesseract@@QEAAXAEBV12@@Z)
        483  1E2 00014290 ?AddBox@ColPartition@tesseract@@QEAAXPEAVBLOBNBOX@2@@Z = @ILT+78475(?AddBox@ColPartition@tesseract@@QEAAXPEAVBLOBNBOX@2@@Z)
        484  1E3 00002DC4 ?AddBoxes@ImageData@tesseract@@AEAA_NPEBD@Z = @ILT+7615(?AddBoxes@ImageData@tesseract@@AEAA_NPEBD@Z)
        485  1E4 000056C3 ?AddBoxes@ImageData@tesseract@@QEAAXAEBV?$vector@VTBOX@tesseract@@V?$allocator@VTBOX@tesseract@@@std@@@std@@AEBV?$vector@V?$basic_string@DU?$char_traits@D@std@@V?$allocator@D@2@@std@@V?$allocator@V?$basic_string@DU?$char_traits@D@std@@V?$allocator@D@2@@std@@@2@@4@AEBV?$vector@HV?$allocator@H@std@@@4@@Z = @ILT+18110(?AddBoxes@ImageData@tesseract@@QEAAXAEBV?$vector@VTBOX@tesseract@@V?$allocator@VTBOX@tesseract@@@std@@@std@@AEBV?$vector@V?$basic_string@DU?$char_traits@D@std@@V?$allocator@D@2@@std@@V?$allocator@V?$basic_string@DU?$char_traits@D@std@@V?$allocator@D@2@@std@@@2@@4@AEBV?$vector@HV?$allocator@H@std@@@4@@Z)
        486  1E5 000140BF ?AddConfigToClass@tesseract@@YAHPEAUCLASS_STRUCT@1@@Z = @ILT+78010(?AddConfigToClass@tesseract@@YAHPEAUCLASS_STRUCT@1@@Z)
        487  1E6 0000A8E4 ?AddEscapeChars@ScrollView@tesseract@@AEAAPEADPEBD@Z = @ILT+39135(?AddEscapeChars@ScrollView@tesseract@@AEAAPEADPEBD@Z)
        488  1E7 0000D7F6 ?AddEventHandler@ScrollView@tesseract@@QEAAXPEAVSVEventHandler@2@@Z = @ILT+51185(?AddEventHandler@ScrollView@tesseract@@QEAAXPEAVSVEventHandler@2@@Z)
        489  1E8 000083F5 ?AddImage@TessResultRenderer@tesseract@@QEAA_NPEAVTessBaseAPI@2@@Z = @ILT+29680(?AddImage@TessResultRenderer@tesseract@@QEAA_NPEAVTessBaseAPI@2@@Z)
        490  1E9 0000C2B1 ?AddImageHandler@TessAltoRenderer@tesseract@@MEAA_NPEAVTessBaseAPI@2@@Z = @ILT+45740(?AddImageHandler@TessAltoRenderer@tesseract@@MEAA_NPEAVTessBaseAPI@2@@Z)
        491  1EA 00007B1C ?AddImageHandler@TessBoxTextRenderer@tesseract@@MEAA_NPEAVTessBaseAPI@2@@Z = @ILT+27415(?AddImageHandler@TessBoxTextRenderer@tesseract@@MEAA_NPEAVTessBaseAPI@2@@Z)
        492  1EB 0001A843 ?AddImageHandler@TessHOcrRenderer@tesseract@@MEAA_NPEAVTessBaseAPI@2@@Z = @ILT+104510(?AddImageHandler@TessHOcrRenderer@tesseract@@MEAA_NPEAVTessBaseAPI@2@@Z)
        493  1EC 000076BC ?AddImageHandler@TessLSTMBoxRenderer@tesseract@@MEAA_NPEAVTessBaseAPI@2@@Z = @ILT+26295(?AddImageHandler@TessLSTMBoxRenderer@tesseract@@MEAA_NPEAVTessBaseAPI@2@@Z)
        494  1ED 0000F39E ?AddImageHandler@TessOsdRenderer@tesseract@@MEAA_NPEAVTessBaseAPI@2@@Z = @ILT+58265(?AddImageHandler@TessOsdRenderer@tesseract@@MEAA_NPEAVTessBaseAPI@2@@Z)
        495  1EE 00013FF2 ?AddImageHandler@TessPDFRenderer@tesseract@@MEAA_NPEAVTessBaseAPI@2@@Z = @ILT+77805(?AddImageHandler@TessPDFRenderer@tesseract@@MEAA_NPEAVTessBaseAPI@2@@Z)
        496  1EF 0000E719 ?AddImageHandler@TessTextRenderer@tesseract@@MEAA_NPEAVTessBaseAPI@2@@Z = @ILT+55060(?AddImageHandler@TessTextRenderer@tesseract@@MEAA_NPEAVTessBaseAPI@2@@Z)
        497  1F0 00019966 ?AddImageHandler@TessTsvRenderer@tesseract@@MEAA_NPEAVTessBaseAPI@2@@Z = @ILT+100705(?AddImageHandler@TessTsvRenderer@tesseract@@MEAA_NPEAVTessBaseAPI@2@@Z)
        498  1F1 000087C4 ?AddImageHandler@TessUnlvRenderer@tesseract@@MEAA_NPEAVTessBaseAPI@2@@Z = @ILT+30655(?AddImageHandler@TessUnlvRenderer@tesseract@@MEAA_NPEAVTessBaseAPI@2@@Z)
        499  1F2 0000A803 ?AddImageHandler@TessWordStrBoxRenderer@tesseract@@MEAA_NPEAVTessBaseAPI@2@@Z = @ILT+38910(?AddImageHandler@TessWordStrBoxRenderer@tesseract@@MEAA_NPEAVTessBaseAPI@2@@Z)
        500  1F3 00014E57 ?AddLargeSpeckleTo@Classify@tesseract@@QEAAXHPEAVBLOB_CHOICE_LIST@2@@Z = @ILT+81490(?AddLargeSpeckleTo@Classify@tesseract@@QEAAXHPEAVBLOB_CHOICE_LIST@2@@Z)
        501  1F4 00006B9A ?AddMessage@ScrollView@tesseract@@QEAAXPEBDZZ = @ILT+23445(?AddMessage@ScrollView@tesseract@@QEAAXPEBDZZ)
        502  1F5 0000D139 ?AddMessageBox@ScrollView@tesseract@@QEAAXXZ = @ILT+49460(?AddMessageBox@ScrollView@tesseract@@QEAAXXZ)
        503  1F6 00015668 ?AddNewResult@Classify@tesseract@@QEAAXAEBUUnicharRating@2@PEAUADAPT_RESULTS@2@@Z = @ILT+83555(?AddNewResult@Classify@tesseract@@QEAAXAEBUUnicharRating@2@PEAUADAPT_RESULTS@2@@Z)
        504  1F7 0001AB1D ?AddPageToDocument@DocumentData@tesseract@@QEAAXPEAVImageData@2@@Z = @ILT+105240(?AddPageToDocument@DocumentData@tesseract@@QEAAXPEAVImageData@2@@Z)
        505  1F8 0000866B ?AddPartner@ColPartition@tesseract@@QEAAX_NPEAV12@@Z = @ILT+30310(?AddPartner@ColPartition@tesseract@@QEAAX_NPEAV12@@Z)
        506  1F9 00018796 ?AddPartnerVector@TabFind@tesseract@@AEAAXPEAVBLOBNBOX@2@0PEAVTabVector@2@1@Z = @ILT+96145(?AddPartnerVector@TabFind@tesseract@@AEAAXPEAVBLOBNBOX@2@0PEAVTabVector@2@1@Z)
        507  1FA 000072C5 ?AddProtoToClass@tesseract@@YAHPEAUCLASS_STRUCT@1@@Z = @ILT+25280(?AddProtoToClass@tesseract@@YAHPEAUCLASS_STRUCT@1@@Z)
        508  1FB 0000EEAD ?AddSelectedOutlines@WERD@tesseract@@QEAA_NAEBV?$vector@_NV?$allocator@_N@std@@@std@@AEBV?$vector@PEAVC_BLOB@tesseract@@V?$allocator@PEAVC_BLOB@tesseract@@@std@@@4@AEBV?$vector@PEAVC_OUTLINE@tesseract@@V?$allocator@PEAVC_OUTLINE@tesseract@@@std@@@4@PEA_N@Z = @ILT+57000(?AddSelectedOutlines@WERD@tesseract@@QEAA_NAEBV?$vector@_NV?$allocator@_N@std@@@std@@AEBV?$vector@PEAVC_BLOB@tesseract@@V?$allocator@PEAVC_BLOB@tesseract@@@std@@@4@AEBV?$vector@PEAVC_OUTLINE@tesseract@@V?$allocator@PEAVC_OUTLINE@tesseract@@@std@@@4@PEA_N@Z)
        509  1FC 0001884F ?AddShape@Shape@tesseract@@QEAAXAEBV12@@Z = @ILT+96330(?AddShape@Shape@tesseract@@QEAAXAEBV12@@Z)
        510  1FD 00018B01 ?AddShape@ShapeTable@tesseract@@QEAAHAEBVShape@2@@Z = @ILT+97020(?AddShape@ShapeTable@tesseract@@QEAAHAEBVShape@2@@Z)
        511  1FE 00001FC8 ?AddShape@ShapeTable@tesseract@@QEAAHHH@Z = @ILT+4035(?AddShape@ShapeTable@tesseract@@QEAAHHH@Z)
        512  1FF 0000A790 ?AddShapeToResults@ShapeTable@tesseract@@QEBAXAEBUShapeRating@2@PEAV?$vector@HV?$allocator@H@std@@@std@@PEAV?$vector@UUnicharRating@tesseract@@V?$allocator@UUnicharRating@tesseract@@@std@@@5@@Z = @ILT+38795(?AddShapeToResults@ShapeTable@tesseract@@QEBAXAEBUShapeRating@2@PEAV?$vector@HV?$allocator@H@std@@@std@@PEAV?$vector@UUnicharRating@tesseract@@V?$allocator@UUnicharRating@tesseract@@@std@@@5@@Z)
        513  200 000018B6 ?AddShapeToShape@ShapeTable@tesseract@@QEAAXHAEBVShape@2@@Z = @ILT+2225(?AddShapeToShape@ShapeTable@tesseract@@QEAAXHAEBVShape@2@@Z)
        514  201 00010884 ?AddTimeStep@NetworkIO@tesseract@@QEBAXHPEAN@Z = @ILT+63615(?AddTimeStep@NetworkIO@tesseract@@QEBAXHPEAN@Z)
        515  202 0000B235 ?AddTimeStepPart@NetworkIO@tesseract@@QEBAXHHHPEAM@Z = @ILT+41520(?AddTimeStepPart@NetworkIO@tesseract@@QEBAXHHHPEAM@Z)
        516  203 0000C36A ?AddToShape@Shape@tesseract@@QEAAXHH@Z = @ILT+45925(?AddToShape@Shape@tesseract@@QEAAXHH@Z)
        517  204 00013B51 ?AddToShape@ShapeTable@tesseract@@QEAAXHHH@Z = @ILT+76620(?AddToShape@ShapeTable@tesseract@@QEAAXHHH@Z)
        518  205 0001C1DE ?AddToTempPartList@ColumnFinder@tesseract@@AEAAXPEAVColPartition@2@PEAVColPartition_CLIST@2@@Z = @ILT+111065(?AddToTempPartList@ColumnFinder@tesseract@@AEAAXPEAVColPartition@2@PEAVColPartition_CLIST@2@@Z)
        519  206 0001C251 ?AddToWorkingSet@ColPartition@tesseract@@QEAAXAEBVICOORD@2@0HPEAVColPartition_LIST@2@PEAVWorkingPartSet_LIST@2@@Z = @ILT+111180(?AddToWorkingSet@ColPartition@tesseract@@QEAAXAEBVICOORD@2@0HPEAVColPartition_LIST@2@PEAVWorkingPartSet_LIST@2@@Z)
        520  207 0000F632 ?AddUnicharToResults@ShapeTable@tesseract@@AEBAHHMPEAV?$vector@HV?$allocator@H@std@@@std@@PEAV?$vector@UUnicharRating@tesseract@@V?$allocator@UUnicharRating@tesseract@@@std@@@4@@Z = @ILT+58925(?AddUnicharToResults@ShapeTable@tesseract@@AEBAHHMPEAV?$vector@HV?$allocator@H@std@@@std@@PEAV?$vector@UUnicharRating@tesseract@@V?$allocator@UUnicharRating@tesseract@@@std@@@4@@Z)
        521  208 0001CAE9 ?AdjacentBlob@TabFind@tesseract@@AEAAPEAVBLOBNBOX@2@PEBV32@_N1NHHH@Z = @ILT+113380(?AdjacentBlob@TabFind@tesseract@@AEAAPEAVBLOBNBOX@2@PEBV32@_N1NHHH@Z)
        522  209 0001B32E ?AdjustTableBoundaries@TableFinder@tesseract@@IEAAXXZ = @ILT+107305(?AdjustTableBoundaries@TableFinder@tesseract@@IEAAXXZ)
        523  20A 0000689D ?AlignTabs@AlignedBlob@tesseract@@AEAAHAEBUAlignedBlobParams@2@_NPEAVBLOBNBOX@2@PEAVBLOBNBOX_CLIST@2@PEAH@Z = @ILT+22680(?AlignTabs@AlignedBlob@tesseract@@AEAAHAEBUAlignedBlobParams@2@_NPEAVBLOBNBOX@2@PEAVBLOBNBOX_CLIST@2@PEAH@Z)
        524  20B 00011AA9 ?AllWordConfidences@TessBaseAPI@tesseract@@QEAAPEAHXZ = @ILT+68260(?AllWordConfidences@TessBaseAPI@tesseract@@QEAAPEAHXZ)
        525  20C 00013BBF ?Alloc@BitVector@tesseract@@AEAAXH@Z = @ILT+76730(?Alloc@BitVector@tesseract@@AEAAXH@Z)
        526  20D 0000ECA5 ?AllowBlob@TableFinder@tesseract@@IEBA_NAEBVBLOBNBOX@2@@Z = @ILT+56480(?AllowBlob@TableFinder@tesseract@@IEBA_NAEBVBLOBNBOX@2@@Z)
        527  20E 00014FD3 ?AllowTextPartition@TableFinder@tesseract@@IEBA_NAEBVColPartition@2@@Z = @ILT+81870(?AllowTextPartition@TableFinder@tesseract@@IEBA_NAEBVColPartition@2@@Z)
        528  20F 00014079 ?AlreadyMerged@ShapeTable@tesseract@@QEBA_NHH@Z = @ILT+77940(?AlreadyMerged@ShapeTable@tesseract@@QEBA_NHH@Z)
        529  210 00014B82 ?AlternativeChoiceAdjustmentsWorseThan@WERD_RES@tesseract@@QEBA_NM@Z = @ILT+80765(?AlternativeChoiceAdjustmentsWorseThan@WERD_RES@tesseract@@QEBA_NM@Z)
        530  211 0001262F ?AlwaysOnTop@ScrollView@tesseract@@QEAAX_N@Z = @ILT+71210(?AlwaysOnTop@ScrollView@tesseract@@QEAAX_N@Z)
        531  212 0000A367 ?AmbigClassifier@Classify@tesseract@@QEAAXAEBV?$vector@UINT_FEATURE_STRUCT@tesseract@@V?$allocator@UINT_FEATURE_STRUCT@tesseract@@@std@@@std@@AEBUINT_FX_RESULT_STRUCT@2@PEBUTBLOB@2@PEAUINT_TEMPLATES_STRUCT@2@PEAPEAUADAPT_CLASS_STRUCT@2@PEAHPEAUADAPT_RESULTS@2@@Z = @ILT+37730(?AmbigClassifier@Classify@tesseract@@QEAAXAEBV?$vector@UINT_FEATURE_STRUCT@tesseract@@V?$allocator@UINT_FEATURE_STRUCT@tesseract@@@std@@@std@@AEBUINT_FX_RESULT_STRUCT@2@PEBUTBLOB@2@PEAUINT_TEMPLATES_STRUCT@2@PEAPEAUADAPT_CLASS_STRUCT@2@PEAHPEAUADAPT_RESULTS@2@@Z)
        532  213 00004F93 ?AnalyseLayout@TessBaseAPI@tesseract@@QEAAPEAVPageIterator@2@XZ = @ILT+16270(?AnalyseLayout@TessBaseAPI@tesseract@@QEAAPEAVPageIterator@2@XZ)
        533  214 00007A27 ?AnalyseLayout@TessBaseAPI@tesseract@@QEAAPEAVPageIterator@2@_N@Z = @ILT+27170(?AnalyseLayout@TessBaseAPI@tesseract@@QEAAPEAVPageIterator@2@_N@Z)
        534  215 00015861 ?AnyLSTMLang@Tesseract@tesseract@@QEBA_NXZ = @ILT+84060(?AnyLSTMLang@Tesseract@tesseract@@QEBA_NXZ)
        535  216 00004F7F ?AnyLtrCharsInWord@WERD_RES@tesseract@@QEBA_NXZ = @ILT+16250(?AnyLtrCharsInWord@WERD_RES@tesseract@@QEBA_NXZ)
        536  217 00007C20 ?AnyMultipleUnichars@ShapeTable@tesseract@@QEBA_NXZ = @ILT+27675(?AnyMultipleUnichars@ShapeTable@tesseract@@QEBA_NXZ)
        537  218 00015C3F ?AnyRangeEmpty@UNICHAR_PROPERTIES@UNICHARSET@tesseract@@QEBA_NXZ = @ILT+85050(?AnyRangeEmpty@UNICHAR_PROPERTIES@UNICHARSET@tesseract@@QEBA_NXZ)
        538  219 00017814 ?AnyRepeatedUnicodes@UNICHARSET@tesseract@@QEBA_NXZ = @ILT+92175(?AnyRepeatedUnicodes@UNICHARSET@tesseract@@QEBA_NXZ)
        539  21A 00001983 ?AnyRtlCharsInWord@WERD_RES@tesseract@@QEBA_NXZ = @ILT+2430(?AnyRtlCharsInWord@WERD_RES@tesseract@@QEBA_NXZ)
        540  21B 0000A08D ?AnySuspiciousTruth@NetworkIO@tesseract@@QEBA_NM@Z = @ILT+37000(?AnySuspiciousTruth@NetworkIO@tesseract@@QEBA_NM@Z)
        541  21C 00015F8C ?AnyTessLang@Tesseract@tesseract@@QEBA_NXZ = @ILT+85895(?AnyTessLang@Tesseract@tesseract@@QEBA_NXZ)
        542  21D 0000BA9B ?AppendData@TessResultRenderer@tesseract@@IEAAXPEBDH@Z = @ILT+43670(?AppendData@TessResultRenderer@tesseract@@IEAAXPEBDH@Z)
        543  21E 00013052 ?AppendMasterShapes@ShapeTable@tesseract@@QEAAXAEBV12@PEAV?$vector@HV?$allocator@H@std@@@std@@@Z = @ILT+73805(?AppendMasterShapes@ShapeTable@tesseract@@QEAAXAEBV12@PEAV?$vector@HV?$allocator@H@std@@@std@@@Z)
        544  21F 00014D94 ?AppendOtherUnicharset@UNICHARSET@tesseract@@QEAAXAEBV12@@Z = @ILT+81295(?AppendOtherUnicharset@UNICHARSET@tesseract@@QEAAXAEBV12@@Z)
        545  220 0000D387 ?AppendPDFObject@TessPDFRenderer@tesseract@@AEAAXPEBD@Z = @ILT+50050(?AppendPDFObject@TessPDFRenderer@tesseract@@AEAAXPEBD@Z)
        546  221 000060F5 ?AppendPDFObjectDIY@TessPDFRenderer@tesseract@@AEAAX_K@Z = @ILT+20720(?AppendPDFObjectDIY@TessPDFRenderer@tesseract@@AEAAX_K@Z)
        547  222 0000AFE7 ?AppendSeries@Series@tesseract@@QEAAXPEAVNetwork@2@@Z = @ILT+40930(?AppendSeries@Series@tesseract@@QEAAXPEAVNetwork@2@@Z)
        548  223 000067A8 ?AppendString@TessResultRenderer@tesseract@@IEAAXPEBD@Z = @ILT+22435(?AppendString@TessResultRenderer@tesseract@@IEAAXPEBD@Z)
        549  224 0000B848 ?AppendSuffixMarks@ResultIterator@tesseract@@AEBAXPEAV?$basic_string@DU?$char_traits@D@std@@V?$allocator@D@2@@std@@@Z = @ILT+43075(?AppendSuffixMarks@ResultIterator@tesseract@@AEBAXPEAV?$basic_string@DU?$char_traits@D@std@@V?$allocator@D@2@@std@@@Z)
        550  225 000154A6 ?AppendUTF8ParagraphText@ResultIterator@tesseract@@AEBAXPEAV?$basic_string@DU?$char_traits@D@std@@V?$allocator@D@2@@std@@@Z = @ILT+83105(?AppendUTF8ParagraphText@ResultIterator@tesseract@@AEBAXPEAV?$basic_string@DU?$char_traits@D@std@@V?$allocator@D@2@@std@@@Z)
        551  226 00014376 ?AppendUTF8WordText@ResultIterator@tesseract@@AEBAXPEAV?$basic_string@DU?$char_traits@D@std@@V?$allocator@D@2@@std@@@Z = @ILT+78705(?AppendUTF8WordText@ResultIterator@tesseract@@AEBAXPEAV?$basic_string@DU?$char_traits@D@std@@V?$allocator@D@2@@std@@@Z)
        552  227 0001CAAD ?ApplyBoxTraining@Tesseract@tesseract@@QEAAXAEBV?$basic_string@DU?$char_traits@D@std@@V?$allocator@D@2@@std@@PEAVPAGE_RES@2@@Z = @ILT+113320(?ApplyBoxTraining@Tesseract@tesseract@@QEAAXAEBV?$basic_string@DU?$char_traits@D@std@@V?$allocator@D@2@@std@@PEAVPAGE_RES@2@@Z)
        553  228 0000BD2F ?ApplyBoxes@Tesseract@tesseract@@QEAAPEAVPAGE_RES@2@PEBD_NPEAVBLOCK_LIST@2@@Z = @ILT+44330(?ApplyBoxes@Tesseract@tesseract@@QEAAPEAVPAGE_RES@2@PEBD_NPEAVBLOCK_LIST@2@@Z)
        554  229 00012616 ?ApplyPartitionsToColumnWidths@TabFind@tesseract@@AEAAXPEAVColPartitionGrid@2@PEAVSTATS@2@@Z = @ILT+71185(?ApplyPartitionsToColumnWidths@TabFind@tesseract@@AEAAXPEAVColPartitionGrid@2@PEAVSTATS@2@@Z)
        555  22A 0000A4E8 ?ApplyTabConstraints@TabFind@tesseract@@AEAAXXZ = @ILT+38115(?ApplyTabConstraints@TabFind@tesseract@@AEAAXXZ)
        556  22B 0000AF10 ?AsciiLikelyListItem@tesseract@@YA_NAEBV?$basic_string@DU?$char_traits@D@std@@V?$allocator@D@2@@std@@@Z = @ILT+40715(?AsciiLikelyListItem@tesseract@@YA_NAEBV?$basic_string@DU?$char_traits@D@std@@V?$allocator@D@2@@std@@@Z)
        557  22C 00012355 ?AssertNoDuplicates@?$BBGrid@VBLOBNBOX@tesseract@@VBLOBNBOX_CLIST@2@VBLOBNBOX_C_IT@2@@tesseract@@QEAAXXZ = @ILT+70480(?AssertNoDuplicates@?$BBGrid@VBLOBNBOX@tesseract@@VBLOBNBOX_CLIST@2@VBLOBNBOX_C_IT@2@@tesseract@@QEAAXXZ)
        558  22D 0000CAE5 ?AssertNoDuplicates@?$BBGrid@VColPartition@tesseract@@VColPartition_CLIST@2@VColPartition_C_IT@2@@tesseract@@QEAAXXZ = @ILT+47840(?AssertNoDuplicates@?$BBGrid@VColPartition@tesseract@@VColPartition_CLIST@2@VColPartition_C_IT@2@@tesseract@@QEAAXXZ)
        559  22E 00019AE2 ?AssignColumnToRange@ColumnFinder@tesseract@@AEAAXHHHPEAPEAHPEAH@Z = @ILT+101085(?AssignColumnToRange@ColumnFinder@tesseract@@AEAAXHHHPEAPEAHPEAH@Z)
        560  22F 0001514A ?AssignColumns@ColumnFinder@tesseract@@AEAA_NAEBV?$vector@PEAVColPartitionSet@tesseract@@V?$allocator@PEAVColPartitionSet@tesseract@@@std@@@std@@@Z = @ILT+82245(?AssignColumns@ColumnFinder@tesseract@@AEAA_NAEBV?$vector@PEAVColPartitionSet@tesseract@@V?$allocator@PEAVColPartitionSet@tesseract@@@std@@@std@@@Z)
        561  230 0001692D ?AssignDiacriticsToNewBlobs@Tesseract@tesseract@@QEAAXAEBV?$vector@PEAVC_OUTLINE@tesseract@@V?$allocator@PEAVC_OUTLINE@tesseract@@@std@@@std@@HPEAVWERD@2@PEAVPAGE_RES_IT@2@PEAV?$vector@_NV?$allocator@_N@std@@@4@PEAV?$vector@PEAVC_BLOB@tesseract@@V?$allocator@PEAVC_BLOB@tesseract@@@std@@@4@@Z = @ILT+88360(?AssignDiacriticsToNewBlobs@Tesseract@tesseract@@QEAAXAEBV?$vector@PEAVC_OUTLINE@tesseract@@V?$allocator@PEAVC_OUTLINE@tesseract@@@std@@@std@@HPEAVWERD@2@PEAVPAGE_RES_IT@2@PEAV?$vector@_NV?$allocator@_N@std@@@4@PEAV?$vector@PEAVC_BLOB@tesseract@@V?$allocator@PEAVC_BLOB@tesseract@@@std@@@4@@Z)
        562  231 00009C2D ?AssignDiacriticsToOverlappingBlobs@Tesseract@tesseract@@QEAAXAEBV?$vector@PEAVC_OUTLINE@tesseract@@V?$allocator@PEAVC_OUTLINE@tesseract@@@std@@@std@@HPEAVWERD@2@PEAVPAGE_RES_IT@2@PEAV?$vector@_NV?$allocator@_N@std@@@4@3PEAV?$vector@PEAVC_BLOB@tesseract@@V?$allocator@PEAVC_BLOB@tesseract@@@std@@@4@@Z = @ILT+35880(?AssignDiacriticsToOverlappingBlobs@Tesseract@tesseract@@QEAAXAEBV?$vector@PEAVC_OUTLINE@tesseract@@V?$allocator@PEAVC_OUTLINE@tesseract@@@std@@@std@@HPEAVWERD@2@PEAVPAGE_RES_IT@2@PEAV?$vector@_NV?$allocator@_N@std@@@4@3PEAV?$vector@PEAVC_BLOB@tesseract@@V?$allocator@PEAVC_BLOB@tesseract@@@std@@@4@@Z)
        563  232 0001BFF4 ?At@BitVector@tesseract@@QEBA_NH@Z = @ILT+110575(?At@BitVector@tesseract@@QEBA_NH@Z)
        564  233 00017170 ?AutoPageSeg@Tesseract@tesseract@@QEAAHW4PageSegMode@2@PEAVBLOCK_LIST@2@PEAVTO_BLOCK_LIST@2@PEAVBLOBNBOX_LIST@2@PEAV12@PEAUOSResults@2@@Z = @ILT+90475(?AutoPageSeg@Tesseract@tesseract@@QEAAHW4PageSegMode@2@PEAVBLOCK_LIST@2@PEAVTO_BLOCK_LIST@2@PEAVBLOBNBOX_LIST@2@PEAV12@PEAUOSResults@2@@Z)
        565  234 00010258 ?AwaitEvent@ScrollView@tesseract@@QEAAPEAUSVEvent@2@W4SVEventType@2@@Z = @ILT+62035(?AwaitEvent@ScrollView@tesseract@@QEAAPEAUSVEvent@2@W4SVEventType@2@@Z)
        566  235 0000B393 ?AwaitEventAnyWindow@ScrollView@tesseract@@QEAAPEAUSVEvent@2@XZ = @ILT+41870(?AwaitEventAnyWindow@ScrollView@tesseract@@QEAAPEAUSVEvent@2@XZ)
        567  236 00016C2A ?Baseline@PageIterator@tesseract@@QEBA_NW4PageIteratorLevel@2@PEAH111@Z = @ILT+89125(?Baseline@PageIterator@tesseract@@QEBA_NW4PageIteratorLevel@2@PEAH111@Z)
        568  237 0001ABDB ?BaselineClassifier@Classify@tesseract@@QEAAPEAHPEAUTBLOB@2@AEBV?$vector@UINT_FEATURE_STRUCT@tesseract@@V?$allocator@UINT_FEATURE_STRUCT@tesseract@@@std@@@std@@AEBUINT_FX_RESULT_STRUCT@2@PEAVADAPT_TEMPLATES_STRUCT@2@PEAUADAPT_RESULTS@2@@Z = @ILT+105430(?BaselineClassifier@Classify@tesseract@@QEAAPEAHPEAUTBLOB@2@AEBV?$vector@UINT_FEATURE_STRUCT@tesseract@@V?$allocator@UINT_FEATURE_STRUCT@tesseract@@@std@@@std@@AEBUINT_FX_RESULT_STRUCT@2@PEAVADAPT_TEMPLATES_STRUCT@2@PEAUADAPT_RESULTS@2@@Z)
        569  238 00010014 ?BeamIndex@RecodeBeamSearch@tesseract@@SAH_NW4NodeContinuation@2@H@Z = @ILT+61455(?BeamIndex@RecodeBeamSearch@tesseract@@SAH_NW4NodeContinuation@2@H@Z)
        570  239 00019DF8 ?Begin@PageIterator@tesseract@@UEAAXXZ = @ILT+101875(?Begin@PageIterator@tesseract@@UEAAXXZ)
        571  23A 0000C8EC ?Begin@ResultIterator@tesseract@@UEAAXXZ = @ILT+47335(?Begin@ResultIterator@tesseract@@UEAAXXZ)
        572  23B 0000746E ?BeginDocument@TessResultRenderer@tesseract@@QEAA_NPEBD@Z = @ILT+25705(?BeginDocument@TessResultRenderer@tesseract@@QEAA_NPEBD@Z)
        573  23C 000094AD ?BeginDocumentHandler@TessAltoRenderer@tesseract@@MEAA_NXZ = @ILT+33960(?BeginDocumentHandler@TessAltoRenderer@tesseract@@MEAA_NXZ)
        574  23D 00004AAC ?BeginDocumentHandler@TessHOcrRenderer@tesseract@@MEAA_NXZ = @ILT+15015(?BeginDocumentHandler@TessHOcrRenderer@tesseract@@MEAA_NXZ)
        575  23E 00014745 ?BeginDocumentHandler@TessPDFRenderer@tesseract@@MEAA_NXZ = @ILT+79680(?BeginDocumentHandler@TessPDFRenderer@tesseract@@MEAA_NXZ)
        576  23F 000108D9 ?BeginDocumentHandler@TessResultRenderer@tesseract@@MEAA_NXZ = @ILT+63700(?BeginDocumentHandler@TessResultRenderer@tesseract@@MEAA_NXZ)
        577  240 0000317F ?BeginDocumentHandler@TessTsvRenderer@tesseract@@MEAA_NXZ = @ILT+8570(?BeginDocumentHandler@TessTsvRenderer@tesseract@@MEAA_NXZ)
        578  241 000169C3 ?BeginWord@PageIterator@tesseract@@IEAAXH@Z = @ILT+88510(?BeginWord@PageIterator@tesseract@@IEAAXH@Z)
        579  242 0001358E ?BelievableSuperscript@Tesseract@tesseract@@QEBA_N_NAEBVWERD_RES@2@MPEAH2@Z = @ILT+75145(?BelievableSuperscript@Tesseract@tesseract@@QEBA_N_NAEBVWERD_RES@2@MPEAH2@Z)
        580  243 0000AB32 ?BelongToOneTable@TableFinder@tesseract@@IEAA_NAEBVTBOX@2@0@Z = @ILT+39725(?BelongToOneTable@TableFinder@tesseract@@IEAA_NAEBVTBOX@2@0@Z)
        581  244 0000D5AD ?BestChoiceOverRange@NetworkIO@tesseract@@QEBAHHHHHPEAM0@Z = @ILT+50600(?BestChoiceOverRange@NetworkIO@tesseract@@QEBAHHHHHPEAM0@Z)
        582  245 00016A9A ?BestChoiceToCorrectText@WERD_RES@tesseract@@QEAAXXZ = @ILT+88725(?BestChoiceToCorrectText@WERD_RES@tesseract@@QEAAXXZ)
        583  246 00016DCE ?BestLabel@NetworkIO@tesseract@@QEBAHHHHPEAM@Z = @ILT+89545(?BestLabel@NetworkIO@tesseract@@QEBAHHHHPEAM@Z)
        584  247 00007E7D ?BestLabel@NetworkIO@tesseract@@QEBAHHPEAM@Z = @ILT+28280(?BestLabel@NetworkIO@tesseract@@QEBAHHPEAM@Z)
        585  248 0001BD8D ?BestMeanGradientInColumn@TextlineProjection@tesseract@@AEBAHPEBVDENORM@2@FFF_N@Z = @ILT+109960(?BestMeanGradientInColumn@TextlineProjection@tesseract@@AEBAHPEBVDENORM@2@FFF_N@Z)
        586  249 000167F2 ?BestMeanGradientInRow@TextlineProjection@tesseract@@AEBAHPEBVDENORM@2@FFF_N@Z = @ILT+88045(?BestMeanGradientInRow@TextlineProjection@tesseract@@AEBAHPEBVDENORM@2@FFF_N@Z)
        587  24A 00017373 ?BestMergeCandidate@ColPartitionGrid@tesseract@@QEAAPEAVColPartition@2@PEBV32@PEAVColPartition_CLIST@2@_NV?$function@$$A6A_NPEBVColPartition@tesseract@@0@Z@std@@PEAH@Z = @ILT+90990(?BestMergeCandidate@ColPartitionGrid@tesseract@@QEAAPEAVColPartition@2@PEBV32@PEAVColPartition_CLIST@2@_NV?$function@$$A6A_NPEBVColPartition@tesseract@@0@Z@std@@PEAH@Z)
        588  24B 0001357F ?BestPix@Tesseract@tesseract@@QEBA?AVImage@2@XZ = @ILT+75130(?BestPix@Tesseract@tesseract@@QEBA?AVImage@2@XZ)
        589  24C 00006EAB ?BestShapeForUnichar@ShapeClassifier@tesseract@@UEAAHAEBVTrainingSample@2@VImage@2@HPEAUShapeRating@2@@Z = @ILT+24230(?BestShapeForUnichar@ShapeClassifier@tesseract@@UEAAHAEBVTrainingSample@2@VImage@2@HPEAUShapeRating@2@@Z)
        590  24D 000150D7 ?BestUTF8@WERD_RES@tesseract@@QEBAPEBDH_N@Z = @ILT+82130(?BestUTF8@WERD_RES@tesseract@@QEBAPEBDH_N@Z)
        591  24E 0001AAE1 ?BidiDebug@ResultIterator@tesseract@@AEBA_NH@Z = @ILT+105180(?BidiDebug@ResultIterator@tesseract@@AEBA_NH@Z)
        592  24F 00009BFB ?BiggestBox@ColPartition@tesseract@@QEAAPEAVBLOBNBOX@2@XZ = @ILT+35830(?BiggestBox@ColPartition@tesseract@@QEAAPEAVBLOBNBOX@2@XZ)
        593  250 00011432 ?BiggestUnassignedRange@ColumnFinder@tesseract@@AEAA_NHPEB_NPEAH1@Z = @ILT+66605(?BiggestUnassignedRange@ColumnFinder@tesseract@@AEAA_NHPEB_NPEAH1@Z)
        594  251 00003242 ?BitMask@BitVector@tesseract@@AEBAIH@Z = @ILT+8765(?BitMask@BitVector@tesseract@@AEBAIH@Z)
        595  252 0000253B ?BlanksBeforeWord@LTRResultIterator@tesseract@@QEBAHXZ = @ILT+5430(?BlanksBeforeWord@LTRResultIterator@tesseract@@QEBAHXZ)
        596  253 00011B0D ?BlanksBeforeWord@ResultIterator@tesseract@@QEBAHXZ = @ILT+68360(?BlanksBeforeWord@ResultIterator@tesseract@@QEBAHXZ)
        597  254 00014C77 ?BlobPosition@WERD_CHOICE@tesseract@@QEBA?AW4ScriptPos@2@H@Z = @ILT+81010(?BlobPosition@WERD_CHOICE@tesseract@@QEBA?AW4ScriptPos@2@H@Z)
        598  255 00015172 ?BlockPolygon@PageIterator@tesseract@@QEBAPEAUPta@@XZ = @ILT+82285(?BlockPolygon@PageIterator@tesseract@@QEBAPEAUPta@@XZ)
        599  256 00013813 ?BlockType@PageIterator@tesseract@@QEBA?AW4PolyBlockType@2@XZ = @ILT+75790(?BlockType@PageIterator@tesseract@@QEBA?AW4PolyBlockType@2@XZ)
        600  257 00008AA3 ?BothHyphens@WERD_RES@tesseract@@QEAAHHH@Z = @ILT+31390(?BothHyphens@WERD_RES@tesseract@@QEAAHHH@Z)
        601  258 0000F4D4 ?BothQuotes@WERD_RES@tesseract@@QEAAHHH@Z = @ILT+58575(?BothQuotes@WERD_RES@tesseract@@QEAAHHH@Z)
        602  259 00001488 ?BothSpaces@WERD_RES@tesseract@@QEAAHHH@Z = @ILT+1155(?BothSpaces@WERD_RES@tesseract@@QEAAHHH@Z)
        603  25A 00008963 ?BottomSpacingMargin@ColPartition@tesseract@@AEBAHH@Z = @ILT+31070(?BottomSpacingMargin@ColPartition@tesseract@@AEBAHH@Z)
        604  25B 0000A565 ?BoundingBox@PageIterator@tesseract@@QEBA_NW4PageIteratorLevel@2@HPEAH111@Z = @ILT+38240(?BoundingBox@PageIterator@tesseract@@QEBA_NW4PageIteratorLevel@2@HPEAH111@Z)
        605  25C 0000BFDC ?BoundingBox@PageIterator@tesseract@@QEBA_NW4PageIteratorLevel@2@PEAH111@Z = @ILT+45015(?BoundingBox@PageIterator@tesseract@@QEBA_NW4PageIteratorLevel@2@PEAH111@Z)
        606  25D 00010B72 ?BoundingBoxInternal@PageIterator@tesseract@@QEBA_NW4PageIteratorLevel@2@PEAH111@Z = @ILT+64365(?BoundingBoxInternal@PageIterator@tesseract@@QEBA_NW4PageIteratorLevel@2@PEAH111@Z)
        607  25E 00008747 ?BoundsWithoutBox@ColPartition@tesseract@@QEAA?AVTBOX@2@PEAVBLOBNBOX@2@@Z = @ILT+30530(?BoundsWithoutBox@ColPartition@tesseract@@QEAA?AVTBOX@2@PEAVBLOBNBOX@2@@Z)
        608  25F 00007275 ?BoxColor@ColPartition@tesseract@@QEBA?AW4Color@ScrollView@2@XZ = @ILT+25200(?BoxColor@ColPartition@tesseract@@QEBA?AW4Color@ScrollView@2@XZ)
        609  260 000066D1 ?BoxLeftKey@ColPartition@tesseract@@QEBAHXZ = @ILT+22220(?BoxLeftKey@ColPartition@tesseract@@QEBAHXZ)
        610  261 00019BF5 ?BoxOutOfHTextline@TextlineProjection@tesseract@@QEBA_NAEBVTBOX@2@PEBVDENORM@2@_N@Z = @ILT+101360(?BoxOutOfHTextline@TextlineProjection@tesseract@@QEBA_NAEBVTBOX@2@PEBVDENORM@2@_N@Z)
        611  262 0000D620 ?BoxRightKey@ColPartition@tesseract@@QEBAHXZ = @ILT+50715(?BoxRightKey@ColPartition@tesseract@@QEBAHXZ)
        612  263 0000D274 ?Brush@ScrollView@tesseract@@QEAAXHHH@Z = @ILT+49775(?Brush@ScrollView@tesseract@@QEAAXHHH@Z)
        613  264 0000BF55 ?Brush@ScrollView@tesseract@@QEAAXHHHH@Z = @ILT+44880(?Brush@ScrollView@tesseract@@QEAAXHHHH@Z)
        614  265 0001C2BF ?Brush@ScrollView@tesseract@@QEAAXW4Color@12@@Z = @ILT+111290(?Brush@ScrollView@tesseract@@QEAAXW4Color@12@@Z)
        615  266 0000E507 ?Build@ImageData@tesseract@@SAPEAV12@PEBDH00H00@Z = @ILT+54530(?Build@ImageData@tesseract@@SAPEAV12@PEBDH00H00@Z)
        616  267 00018D86 ?BuildFromShape@ShapeTable@tesseract@@QEAAHAEBVShape@2@AEBV12@@Z = @ILT+97665(?BuildFromShape@ShapeTable@tesseract@@QEAAHAEBVShape@2@AEBV12@@Z)
        617  268 0000C7A7 ?ByteLength@BitVector@tesseract@@AEBAHXZ = @ILT+47010(?ByteLength@BitVector@tesseract@@AEBAHXZ)
        618  269 00017936 ?CacheXScaleFactor@Network@tesseract@@UEAAXH@Z = @ILT+92465(?CacheXScaleFactor@Network@tesseract@@UEAAXH@Z)
        619  26A 000067E9 ?CalculateBlobOrder@ResultIterator@tesseract@@AEBAXPEAV?$vector@HV?$allocator@H@std@@@std@@@Z = @ILT+22500(?CalculateBlobOrder@ResultIterator@tesseract@@AEBAXPEAV?$vector@HV?$allocator@H@std@@@std@@@Z)
        620  26B 00016342 ?CalculateCellFilledPercentage@StructuredTable@tesseract@@QEAANHH@Z = @ILT+86845(?CalculateCellFilledPercentage@StructuredTable@tesseract@@QEAANHH@Z)
        621  26C 0001B207 ?CalculateMargins@StructuredTable@tesseract@@IEAAXXZ = @ILT+107010(?CalculateMargins@StructuredTable@tesseract@@IEAAXXZ)
        622  26D 000013A7 ?CalculateStats@StructuredTable@tesseract@@IEAAXXZ = @ILT+930(?CalculateStats@StructuredTable@tesseract@@IEAAXXZ)
        623  26E 00004F25 ?CalculateTextlineOrder@ResultIterator@tesseract@@AEBAX_NAEBVLTRResultIterator@2@PEAV?$vector@HV?$allocator@H@std@@@std@@@Z = @ILT+16160(?CalculateTextlineOrder@ResultIterator@tesseract@@AEBAX_NAEBVLTRResultIterator@2@PEAV?$vector@HV?$allocator@H@std@@@std@@@Z)
        624  26F 00014803 ?CalculateTextlineOrder@ResultIterator@tesseract@@AEBAX_NAEBVLTRResultIterator@2@PEAV?$vector@W4StrongScriptDirection@tesseract@@V?$allocator@W4StrongScriptDirection@tesseract@@@std@@@std@@PEAV?$vector@HV?$allocator@H@std@@@5@@Z = @ILT+79870(?CalculateTextlineOrder@ResultIterator@tesseract@@AEBAX_NAEBVLTRResultIterator@2@PEAV?$vector@W4StrongScriptDirection@tesseract@@V?$allocator@W4StrongScriptDirection@tesseract@@@std@@@std@@PEAV?$vector@HV?$allocator@H@std@@@5@@Z)
        625  270 000065EB ?CalculateTextlineOrder@ResultIterator@tesseract@@SAX_NAEBV?$vector@W4StrongScriptDirection@tesseract@@V?$allocator@W4StrongScriptDirection@tesseract@@@std@@@std@@PEAV?$vector@HV?$allocator@H@std@@@4@@Z = @ILT+21990(?CalculateTextlineOrder@ResultIterator@tesseract@@SAX_NAEBV?$vector@W4StrongScriptDirection@tesseract@@V?$allocator@W4StrongScriptDirection@tesseract@@@std@@@std@@PEAV?$vector@HV?$allocator@H@std@@@4@@Z)
        626  271 00015FC3 ?CallFillLattice@Wordrec@tesseract@@QEAAXAEBVMATRIX@2@AEBVWERD_CHOICE_LIST@2@AEBVUNICHARSET@2@PEAUBlamerBundle@2@@Z = @ILT+85950(?CallFillLattice@Wordrec@tesseract@@QEAAXAEBVMATRIX@2@AEBVWERD_CHOICE_LIST@2@AEBVUNICHARSET@2@PEAUBlamerBundle@2@@Z)
        627  272 00001DB6 ?CharNormClassifier@Classify@tesseract@@QEAAHPEAUTBLOB@2@AEBVTrainingSample@2@PEAUADAPT_RESULTS@2@@Z = @ILT+3505(?CharNormClassifier@Classify@tesseract@@QEAAHPEAUTBLOB@2@AEBVTrainingSample@2@PEAUADAPT_RESULTS@2@@Z)
        628  273 0000DBF7 ?CharNormTrainingSample@Classify@tesseract@@QEAAH_NHAEBVTrainingSample@2@PEAV?$vector@UUnicharRating@tesseract@@V?$allocator@UUnicharRating@tesseract@@@std@@@std@@@Z = @ILT+52210(?CharNormTrainingSample@Classify@tesseract@@QEAAH_NHAEBVTrainingSample@2@PEAV?$vector@UUnicharRating@tesseract@@V?$allocator@UUnicharRating@tesseract@@@std@@@std@@@Z)
        629  274 000141A0 ?CheckForSeed2@EquationDetect@tesseract@@IEAA_NAEBV?$vector@HV?$allocator@H@std@@@std@@MPEAVColPartition@2@@Z = @ILT+78235(?CheckForSeed2@EquationDetect@tesseract@@IEAA_NAEBV?$vector@HV?$allocator@H@std@@@std@@MPEAVColPartition@2@@Z)
        630  275 00016CED ?CheckInverseFlagAndDirection@C_BLOB@tesseract@@QEAAXXZ = @ILT+89320(?CheckInverseFlagAndDirection@C_BLOB@tesseract@@QEAAXXZ)
        631  276 0000CD3D ?CheckSeedBlobsCount@EquationDetect@tesseract@@IEAA_NPEAVColPartition@2@@Z = @ILT+48440(?CheckSeedBlobsCount@EquationDetect@tesseract@@IEAA_NPEAVColPartition@2@@Z)
        632  277 0000FBFF ?CheckSeedDensity@EquationDetect@tesseract@@IEBA_NMMPEBVColPartition@2@@Z = @ILT+60410(?CheckSeedDensity@EquationDetect@tesseract@@IEBA_NMMPEBVColPartition@2@@Z)
        633  278 0000B1F4 ?CheckSeedFgDensity@EquationDetect@tesseract@@IEAA_NMPEAVColPartition@2@@Z = @ILT+41455(?CheckSeedFgDensity@EquationDetect@tesseract@@IEAA_NMPEAVColPartition@2@@Z)
        634  279 0001056E ?CheckSeedNeighborDensity@EquationDetect@tesseract@@IEBA_NPEBVColPartition@2@@Z = @ILT+62825(?CheckSeedNeighborDensity@EquationDetect@tesseract@@IEBA_NPEBVColPartition@2@@Z)
        635  27A 00006AF0 ?ClaimBoxes@ColPartition@tesseract@@QEAAXXZ = @ILT+23275(?ClaimBoxes@ColPartition@tesseract@@QEAAXXZ)
        636  27B 00002E23 ?ClaimBoxes@ColPartitionGrid@tesseract@@QEAAXXZ = @ILT+7710(?ClaimBoxes@ColPartitionGrid@tesseract@@QEAAXXZ)
        637  27C 00008D55 ?ClassAndConfigIDToFontOrShapeID@Classify@tesseract@@QEBAHHH@Z = @ILT+32080(?ClassAndConfigIDToFontOrShapeID@Classify@tesseract@@QEBAHHH@Z)
        638  27D 000112F2 ?ClassIDToDebugStr@Classify@tesseract@@QEBA?AV?$basic_string@DU?$char_traits@D@std@@V?$allocator@D@2@@std@@PEBUINT_TEMPLATES_STRUCT@2@HH@Z = @ILT+66285(?ClassIDToDebugStr@Classify@tesseract@@QEBA?AV?$basic_string@DU?$char_traits@D@std@@V?$allocator@D@2@@std@@PEBUINT_TEMPLATES_STRUCT@2@HH@Z)
        639  27E 00011518 ?ClassifyAsNoise@Classify@tesseract@@QEAAXPEAUADAPT_RESULTS@2@@Z = @ILT+66835(?ClassifyAsNoise@Classify@tesseract@@QEAAXPEAUADAPT_RESULTS@2@@Z)
        640  27F 00002ED7 ?ClassifyBlobAsWord@Tesseract@tesseract@@QEAAMHPEAVPAGE_RES_IT@2@PEAVC_BLOB@2@AEAV?$basic_string@DU?$char_traits@D@std@@V?$allocator@D@2@@std@@PEAM@Z = @ILT+7890(?ClassifyBlobAsWord@Tesseract@tesseract@@QEAAMHPEAVPAGE_RES_IT@2@PEAVC_BLOB@2@AEAV?$basic_string@DU?$char_traits@D@std@@V?$allocator@D@2@@std@@PEAM@Z)
        641  280 0000FFDD ?ClassifyBlobPlusOutlines@Tesseract@tesseract@@QEAAMAEBV?$vector@_NV?$allocator@_N@std@@@std@@AEBV?$vector@PEAVC_OUTLINE@tesseract@@V?$allocator@PEAVC_OUTLINE@tesseract@@@std@@@4@HPEAVPAGE_RES_IT@2@PEAVC_BLOB@2@AEAV?$basic_string@DU?$char_traits@D@std@@V?$allocator@D@2@@4@@Z = @ILT+61400(?ClassifyBlobPlusOutlines@Tesseract@tesseract@@QEAAMAEBV?$vector@_NV?$allocator@_N@std@@@std@@AEBV?$vector@PEAVC_OUTLINE@tesseract@@V?$allocator@PEAVC_OUTLINE@tesseract@@@std@@@4@HPEAVPAGE_RES_IT@2@PEAVC_BLOB@2@AEAV?$basic_string@DU?$char_traits@D@std@@V?$allocator@D@2@@4@@Z)
        642  281 0001CBBB ?ClassifySample@ShapeClassifier@tesseract@@MEAAHAEBVTrainingSample@2@VImage@2@HHPEAV?$vector@UShapeRating@tesseract@@V?$allocator@UShapeRating@tesseract@@@std@@@std@@@Z = @ILT+113590(?ClassifySample@ShapeClassifier@tesseract@@MEAAHAEBVTrainingSample@2@VImage@2@HHPEAV?$vector@UShapeRating@tesseract@@V?$allocator@UShapeRating@tesseract@@@std@@@std@@@Z)
        643  282 00004F4D ?CleanNoise@WERD@tesseract@@QEAAXM@Z = @ILT+16200(?CleanNoise@WERD@tesseract@@QEAAXM@Z)
        644  283 0001130B ?Cleanup@UnicharCompress@tesseract@@AEAAXXZ = @ILT+66310(?Cleanup@UnicharCompress@tesseract@@AEAAXXZ)
        645  284 0000DA80 ?CleanupString@UNICHARSET@tesseract@@SA?AV?$basic_string@DU?$char_traits@D@std@@V?$allocator@D@2@@std@@PEBD@Z = @ILT+51835(?CleanupString@UNICHARSET@tesseract@@SA?AV?$basic_string@DU?$char_traits@D@std@@V?$allocator@D@2@@std@@PEBD@Z)
        646  285 0000324C ?CleanupString@UNICHARSET@tesseract@@SA?AV?$basic_string@DU?$char_traits@D@std@@V?$allocator@D@2@@std@@PEBD_K@Z = @ILT+8775(?CleanupString@UNICHARSET@tesseract@@SA?AV?$basic_string@DU?$char_traits@D@std@@V?$allocator@D@2@@std@@PEBD_K@Z)
        647  286 000101CC ?CleanupTabs@TabFind@tesseract@@AEAAXXZ = @ILT+61895(?CleanupTabs@TabFind@tesseract@@AEAAXXZ)
        648  287 00013AED ?Clear@?$BBGrid@VBLOBNBOX@tesseract@@VBLOBNBOX_CLIST@2@VBLOBNBOX_C_IT@2@@tesseract@@QEAAXXZ = @ILT+76520(?Clear@?$BBGrid@VBLOBNBOX@tesseract@@VBLOBNBOX_CLIST@2@VBLOBNBOX_C_IT@2@@tesseract@@QEAAXXZ)
        649  288 00002C1B ?Clear@?$BBGrid@VColPartition@tesseract@@VColPartition_CLIST@2@VColPartition_C_IT@2@@tesseract@@QEAAXXZ = @ILT+7190(?Clear@?$BBGrid@VColPartition@tesseract@@VColPartition_CLIST@2@VColPartition_C_IT@2@@tesseract@@QEAAXXZ)
        650  289 00016F4A ?Clear@DENORM@tesseract@@AEAAXXZ = @ILT+89925(?Clear@DENORM@tesseract@@AEAAXXZ)
        651  28A 0000F1A0 ?Clear@ImageThresholder@tesseract@@UEAAXXZ = @ILT+57755(?Clear@ImageThresholder@tesseract@@UEAAXXZ)
        652  28B 0000A75E ?Clear@ParamsModel@tesseract@@QEAAXXZ = @ILT+38745(?Clear@ParamsModel@tesseract@@QEAAXXZ)
        653  28C 00009F93 ?Clear@ScrollView@tesseract@@QEAAXXZ = @ILT+36750(?Clear@ScrollView@tesseract@@QEAAXXZ)
        654  28D 0000FFE7 ?Clear@TessBaseAPI@tesseract@@QEAAXXZ = @ILT+61410(?Clear@TessBaseAPI@tesseract@@QEAAXXZ)
        655  28E 0001CE3B ?Clear@TessdataManager@tesseract@@QEAAXXZ = @ILT+114230(?Clear@TessdataManager@tesseract@@QEAAXXZ)
        656  28F 0000338C ?Clear@Tesseract@tesseract@@QEAAXXZ = @ILT+9095(?Clear@Tesseract@tesseract@@QEAAXXZ)
        657  290 0001691E ?Clear@WERD_RES@tesseract@@QEAAXXZ = @ILT+88345(?Clear@WERD_RES@tesseract@@QEAAXXZ)
        658  291 0000D92C ?ClearAdaptiveClassifier@TessBaseAPI@tesseract@@QEAAXXZ = @ILT+51495(?ClearAdaptiveClassifier@TessBaseAPI@tesseract@@QEAAXXZ)
        659  292 0000D6E3 ?ClearCharNormArray@Classify@tesseract@@QEAAXPEAE@Z = @ILT+50910(?ClearCharNormArray@Classify@tesseract@@QEAAXPEAE@Z)
        660  293 00018DFE ?ClearFeatureSpaceWindow@tesseract@@YAXW4NORM_METHOD@1@PEAVScrollView@1@@Z = @ILT+97785(?ClearFeatureSpaceWindow@tesseract@@YAXW4NORM_METHOD@1@PEAVScrollView@1@@Z)
        661  294 0000F0EC ?ClearGridData@?$BBGrid@VBLOBNBOX@tesseract@@VBLOBNBOX_CLIST@2@VBLOBNBOX_C_IT@2@@tesseract@@QEAAXP6AXPEAVBLOBNBOX@2@@Z@Z = @ILT+57575(?ClearGridData@?$BBGrid@VBLOBNBOX@tesseract@@VBLOBNBOX_CLIST@2@VBLOBNBOX_C_IT@2@@tesseract@@QEAAXP6AXPEAVBLOBNBOX@2@@Z@Z)
        662  295 00008940 ?ClearGridData@?$BBGrid@VColPartition@tesseract@@VColPartition_CLIST@2@VColPartition_C_IT@2@@tesseract@@QEAAXP6AXPEAVColPartition@2@@Z@Z = @ILT+31035(?ClearGridData@?$BBGrid@VColPartition@tesseract@@VColPartition_CLIST@2@VColPartition_C_IT@2@@tesseract@@QEAAXP6AXPEAVColPartition@2@@Z@Z)
        663  296 00014DF8 ?ClearPersistentCache@TessBaseAPI@tesseract@@SAXXZ = @ILT+81395(?ClearPersistentCache@TessBaseAPI@tesseract@@SAXXZ)
        664  297 00011F4A ?ClearRatings@WERD_RES@tesseract@@QEAAXXZ = @ILT+69445(?ClearRatings@WERD_RES@tesseract@@QEAAXXZ)
        665  298 00012DC8 ?ClearResults@TessBaseAPI@tesseract@@IEAAXXZ = @ILT+73155(?ClearResults@TessBaseAPI@tesseract@@IEAAXXZ)
        666  299 0000E16F ?ClearResults@WERD_RES@tesseract@@QEAAXXZ = @ILT+53610(?ClearResults@WERD_RES@tesseract@@QEAAXXZ)
        667  29A 000025C2 ?ClearStructure@StructuredTable@tesseract@@IEAAXXZ = @ILT+5565(?ClearStructure@StructuredTable@tesseract@@IEAAXXZ)
        668  29B 00004840 ?ClearWindow@Network@tesseract@@SAX_NPEBDHHPEAPEAVScrollView@2@@Z = @ILT+14395(?ClearWindow@Network@tesseract@@SAX_NPEBDHHPEAPEAVScrollView@2@@Z)
        669  29C 000065F5 ?ClearWordChoices@WERD_RES@tesseract@@QEAAXXZ = @ILT+22000(?ClearWordChoices@WERD_RES@tesseract@@QEAAXXZ)
        670  29D 00016B80 ?ClipGridCoords@GridBase@tesseract@@QEBAXPEAH0@Z = @ILT+88955(?ClipGridCoords@GridBase@tesseract@@QEBAXPEAH0@Z)
        671  29E 000172F1 ?ClipVector@NetworkIO@tesseract@@QEAAXHM@Z = @ILT+90860(?ClipVector@NetworkIO@tesseract@@QEAAXHM@Z)
        672  29F 00018755 ?CloneChoppedToRebuild@WERD_RES@tesseract@@QEAAXXZ = @ILT+96080(?CloneChoppedToRebuild@WERD_RES@tesseract@@QEAAXXZ)
        673  2A0 00017387 ?CloseWrite@TFile@tesseract@@QEAA_NPEBDP6A_NAEBV?$vector@DV?$allocator@D@std@@@std@@0@Z@Z = @ILT+91010(?CloseWrite@TFile@tesseract@@QEAA_NPEBDP6A_NAEBV?$vector@DV?$allocator@D@std@@@std@@0@Z@Z)
        674  2A1 00002E0A ?ClusterSamples@tesseract@@YAPEAUlist_rec@1@PEAUCLUSTERER@1@PEAUCLUSTERCONFIG@1@@Z = @ILT+7685(?ClusterSamples@tesseract@@YAPEAUlist_rec@1@PEAUCLUSTERER@1@PEAUCLUSTERCONFIG@1@@Z)
        675  2A2 0000D9EF ?Cmp@PageIterator@tesseract@@QEBAHAEBV12@@Z = @ILT+51690(?Cmp@PageIterator@tesseract@@QEBAHAEBV12@@Z)
        676  2A3 00003B2F ?ColorForPolyBlockType@POLY_BLOCK@tesseract@@SA?AW4Color@ScrollView@2@W4PolyBlockType@2@@Z = @ILT+11050(?ColorForPolyBlockType@POLY_BLOCK@tesseract@@SA?AW4Color@ScrollView@2@W4PolyBlockType@2@@Z)
        677  2A4 000055E2 ?ColumnContains@ColPartition@tesseract@@QEBA_NHH@Z = @ILT+17885(?ColumnContains@ColPartition@tesseract@@QEBA_NHH@Z)
        678  2A5 000148B7 ?ColumnRange@ColPartition@tesseract@@QEAAXHPEAVColPartitionSet@2@PEAH1@Z = @ILT+80050(?ColumnRange@ColPartition@tesseract@@QEAAXHPEAVColPartitionSet@2@PEAH1@Z)
        679  2A6 000181FB ?ColumnWidth@ColPartition@tesseract@@QEBAHXZ = @ILT+94710(?ColumnWidth@ColPartition@tesseract@@QEBAHXZ)
        680  2A7 0000D413 ?CombineDataFiles@TessdataManager@tesseract@@QEAA_NPEBD0@Z = @ILT+50190(?CombineDataFiles@TessdataManager@tesseract@@QEAA_NPEBD0@Z)
        681  2A8 0001533E ?CombineOutputs@NetworkIO@tesseract@@QEAAXAEBV12@0@Z = @ILT+82745(?CombineOutputs@NetworkIO@tesseract@@QEAAXAEBV12@0@Z)
        682  2A9 000010C3 ?CommonFont@ShapeTable@tesseract@@QEBA_NHH@Z = @ILT+190(?CommonFont@ShapeTable@tesseract@@QEBA_NHH@Z)
        683  2AA 0001B16C ?CommonUnichars@ShapeTable@tesseract@@QEBA_NHH@Z = @ILT+106855(?CommonUnichars@ShapeTable@tesseract@@QEBA_NHH@Z)
        684  2AB 0001C805 ?CommonWidth@TabFind@tesseract@@QEAA_NH@Z = @ILT+112640(?CommonWidth@TabFind@tesseract@@QEAA_NH@Z)
        685  2AC 00016C52 ?CompactSize@IndexMap@tesseract@@QEBAHXZ = @ILT+89165(?CompactSize@IndexMap@tesseract@@QEBAHXZ)
        686  2AD 000072F2 ?CompactToSparse@IndexMap@tesseract@@QEBAHH@Z = @ILT+25325(?CompactToSparse@IndexMap@tesseract@@QEBAHH@Z)
        687  2AE 0000F0CE ?Comparable@ParagraphModel@tesseract@@QEBA_NAEBV12@@Z = @ILT+57545(?Comparable@ParagraphModel@tesseract@@QEBA_NAEBV12@@Z)
        688  2AF 00008157 ?CompleteMerges@IndexMapBiDi@tesseract@@QEAAXXZ = @ILT+29010(?CompleteMerges@IndexMapBiDi@tesseract@@QEAAXXZ)
        689  2B0 0000B5AF ?ComputeAdaptionThresholds@WERD_RES@tesseract@@QEAAXMMMMPEAM@Z = @ILT+42410(?ComputeAdaptionThresholds@WERD_RES@tesseract@@QEAAXMMMMPEAM@Z)
        690  2B1 0001A30C ?ComputeBlockAndClassifyRotation@ColumnFinder@tesseract@@AEAA?AVFCOORD@2@PEAVBLOCK@2@@Z = @ILT+103175(?ComputeBlockAndClassifyRotation@ColumnFinder@tesseract@@AEAA?AVFCOORD@2@PEAVBLOCK@2@@Z)
        691  2B2 00017369 ?ComputeCPsSuperBBox@EquationDetect@tesseract@@IEAAXXZ = @ILT+90980(?ComputeCPsSuperBBox@EquationDetect@tesseract@@IEAAXXZ)
        692  2B3 0001B2ED ?ComputeCharNormArrays@Classify@tesseract@@QEAAXPEAUFEATURE_STRUCT@2@PEAUINT_TEMPLATES_STRUCT@2@PEAE2@Z = @ILT+107240(?ComputeCharNormArrays@Classify@tesseract@@QEAAXPEAUFEATURE_STRUCT@2@PEAUINT_TEMPLATES_STRUCT@2@PEAE2@Z)
        693  2B4 000140EC ?ComputeCodeHash@RecodeBeamSearch@tesseract@@AEBA_KH_NPEBURecodeNode@2@@Z = @ILT+78055(?ComputeCodeHash@RecodeBeamSearch@tesseract@@AEBA_KH_NPEBURecodeNode@2@@Z)
        694  2B5 00003085 ?ComputeCodeRange@UnicharCompress@tesseract@@AEAAXXZ = @ILT+8320(?ComputeCodeRange@UnicharCompress@tesseract@@AEAAXXZ)
        695  2B6 0000B9DD ?ComputeColumnWidths@TabFind@tesseract@@AEAAXPEAVScrollView@2@PEAVColPartitionGrid@2@@Z = @ILT+43480(?ComputeColumnWidths@TabFind@tesseract@@AEAAXPEAVScrollView@2@PEAVColPartitionGrid@2@@Z)
        696  2B7 0000258B ?ComputeCombinerDeltas@NetworkIO@tesseract@@QEAAXAEBV12@0@Z = @ILT+5510(?ComputeCombinerDeltas@NetworkIO@tesseract@@QEAAXAEBV12@0@Z)
        697  2B8 00010A28 ?ComputeCompatibleXheight@Tesseract@tesseract@@QEAAMPEAVWERD_RES@2@PEAM@Z = @ILT+64035(?ComputeCompatibleXheight@Tesseract@tesseract@@QEAAMPEAVWERD_RES@2@PEAM@Z)
        698  2B9 0000FD62 ?ComputeCorrectedRating@Classify@tesseract@@QEAAN_NHNNHHHHHPEBE@Z = @ILT+60765(?ComputeCorrectedRating@Classify@tesseract@@QEAAN_NHNNHHHHHPEBE@Z)
        699  2BA 0000B109 ?ComputeCost@ParamsModel@tesseract@@QEBAMQEBM@Z = @ILT+41220(?ComputeCost@ParamsModel@tesseract@@QEBAMQEBM@Z)
        700  2BB 0000509C ?ComputeDeskewVectors@TabFind@tesseract@@AEAAXPEAVFCOORD@2@0@Z = @ILT+16535(?ComputeDeskewVectors@TabFind@tesseract@@AEAAXPEAVFCOORD@2@0@Z)
        701  2BC 0001C198 ?ComputeDistance@tesseract@@YAMHPEAUPARAM_DESC@1@QEAM1@Z = @ILT+110995(?ComputeDistance@tesseract@@YAMHPEAUPARAM_DESC@1@QEAM1@Z)
        702  2BD 000057BD ?ComputeEdgeOffsets@C_BLOB@tesseract@@QEAAXHVImage@2@@Z = @ILT+18360(?ComputeEdgeOffsets@C_BLOB@tesseract@@QEAAXHVImage@2@@Z)
        703  2BE 0000E138 ?ComputeEdgeOffsets@TO_BLOCK@tesseract@@QEAAXVImage@2@0@Z = @ILT+53555(?ComputeEdgeOffsets@TO_BLOCK@tesseract@@QEAAXVImage@2@0@Z)
        704  2BF 0000772F ?ComputeEncoding@UnicharCompress@tesseract@@QEAA_NAEBVUNICHARSET@2@HPEAV?$basic_string@DU?$char_traits@D@std@@V?$allocator@D@2@@std@@@Z = @ILT+26410(?ComputeEncoding@UnicharCompress@tesseract@@QEAA_NAEBVUNICHARSET@2@HPEAV?$basic_string@DU?$char_traits@D@std@@V?$allocator@D@2@@std@@@Z)
        705  2C0 000147F4 ?ComputeForegroundDensity@EquationDetect@tesseract@@IEAAMAEBVTBOX@2@@Z = @ILT+79855(?ComputeForegroundDensity@EquationDetect@tesseract@@IEAAMAEBVTBOX@2@@Z)
        706  2C1 0001293B ?ComputeIntCharNormArray@Classify@tesseract@@QEAAXAEBUFEATURE_STRUCT@2@PEAE@Z = @ILT+71990(?ComputeIntCharNormArray@Classify@tesseract@@QEAAXAEBUFEATURE_STRUCT@2@PEAE@Z)
        707  2C2 0000A849 ?ComputeIntFeatures@Classify@tesseract@@QEAAXPEAUFEATURE_SET_STRUCT@2@QEAUINT_FEATURE_STRUCT@2@@Z = @ILT+38980(?ComputeIntFeatures@Classify@tesseract@@QEAAXPEAUFEATURE_SET_STRUCT@2@QEAUINT_FEATURE_STRUCT@2@@Z)
        708  2C3 0001D43F ?ComputeLimits@ColPartition@tesseract@@QEAAXXZ = @ILT+115770(?ComputeLimits@ColPartition@tesseract@@QEAAXXZ)
        709  2C4 00014975 ?ComputeMeanColumnGap@ColumnFinder@tesseract@@AEAAX_N@Z = @ILT+80240(?ComputeMeanColumnGap@ColumnFinder@tesseract@@AEAAX_N@Z)
        710  2C5 00002BA8 ?ComputeNormMatch@Classify@tesseract@@QEAAMHAEBUFEATURE_STRUCT@2@_N@Z = @ILT+7075(?ComputeNormMatch@Classify@tesseract@@QEAAMHAEBUFEATURE_STRUCT@2@_N@Z)
        711  2C6 00009971 ?ComputeSecTopN@RecodeBeamSearch@tesseract@@AEAAXPEAV?$unordered_set@HU?$hash@H@std@@U?$equal_to@H@2@V?$allocator@H@2@@std@@PEBMHH@Z = @ILT+35180(?ComputeSecTopN@RecodeBeamSearch@tesseract@@AEAAXPEAV?$unordered_set@HU?$hash@H@std@@U?$equal_to@H@2@V?$allocator@H@2@@std@@PEBMHH@Z)
        712  2C7 000178CD ?ComputeSpecialBlobsDensity@ColPartition@tesseract@@QEAAXXZ = @ILT+92360(?ComputeSpecialBlobsDensity@ColPartition@tesseract@@QEAAXXZ)
        713  2C8 00014F56 ?ComputeTopN@RecodeBeamSearch@tesseract@@AEAAXPEBMHH@Z = @ILT+81745(?ComputeTopN@RecodeBeamSearch@tesseract@@AEAAXPEBMHH@Z)
        714  2C9 00004C82 ?ComputeTotalOverlap@ColPartitionGrid@tesseract@@QEAAHPEAPEAV12@@Z = @ILT+15485(?ComputeTotalOverlap@ColPartitionGrid@tesseract@@QEAAHPEAPEAV12@@Z)
        715  2CA 00017C38 ?ConditionalBlobMerge@WERD_RES@tesseract@@QEAA_NV?$function@$$A6AHHH@Z@std@@V?$function@$$A6A_NAEBVTBOX@tesseract@@0@Z@4@@Z = @ILT+93235(?ConditionalBlobMerge@WERD_RES@tesseract@@QEAA_NV?$function@$$A6AHHH@Z@std@@V?$function@$$A6A_NAEBVTBOX@tesseract@@0@Z@4@@Z)
        716  2CB 00010A05 ?Confidence@ChoiceIterator@tesseract@@QEBAMXZ = @ILT+64000(?Confidence@ChoiceIterator@tesseract@@QEBAMXZ)
        717  2CC 00013BCE ?Confidence@LTRResultIterator@tesseract@@QEBAMW4PageIteratorLevel@2@@Z = @ILT+76745(?Confidence@LTRResultIterator@tesseract@@QEBAMW4PageIteratorLevel@2@@Z)
        718  2CD 00003148 ?ConfirmNoTabViolation@ColPartition@tesseract@@QEBA_NAEBV12@@Z = @ILT+8515(?ConfirmNoTabViolation@ColPartition@tesseract@@QEBA_NAEBV12@@Z)
        719  2CE 0001B0CC ?ConfirmRaggedLeft@TabFind@tesseract@@AEAA_NPEAVBLOBNBOX@2@H@Z = @ILT+106695(?ConfirmRaggedLeft@TabFind@tesseract@@AEAA_NPEAVBLOBNBOX@2@H@Z)
        720  2CF 00005E48 ?ConfirmRaggedRight@TabFind@tesseract@@AEAA_NPEAVBLOBNBOX@2@H@Z = @ILT+20035(?ConfirmRaggedRight@TabFind@tesseract@@AEAA_NPEAVBLOBNBOX@2@H@Z)
        721  2D0 0000184D ?ConsecutiveBoxes@TableFinder@tesseract@@IEAA_NAEBVTBOX@2@0@Z = @ILT+2120(?ConsecutiveBoxes@TableFinder@tesseract@@IEAA_NAEBVTBOX@2@0@Z)
        722  2D1 000053D0 ?ConstructBlobsFromOutlines@C_BLOB@tesseract@@SAX_NPEAVC_OUTLINE_LIST@2@PEAVC_BLOB_IT@2@2@Z = @ILT+17355(?ConstructBlobsFromOutlines@C_BLOB@tesseract@@SAX_NPEAVC_OUTLINE_LIST@2@PEAVC_BLOB_IT@2@2@Z)
        723  2D2 00010EDD ?ConstructFromSingleBlob@WERD@tesseract@@QEAAPEAV12@_N0PEAVC_BLOB@2@@Z = @ILT+65240(?ConstructFromSingleBlob@WERD@tesseract@@QEAAPEAV12@_N0PEAVC_BLOB@2@@Z)
        724  2D3 0001A5C8 ?ConstructProjection@TextlineProjection@tesseract@@QEAAXPEAVTO_BLOCK@2@AEBVFCOORD@2@VImage@2@@Z = @ILT+103875(?ConstructProjection@TextlineProjection@tesseract@@QEAAXPEAVTO_BLOCK@2@AEBVFCOORD@2@VImage@2@@Z)
        725  2D4 00013665 ?ConstructWerdWithNewBlobs@WERD@tesseract@@QEAAPEAV12@PEAVC_BLOB_LIST@2@0@Z = @ILT+75360(?ConstructWerdWithNewBlobs@WERD@tesseract@@QEAAPEAV12@PEAVC_BLOB_LIST@2@0@Z)
        726  2D5 0000F4B1 ?ConsumeWordResults@WERD_RES@tesseract@@QEAAXPEAV12@@Z = @ILT+58540(?ConsumeWordResults@WERD_RES@tesseract@@QEAAXPEAV12@@Z)
        727  2D6 0001CFAD ?ContainsAnyNonSpaceDelimited@WERD_CHOICE@tesseract@@QEBA_NXZ = @ILT+114600(?ContainsAnyNonSpaceDelimited@WERD_CHOICE@tesseract@@QEBA_NXZ)
        728  2D7 0000DA62 ?ContainsFont@Shape@tesseract@@QEBA_NH@Z = @ILT+51805(?ContainsFont@Shape@tesseract@@QEBA_NH@Z)
        729  2D8 0000215D ?ContainsFontProperties@Shape@tesseract@@QEBA_NAEBVFontInfoTable@2@I@Z = @ILT+4440(?ContainsFontProperties@Shape@tesseract@@QEBA_NAEBVFontInfoTable@2@I@Z)
        730  2D9 000037EC ?ContainsMultipleFontProperties@Shape@tesseract@@QEBA_NAEBVFontInfoTable@2@@Z = @ILT+10215(?ContainsMultipleFontProperties@Shape@tesseract@@QEBA_NAEBVFontInfoTable@2@@Z)
        731  2DA 0001903D ?ContainsUnichar@Shape@tesseract@@QEBA_NH@Z = @ILT+98360(?ContainsUnichar@Shape@tesseract@@QEBA_NH@Z)
        732  2DB 00002766 ?ContainsUnicharAndFont@Shape@tesseract@@QEBA_NHH@Z = @ILT+5985(?ContainsUnicharAndFont@Shape@tesseract@@QEBA_NHH@Z)
        733  2DC 00017864 ?ContinuationFromBeamsIndex@RecodeBeamSearch@tesseract@@SA?AW4NodeContinuation@2@H@Z = @ILT+92255(?ContinuationFromBeamsIndex@RecodeBeamSearch@tesseract@@SA?AW4NodeContinuation@2@H@Z)
        734  2DD 0000F6F0 ?ContinueContext@RecodeBeamSearch@tesseract@@AEAAXPEBURecodeNode@2@HPEBMW4TopNState@2@PEBVUNICHARSET@2@NNNPEAURecodeBeam@12@@Z = @ILT+59115(?ContinueContext@RecodeBeamSearch@tesseract@@AEAAXPEBURecodeNode@2@HPEBMW4TopNState@2@PEBVUNICHARSET@2@NNNPEAURecodeBeam@12@@Z)
        735  2DE 00015BEA ?ContinueDawg@RecodeBeamSearch@tesseract@@AEAAXHHMW4NodeContinuation@2@PEBURecodeNode@2@PEAURecodeBeam@12@@Z = @ILT+84965(?ContinueDawg@RecodeBeamSearch@tesseract@@AEAAXHHMW4NodeContinuation@2@PEBURecodeNode@2@PEAURecodeBeam@12@@Z)
        736  2DF 0001753A ?ContinueUnichar@RecodeBeamSearch@tesseract@@AEAAXHHMMM_NW4NodeContinuation@2@PEBURecodeNode@2@PEAURecodeBeam@12@@Z = @ILT+91445(?ContinueUnichar@RecodeBeamSearch@tesseract@@AEAAXHHMMM_NW4NodeContinuation@2@PEBURecodeNode@2@PEAURecodeBeam@12@@Z)
        737  2E0 000015F0 ?ConvertMatchesToChoices@Classify@tesseract@@QEAAXAEBVDENORM@2@AEBVTBOX@2@PEAUADAPT_RESULTS@2@PEAVBLOB_CHOICE_LIST@2@@Z = @ILT+1515(?ConvertMatchesToChoices@Classify@tesseract@@QEAAXAEBVDENORM@2@AEBVTBOX@2@PEAUADAPT_RESULTS@2@PEAVBLOB_CHOICE_LIST@2@@Z)
        738  2E1 0000AC09 ?ConvertProto@Classify@tesseract@@QEAAXPEAUPROTO_STRUCT@2@HPEAUINT_CLASS_STRUCT@2@@Z = @ILT+39940(?ConvertProto@Classify@tesseract@@QEAAXPEAUPROTO_STRUCT@2@HPEAUINT_CLASS_STRUCT@2@@Z)
        739  2E2 000100FA ?ConvertStringToUnichars@Tesseract@tesseract@@QEAA_NPEBDPEAV?$vector@HV?$allocator@H@std@@@std@@@Z = @ILT+61685(?ConvertStringToUnichars@Tesseract@tesseract@@QEAA_NPEBDPEAV?$vector@HV?$allocator@H@std@@@std@@@Z)
        740  2E3 0000F0F1 ?ConvertToInt@LSTMRecognizer@tesseract@@QEAAXXZ = @ILT+57580(?ConvertToInt@LSTMRecognizer@tesseract@@QEAAXXZ)
        741  2E4 0001C779 ?ConvertToInt@Network@tesseract@@UEAAXXZ = @ILT+112500(?ConvertToInt@Network@tesseract@@UEAAXXZ)
        742  2E5 00018FF2 ?Copy1DGreyImage@NetworkIO@tesseract@@QEAAXHVImage@2@MMPEAVTRand@2@@Z = @ILT+98285(?Copy1DGreyImage@NetworkIO@tesseract@@QEAAXHVImage@2@MMPEAVTRand@2@@Z)
        743  2E6 0001A474 ?Copy2DImage@NetworkIO@tesseract@@QEAAXHVImage@2@MMPEAVTRand@2@@Z = @ILT+103535(?Copy2DImage@NetworkIO@tesseract@@QEAAXHVImage@2@MMPEAVTRand@2@@Z)
        744  2E7 00008C47 ?Copy@ParamsModel@tesseract@@QEAAXAEBV12@@Z = @ILT+31810(?Copy@ParamsModel@tesseract@@QEAAXAEBV12@@Z)
        745  2E8 0000BF46 ?Copy@TrainingSample@tesseract@@QEBAPEAV12@XZ = @ILT+44865(?Copy@TrainingSample@tesseract@@QEBAPEAV12@XZ)
        746  2E9 00008AFD ?CopyAll@NetworkIO@tesseract@@QEAAXAEBV12@@Z = @ILT+31480(?CopyAll@NetworkIO@tesseract@@QEAAXAEBV12@@Z)
        747  2EA 0000F1A5 ?CopyButDontOwnBlobs@ColPartition@tesseract@@QEAAPEAV12@XZ = @ILT+57760(?CopyButDontOwnBlobs@ColPartition@tesseract@@QEAAPEAV12@XZ)
        748  2EB 0000D89B ?CopyFrom@IndexMap@tesseract@@QEAAXAEBV12@@Z = @ILT+51350(?CopyFrom@IndexMap@tesseract@@QEAAXAEBV12@@Z)
        749  2EC 00007C2A ?CopyFrom@IndexMap@tesseract@@QEAAXAEBVIndexMapBiDi@2@@Z = @ILT+27685(?CopyFrom@IndexMap@tesseract@@QEAAXAEBVIndexMapBiDi@2@@Z)
        750  2ED 00010F14 ?CopyFrom@IndexMapBiDi@tesseract@@QEAAXAEBV12@@Z = @ILT+65295(?CopyFrom@IndexMapBiDi@tesseract@@QEAAXAEBV12@@Z)
        751  2EE 0001A08C ?CopyFrom@UNICHARSET@tesseract@@QEAAXAEBV12@@Z = @ILT+102535(?CopyFrom@UNICHARSET@tesseract@@QEAAXAEBV12@@Z)
        752  2EF 00010D07 ?CopyFrom@UNICHAR_PROPERTIES@UNICHARSET@tesseract@@QEAAXAEBU123@@Z = @ILT+64770(?CopyFrom@UNICHAR_PROPERTIES@UNICHARSET@tesseract@@QEAAXAEBU123@@Z)
        753  2F0 00013755 ?CopyFromFeatures@TrainingSample@tesseract@@SAPEAV12@AEBUINT_FX_RESULT_STRUCT@2@AEBVTBOX@2@PEBUINT_FEATURE_STRUCT@2@H@Z = @ILT+75600(?CopyFromFeatures@TrainingSample@tesseract@@SAPEAV12@AEBUINT_FX_RESULT_STRUCT@2@AEBVTBOX@2@PEBUINT_FEATURE_STRUCT@2@H@Z)
        754  2F1 00003571 ?CopyLeftTab@ColPartition@tesseract@@QEAAXAEBV12@_N@Z = @ILT+9580(?CopyLeftTab@ColPartition@tesseract@@QEAAXAEBV12@_N@Z)
        755  2F2 00006B8B ?CopyPacking@NetworkIO@tesseract@@QEAAHAEBV12@H@Z = @ILT+23430(?CopyPacking@NetworkIO@tesseract@@QEAAHAEBV12@H@Z)
        756  2F3 0000612C ?CopyRightTab@ColPartition@tesseract@@QEAAXAEBV12@_N@Z = @ILT+20775(?CopyRightTab@ColPartition@tesseract@@QEAAXAEBV12@_N@Z)
        757  2F4 0000EBE2 ?CopySimpleFields@WERD_RES@tesseract@@QEAAXAEBV12@@Z = @ILT+56285(?CopySimpleFields@WERD_RES@tesseract@@QEAAXAEBV12@@Z)
        758  2F5 00005934 ?CopyTimeStepFrom@NetworkIO@tesseract@@QEAAXHAEBV12@H@Z = @ILT+18735(?CopyTimeStepFrom@NetworkIO@tesseract@@QEAAXHAEBV12@H@Z)
        759  2F6 00009BAB ?CopyTimeStepGeneral@NetworkIO@tesseract@@QEAAXHHHAEBV12@HH@Z = @ILT+35750(?CopyTimeStepGeneral@NetworkIO@tesseract@@QEAAXHHHAEBV12@HH@Z)
        760  2F7 00014542 ?CopyUnpacking@NetworkIO@tesseract@@QEAAXAEBV12@HH@Z = @ILT+79165(?CopyUnpacking@NetworkIO@tesseract@@QEAAXAEBV12@HH@Z)
        761  2F8 00016AA4 ?CopyWithNormalization@NetworkIO@tesseract@@QEAAXAEBV12@0@Z = @ILT+88735(?CopyWithNormalization@NetworkIO@tesseract@@QEAAXAEBV12@0@Z)
        762  2F9 0001230A ?CopyWithXReversal@NetworkIO@tesseract@@QEAAXAEBV12@@Z = @ILT+70405(?CopyWithXReversal@NetworkIO@tesseract@@QEAAXAEBV12@@Z)
        763  2FA 00011C57 ?CopyWithXYTranspose@NetworkIO@tesseract@@QEAAXAEBV12@@Z = @ILT+68690(?CopyWithXYTranspose@NetworkIO@tesseract@@QEAAXAEBV12@@Z)
        764  2FB 000111E9 ?CopyWithYReversal@NetworkIO@tesseract@@QEAAXAEBV12@@Z = @ILT+66020(?CopyWithYReversal@NetworkIO@tesseract@@QEAAXAEBV12@@Z)
        765  2FC 0000F41B ?CorrectClassifyWords@Tesseract@tesseract@@QEAAXPEAVPAGE_RES@2@@Z = @ILT+58390(?CorrectClassifyWords@Tesseract@tesseract@@QEAAXPEAVPAGE_RES@2@@Z)
        766  2FD 00013B79 ?CorrectOrientation@ColumnFinder@tesseract@@QEAAXPEAVTO_BLOCK@2@_NH@Z = @ILT+76660(?CorrectOrientation@ColumnFinder@tesseract@@QEAAXPEAVTO_BLOCK@2@_NH@Z)
        767  2FE 0001977C ?CountAlignment@EquationDetect@tesseract@@IEBAHAEBV?$vector@HV?$allocator@H@std@@@std@@H@Z = @ILT+100215(?CountAlignment@EquationDetect@tesseract@@IEBAHAEBV?$vector@HV?$allocator@H@std@@@std@@H@Z)
        768  2FF 00015415 ?CountAlternators@Network@tesseract@@UEBAXAEBV12@PEAN1@Z = @ILT+82960(?CountAlternators@Network@tesseract@@UEBAXAEBV12@PEAN1@Z)
        769  300 00018EA8 ?CountCellElements@?$BBGrid@VBLOBNBOX@tesseract@@VBLOBNBOX_CLIST@2@VBLOBNBOX_C_IT@2@@tesseract@@QEAAPEAVIntGrid@2@XZ = @ILT+97955(?CountCellElements@?$BBGrid@VBLOBNBOX@tesseract@@VBLOBNBOX_CLIST@2@VBLOBNBOX_C_IT@2@@tesseract@@QEAAPEAVIntGrid@2@XZ)
        770  301 00014B0F ?CountCellElements@?$BBGrid@VColPartition@tesseract@@VColPartition_CLIST@2@VColPartition_C_IT@2@@tesseract@@QEAAPEAVIntGrid@2@XZ = @ILT+80650(?CountCellElements@?$BBGrid@VColPartition@tesseract@@VColPartition_CLIST@2@VColPartition_C_IT@2@@tesseract@@QEAAPEAVIntGrid@2@XZ)
        771  302 0001C5B2 ?CountFilledCells@StructuredTable@tesseract@@QEAAHHHHH@Z = @ILT+112045(?CountFilledCells@StructuredTable@tesseract@@QEAAHHHHH@Z)
        772  303 0000F425 ?CountFilledCells@StructuredTable@tesseract@@QEAAHXZ = @ILT+58400(?CountFilledCells@StructuredTable@tesseract@@QEAAHXZ)
        773  304 00003A12 ?CountFilledCellsInColumn@StructuredTable@tesseract@@QEAAHH@Z = @ILT+10765(?CountFilledCellsInColumn@StructuredTable@tesseract@@QEAAHH@Z)
        774  305 0001CB98 ?CountFilledCellsInRow@StructuredTable@tesseract@@QEAAHH@Z = @ILT+113555(?CountFilledCellsInRow@StructuredTable@tesseract@@QEAAHH@Z)
        775  306 0000652D ?CountHorizontalIntersections@StructuredTable@tesseract@@IEAAHH@Z = @ILT+21800(?CountHorizontalIntersections@StructuredTable@tesseract@@IEAAHH@Z)
        776  307 0000D44F ?CountMisfitTops@Tesseract@tesseract@@QEAAHPEAVWERD_RES@2@@Z = @ILT+50250(?CountMisfitTops@Tesseract@tesseract@@QEAAHPEAVWERD_RES@2@@Z)
        777  308 0001B2BB ?CountOverlappingBoxes@ColPartition@tesseract@@QEAAHAEBVTBOX@2@@Z = @ILT+107190(?CountOverlappingBoxes@ColPartition@tesseract@@QEAAHAEBVTBOX@2@@Z)
        778  309 0001D51B ?CountPartitions@StructuredTable@tesseract@@IEAAHAEBVTBOX@2@@Z = @ILT+115990(?CountPartitions@StructuredTable@tesseract@@IEAAHAEBVTBOX@2@@Z)
        779  30A 0000FB73 ?CountVerticalIntersections@StructuredTable@tesseract@@IEAAHH@Z = @ILT+60270(?CountVerticalIntersections@StructuredTable@tesseract@@IEAAHH@Z)
        780  30B 00014F3D ?CreateFeatureSpaceWindow@tesseract@@YAPEAVScrollView@1@PEBDHH@Z = @ILT+81720(?CreateFeatureSpaceWindow@tesseract@@YAPEAVScrollView@1@PEBDHH@Z)
        781  30C 000148C1 ?CreateFromFile@Network@tesseract@@SAPEAV12@PEAVTFile@2@@Z = @ILT+80060(?CreateFromFile@Network@tesseract@@SAPEAV12@PEAVTFile@2@@Z)
        782  30D 0000CEE6 ?CreateIntTemplates@Classify@tesseract@@QEAAPEAUINT_TEMPLATES_STRUCT@2@PEAUCLASS_STRUCT@2@AEBVUNICHARSET@2@@Z = @ILT+48865(?CreateIntTemplates@Classify@tesseract@@QEAAPEAUINT_TEMPLATES_STRUCT@2@PEAUCLASS_STRUCT@2@AEBVUNICHARSET@2@@Z)
        783  30E 0001B720 ?CurrentParagraphIsLtr@ResultIterator@tesseract@@AEBA_NXZ = @ILT+108315(?CurrentParagraphIsLtr@ResultIterator@tesseract@@AEBA_NXZ)
        784  30F 00008198 ?DeSerialize@BitVector@tesseract@@QEAA_N_NPEAU_iobuf@@@Z = @ILT+29075(?DeSerialize@BitVector@tesseract@@QEAA_N_NPEAU_iobuf@@@Z)
        785  310 000167C0 ?DeSerialize@FontInfoTable@tesseract@@QEAA_NPEAVTFile@2@@Z = @ILT+87995(?DeSerialize@FontInfoTable@tesseract@@QEAA_NPEAVTFile@2@@Z)
        786  311 0001B7ED ?DeSerialize@ImageData@tesseract@@QEAA_NPEAVTFile@2@@Z = @ILT+108520(?DeSerialize@ImageData@tesseract@@QEAA_NPEAVTFile@2@@Z)
        787  312 00008D5A ?DeSerialize@IndexMap@tesseract@@QEAA_N_NPEAU_iobuf@@@Z = @ILT+32085(?DeSerialize@IndexMap@tesseract@@QEAA_N_NPEAU_iobuf@@@Z)
        788  313 0000FC7C ?DeSerialize@IndexMapBiDi@tesseract@@QEAA_N_NPEAU_iobuf@@@Z = @ILT+60535(?DeSerialize@IndexMapBiDi@tesseract@@QEAA_N_NPEAU_iobuf@@@Z)
        789  314 00004AB6 ?DeSerialize@LSTMRecognizer@tesseract@@QEAA_NPEBVTessdataManager@2@PEAVTFile@2@@Z = @ILT+15025(?DeSerialize@LSTMRecognizer@tesseract@@QEAA_NPEBVTessdataManager@2@PEAVTFile@2@@Z)
        790  315 0000368E ?DeSerialize@Shape@tesseract@@QEAA_NPEAVTFile@2@@Z = @ILT+9865(?DeSerialize@Shape@tesseract@@QEAA_NPEAVTFile@2@@Z)
        791  316 0001803E ?DeSerialize@ShapeTable@tesseract@@QEAA_NPEAVTFile@2@@Z = @ILT+94265(?DeSerialize@ShapeTable@tesseract@@QEAA_NPEAVTFile@2@@Z)
        792  317 0000275C ?DeSerialize@TBOX@tesseract@@QEAA_NPEAVTFile@2@@Z = @ILT+5975(?DeSerialize@TBOX@tesseract@@QEAA_NPEAVTFile@2@@Z)
        793  318 0001AD1B ?DeSerialize@TBOX@tesseract@@QEAA_N_NPEAU_iobuf@@@Z = @ILT+105750(?DeSerialize@TBOX@tesseract@@QEAA_N_NPEAU_iobuf@@@Z)
        794  319 000119E1 ?DeSerialize@TFile@tesseract@@QEAA_NAEAV?$basic_string@DU?$char_traits@D@std@@V?$allocator@D@2@@std@@@Z = @ILT+68060(?DeSerialize@TFile@tesseract@@QEAA_NAEAV?$basic_string@DU?$char_traits@D@std@@V?$allocator@D@2@@std@@@Z)
        795  31A 0000EF89 ?DeSerialize@TFile@tesseract@@QEAA_NAEAV?$vector@DV?$allocator@D@std@@@std@@@Z = @ILT+57220(?DeSerialize@TFile@tesseract@@QEAA_NAEAV?$vector@DV?$allocator@D@std@@@std@@@Z)
        796  31B 0000213A ?DeSerialize@TrainingSample@tesseract@@QEAA_N_NPEAU_iobuf@@@Z = @ILT+4405(?DeSerialize@TrainingSample@tesseract@@QEAA_N_NPEAU_iobuf@@@Z)
        797  31C 0001A078 ?DeSerialize@UnicharCompress@tesseract@@QEAA_NPEAVTFile@2@@Z = @ILT+102515(?DeSerialize@UnicharCompress@tesseract@@QEAA_NPEAVTFile@2@@Z)
        798  31D 000162A2 ?DeSerializeCreate@TrainingSample@tesseract@@SAPEAV12@_NPEAU_iobuf@@@Z = @ILT+86685(?DeSerializeCreate@TrainingSample@tesseract@@SAPEAV12@_NPEAU_iobuf@@@Z)
        799  31E 0001CEEA ?DeSerializeSize@TFile@tesseract@@QEAA_NPEAH@Z = @ILT+114405(?DeSerializeSize@TFile@tesseract@@QEAA_NPEAH@Z)
        800  31F 00014722 ?DeSerializeSkip@TFile@tesseract@@QEAA_N_K@Z = @ILT+79645(?DeSerializeSkip@TFile@tesseract@@QEAA_N_K@Z)
        801  320 0000E69C ?DeadEdge@Trie@tesseract@@QEBA_NAEB_K@Z = @ILT+54935(?DeadEdge@Trie@tesseract@@QEBA_NAEB_K@Z)
        802  321 00006794 ?DebugActivationPath@LSTMRecognizer@tesseract@@IEAAXAEBVNetworkIO@2@AEBV?$vector@HV?$allocator@H@std@@@std@@1@Z = @ILT+22415(?DebugActivationPath@LSTMRecognizer@tesseract@@IEAAXAEBVNetworkIO@2@AEBV?$vector@HV?$allocator@H@std@@@std@@1@Z)
        803  322 00010D5C ?DebugActivationRange@LSTMRecognizer@tesseract@@IEAAXAEBVNetworkIO@2@PEBDHHH@Z = @ILT+64855(?DebugActivationRange@LSTMRecognizer@tesseract@@IEAAXAEBVNetworkIO@2@PEBDHHH@Z)
        804  323 0001CF21 ?DebugAdaptiveClassifier@Classify@tesseract@@QEAAXPEAUTBLOB@2@PEAUADAPT_RESULTS@2@@Z = @ILT+114460(?DebugAdaptiveClassifier@Classify@tesseract@@QEAAXPEAUTBLOB@2@PEAUADAPT_RESULTS@2@@Z)
        805  324 000131EC ?DebugBeamPos@RecodeBeamSearch@tesseract@@AEBAXAEBVUNICHARSET@2@AEBV?$GenericHeap@U?$KDPairInc@NURecodeNode@tesseract@@@tesseract@@@2@@Z = @ILT+74215(?DebugBeamPos@RecodeBeamSearch@tesseract@@AEBAXAEBVUNICHARSET@2@AEBV?$GenericHeap@U?$KDPairInc@NURecodeNode@tesseract@@@tesseract@@@2@@Z)
        806  325 00014074 ?DebugBeams@RecodeBeamSearch@tesseract@@QEBAXAEBVUNICHARSET@2@@Z = @ILT+77935(?DebugBeams@RecodeBeamSearch@tesseract@@QEBAXAEBVUNICHARSET@2@@Z)
        807  326 0001C4CC ?DebugDisplay@ShapeClassifier@tesseract@@QEAAXAEBVTrainingSample@2@VImage@2@H@Z = @ILT+111815(?DebugDisplay@ShapeClassifier@tesseract@@QEAAXAEBVTrainingSample@2@VImage@2@H@Z)
        808  327 0001BFEF ?DebugPath@RecodeBeamSearch@tesseract@@AEBAXPEBVUNICHARSET@2@AEBV?$vector@PEBURecodeNode@tesseract@@V?$allocator@PEBURecodeNode@tesseract@@@std@@@std@@@Z = @ILT+110570(?DebugPath@RecodeBeamSearch@tesseract@@AEBAXPEBVUNICHARSET@2@AEBV?$vector@PEBURecodeNode@tesseract@@V?$allocator@PEBURecodeNode@tesseract@@@std@@@std@@@Z)
        809  328 0001B0E5 ?DebugStr@ShapeTable@tesseract@@QEBA?AV?$basic_string@DU?$char_traits@D@std@@V?$allocator@D@2@@std@@H@Z = @ILT+106720(?DebugStr@ShapeTable@tesseract@@QEBA?AV?$basic_string@DU?$char_traits@D@std@@V?$allocator@D@2@@std@@H@Z)
        810  329 0000E7F5 ?DebugTopChoice@WERD_RES@tesseract@@QEBAXPEBD@Z = @ILT+55280(?DebugTopChoice@WERD_RES@tesseract@@QEBAXPEBD@Z)
        811  32A 00017229 ?DebugUnicharPath@RecodeBeamSearch@tesseract@@AEBAXPEBVUNICHARSET@2@AEBV?$vector@PEBURecodeNode@tesseract@@V?$allocator@PEBURecodeNode@tesseract@@@std@@@std@@AEBV?$vector@HV?$allocator@H@std@@@5@AEBV?$vector@MV?$allocator@M@std@@@5@32@Z = @ILT+90660(?DebugUnicharPath@RecodeBeamSearch@tesseract@@AEBAXPEBVUNICHARSET@2@AEBV?$vector@PEBURecodeNode@tesseract@@V?$allocator@PEBURecodeNode@tesseract@@@std@@@std@@AEBV?$vector@HV?$allocator@H@std@@@5@AEBV?$vector@MV?$allocator@M@std@@@5@32@Z)
        812  32B 000061C7 ?DebugWordChoices@WERD_RES@tesseract@@QEAAX_NPEBD@Z = @ILT+20930(?DebugWordChoices@WERD_RES@tesseract@@QEAAX_NPEBD@Z)
        813  32C 0001D237 ?Decode@RecodeBeamSearch@tesseract@@QEAAXAEBV?$GENERIC_2D_ARRAY@M@2@NNNPEBVUNICHARSET@2@@Z = @ILT+115250(?Decode@RecodeBeamSearch@tesseract@@QEAAXAEBV?$GENERIC_2D_ARRAY@M@2@NNNPEBVUNICHARSET@2@@Z)
        814  32D 0001B301 ?Decode@RecodeBeamSearch@tesseract@@QEAAXAEBVNetworkIO@2@NNNPEBVUNICHARSET@2@H@Z = @ILT+107260(?Decode@RecodeBeamSearch@tesseract@@QEAAXAEBVNetworkIO@2@NNNPEBVUNICHARSET@2@H@Z)
        815  32E 00011D1A ?DecodeLabel@LSTMRecognizer@tesseract@@IEAAPEBDAEBV?$vector@HV?$allocator@H@std@@@std@@IPEAIPEAH@Z = @ILT+68885(?DecodeLabel@LSTMRecognizer@tesseract@@IEAAPEBDAEBV?$vector@HV?$allocator@H@std@@@std@@IPEAIPEAH@Z)
        816  32F 00015B9F ?DecodeLabels@LSTMRecognizer@tesseract@@QEAA?AV?$basic_string@DU?$char_traits@D@std@@V?$allocator@D@2@@std@@AEBV?$vector@HV?$allocator@H@std@@@4@@Z = @ILT+84890(?DecodeLabels@LSTMRecognizer@tesseract@@QEAA?AV?$basic_string@DU?$char_traits@D@std@@V?$allocator@D@2@@std@@AEBV?$vector@HV?$allocator@H@std@@@4@@Z)
        817  330 0000C39C ?DecodeSecondaryBeams@RecodeBeamSearch@tesseract@@QEAAXAEBVNetworkIO@2@NNNPEBVUNICHARSET@2@H@Z = @ILT+45975(?DecodeSecondaryBeams@RecodeBeamSearch@tesseract@@QEAAXAEBVNetworkIO@2@NNNPEBVUNICHARSET@2@H@Z)
        818  331 00003F3A ?DecodeSecondaryStep@RecodeBeamSearch@tesseract@@AEAAXPEBMHNNNPEBVUNICHARSET@2@_N@Z = @ILT+12085(?DecodeSecondaryStep@RecodeBeamSearch@tesseract@@AEAAXPEBMHNNNPEBVUNICHARSET@2@_N@Z)
        819  332 0000506A ?DecodeSingleLabel@LSTMRecognizer@tesseract@@IEAAPEBDH@Z = @ILT+16485(?DecodeSingleLabel@LSTMRecognizer@tesseract@@IEAAPEBDH@Z)
        820  333 00014D2B ?DecodeStep@RecodeBeamSearch@tesseract@@AEAAXPEBMHNNNPEBVUNICHARSET@2@_N@Z = @ILT+81190(?DecodeStep@RecodeBeamSearch@tesseract@@AEAAXPEBMHNNNPEBVUNICHARSET@2@_N@Z)
        821  334 0000FCDB ?DecodeUnichar@UnicharCompress@tesseract@@QEBAHAEBVRecodedCharID@2@@Z = @ILT+60630(?DecodeUnichar@UnicharCompress@tesseract@@QEBAHAEBVRecodedCharID@2@@Z)
        822  335 00011C93 ?DecomposeHangul@UnicharCompress@tesseract@@SA_NHPEAH00@Z = @ILT+68750(?DecomposeHangul@UnicharCompress@tesseract@@SA_NHPEAH00@Z)
        823  336 000167BB ?DefragmentCodeValues@UnicharCompress@tesseract@@AEAAXH@Z = @ILT+87990(?DefragmentCodeValues@UnicharCompress@tesseract@@AEAAXH@Z)
        824  337 000070A4 ?DeleteBoxes@ColPartition@tesseract@@QEAAXXZ = @ILT+24735(?DeleteBoxes@ColPartition@tesseract@@QEAAXXZ)
        825  338 00007036 ?DeleteCurrentWord@PAGE_RES_IT@tesseract@@QEAAXXZ = @ILT+24625(?DeleteCurrentWord@PAGE_RES_IT@tesseract@@QEAAXXZ)
        826  339 0001AB45 ?DeleteNonLeaderParts@ColPartitionGrid@tesseract@@QEAAXXZ = @ILT+105280(?DeleteNonLeaderParts@ColPartitionGrid@tesseract@@QEAAXXZ)
        827  33A 00004B42 ?DeleteParts@ColPartitionGrid@tesseract@@QEAAXXZ = @ILT+15165(?DeleteParts@ColPartitionGrid@tesseract@@QEAAXXZ)
        828  33B 00012FD5 ?DeleteShape@ShapeTable@tesseract@@QEAAXH@Z = @ILT+73680(?DeleteShape@ShapeTable@tesseract@@QEAAXH@Z)
        829  33C 00004660 ?DeleteSingleColumnTables@TableFinder@tesseract@@IEAAXXZ = @ILT+13915(?DeleteSingleColumnTables@TableFinder@tesseract@@IEAAXXZ)
        830  33D 0000263A ?DeleteUnknownParts@ColPartitionGrid@tesseract@@QEAAXPEAVTO_BLOCK@2@@Z = @ILT+5685(?DeleteUnknownParts@ColPartitionGrid@tesseract@@QEAAXPEAVTO_BLOCK@2@@Z)
        831  33E 00019B5A ?DeleteUnownedNoise@TO_BLOCK@tesseract@@QEAAXXZ = @ILT+101205(?DeleteUnownedNoise@TO_BLOCK@tesseract@@QEAAXXZ)
        832  33F 000102D0 ?DenormTransform@DENORM@tesseract@@QEBAXPEBV12@AEBUTPOINT@2@PEAU32@@Z = @ILT+62155(?DenormTransform@DENORM@tesseract@@QEBAXPEBV12@AEBUTPOINT@2@PEAU32@@Z)
        833  340 000016B8 ?DenormTransform@DENORM@tesseract@@QEBAXPEBV12@AEBVFCOORD@2@PEAV32@@Z = @ILT+1715(?DenormTransform@DENORM@tesseract@@QEBAXPEBV12@AEBVFCOORD@2@PEAV32@@Z)
        834  341 000173D7 ?Deskew@ColPartitionGrid@tesseract@@QEAAXAEBVFCOORD@2@@Z = @ILT+91090(?Deskew@ColPartitionGrid@tesseract@@QEAAXAEBVFCOORD@2@@Z)
        835  342 0001BD24 ?Deskew@TabFind@tesseract@@AEAA_NPEAVTabVector_LIST@2@PEAVBLOBNBOX_LIST@2@PEAVTO_BLOCK@2@PEAVFCOORD@2@3@Z = @ILT+109855(?Deskew@TabFind@tesseract@@AEAA_NPEAVTabVector_LIST@2@PEAVBLOBNBOX_LIST@2@PEAVTO_BLOCK@2@PEAVFCOORD@2@3@Z)
        836  343 0000AEAC ?DetectOS@TessBaseAPI@tesseract@@QEAA_NPEAUOSResults@2@@Z = @ILT+40615(?DetectOS@TessBaseAPI@tesseract@@QEAA_NPEAUOSResults@2@@Z)
        837  344 00006CDF ?DetectOrientationScript@TessBaseAPI@tesseract@@QEAA_NPEAHPEAMPEAPEBD1@Z = @ILT+23770(?DetectOrientationScript@TessBaseAPI@tesseract@@QEAA_NPEAHPEAMPEAPEBD1@Z)
        838  345 00007973 ?DetectParagraphs@TessBaseAPI@tesseract@@IEAAX_N@Z = @ILT+26990(?DetectParagraphs@TessBaseAPI@tesseract@@IEAAX_N@Z)
        839  346 00019B8C ?DetectParagraphs@tesseract@@YAXHPEAV?$vector@VRowInfo@tesseract@@V?$allocator@VRowInfo@tesseract@@@std@@@std@@PEAV?$vector@PEAUPARA@tesseract@@V?$allocator@PEAUPARA@tesseract@@@std@@@3@PEAVPARA_LIST@1@PEAV?$vector@PEAVParagraphModel@tesseract@@V?$allocator@PEAVParagraphModel@tesseract@@@std@@@3@@Z = @ILT+101255(?DetectParagraphs@tesseract@@YAXHPEAV?$vector@VRowInfo@tesseract@@V?$allocator@VRowInfo@tesseract@@@std@@@std@@PEAV?$vector@PEAUPARA@tesseract@@V?$allocator@PEAUPARA@tesseract@@@std@@@3@PEAVPARA_LIST@1@PEAV?$vector@PEAVParagraphModel@tesseract@@V?$allocator@PEAVParagraphModel@tesseract@@@std@@@3@@Z)
        840  347 00019FE2 ?DetectParagraphs@tesseract@@YAXH_NPEBVMutableIterator@1@PEAV?$vector@PEAVParagraphModel@tesseract@@V?$allocator@PEAVParagraphModel@tesseract@@@std@@@std@@@Z = @ILT+102365(?DetectParagraphs@tesseract@@YAXH_NPEBVMutableIterator@1@PEAV?$vector@PEAVParagraphModel@tesseract@@V?$allocator@PEAVParagraphModel@tesseract@@@std@@@std@@@Z)
        841  348 00003855 ?DifferentSizes@TabFind@tesseract@@SA_NHH@Z = @ILT+10320(?DifferentSizes@TabFind@tesseract@@SA_NHH@Z)
        842  349 0000CF9A ?Directory@TessdataManager@tesseract@@QEBAXXZ = @ILT+49045(?Directory@TessdataManager@tesseract@@QEBAXXZ)
        843  34A 00019B82 ?DisownBoxes@ColPartition@tesseract@@QEAAXXZ = @ILT+101245(?DisownBoxes@ColPartition@tesseract@@QEAAXXZ)
        844  34B 0000E377 ?DisownBoxesNoAssert@ColPartition@tesseract@@QEAAXXZ = @ILT+54130(?DisownBoxesNoAssert@ColPartition@tesseract@@QEAAXXZ)
        845  34C 00005FDD ?Display@ImageData@tesseract@@QEBAXXZ = @ILT+20440(?Display@ImageData@tesseract@@QEBAXXZ)
        846  34D 00015AAF ?Display@StructuredTable@tesseract@@QEAAXPEAVScrollView@2@W4Color@32@@Z = @ILT+84650(?Display@StructuredTable@tesseract@@QEAAXPEAVScrollView@2@W4Color@32@@Z)
        847  34E 0000BAFF ?DisplayAdaptedChar@Classify@tesseract@@QEAAXPEAUTBLOB@2@PEAUINT_CLASS_STRUCT@2@@Z = @ILT+43770(?DisplayAdaptedChar@Classify@tesseract@@QEAAXPEAUTBLOB@2@PEAUINT_CLASS_STRUCT@2@@Z)
        848  34F 0000A457 ?DisplayBackward@Network@tesseract@@QEAAXAEBVNetworkIO@2@@Z = @ILT+37970(?DisplayBackward@Network@tesseract@@QEAAXAEBVNetworkIO@2@@Z)
        849  350 0001B568 ?DisplayBlocks@ColumnFinder@tesseract@@AEAAXPEAVBLOCK_LIST@2@@Z = @ILT+107875(?DisplayBlocks@ColumnFinder@tesseract@@AEAAXPEAVBLOCK_LIST@2@@Z)
        850  351 0000DC97 ?DisplayBoxes@?$BBGrid@VBLOBNBOX@tesseract@@VBLOBNBOX_CLIST@2@VBLOBNBOX_C_IT@2@@tesseract@@QEAAXPEAVScrollView@2@@Z = @ILT+52370(?DisplayBoxes@?$BBGrid@VBLOBNBOX@tesseract@@VBLOBNBOX_CLIST@2@VBLOBNBOX_C_IT@2@@tesseract@@QEAAXPEAVScrollView@2@@Z)
        851  352 00010492 ?DisplayBoxes@?$BBGrid@VColPartition@tesseract@@VColPartition_CLIST@2@VColPartition_C_IT@2@@tesseract@@QEAAXPEAVScrollView@2@@Z = @ILT+62605(?DisplayBoxes@?$BBGrid@VColPartition@tesseract@@VColPartition_CLIST@2@VColPartition_C_IT@2@@tesseract@@QEAAXPEAVScrollView@2@@Z)
        852  353 0000FC1D ?DisplayClassifyAs@ShapeClassifier@tesseract@@UEAAHAEBVTrainingSample@2@VImage@2@HHAEAV?$vector@PEAVScrollView@tesseract@@V?$allocator@PEAVScrollView@tesseract@@@std@@@std@@@Z = @ILT+60440(?DisplayClassifyAs@ShapeClassifier@tesseract@@UEAAHAEBVTrainingSample@2@VImage@2@HHAEAV?$vector@PEAVScrollView@tesseract@@V?$allocator@PEAVScrollView@tesseract@@@std@@@std@@@Z)
        853  354 0000F998 ?DisplayClassifyAs@TessClassifier@tesseract@@UEAAHAEBVTrainingSample@2@VImage@2@HHAEAV?$vector@PEAVScrollView@tesseract@@V?$allocator@PEAVScrollView@tesseract@@@std@@@std@@@Z = @ILT+59795(?DisplayClassifyAs@TessClassifier@tesseract@@UEAAHAEBVTrainingSample@2@VImage@2@HHAEAV?$vector@PEAVScrollView@tesseract@@V?$allocator@PEAVScrollView@tesseract@@@std@@@std@@@Z)
        854  355 00008C2E ?DisplayColPartitionConnections@TableFinder@tesseract@@IEAAXPEAVScrollView@2@PEAVColPartitionGrid@2@W4Color@32@@Z = @ILT+31785(?DisplayColPartitionConnections@TableFinder@tesseract@@IEAAXPEAVScrollView@2@PEAVColPartitionGrid@2@W4Color@32@@Z)
        855  356 00019E20 ?DisplayColPartitions@TableFinder@tesseract@@IEAAXPEAVScrollView@2@PEAVColPartitionGrid@2@W4Color@32@2@Z = @ILT+101915(?DisplayColPartitions@TableFinder@tesseract@@IEAAXPEAVScrollView@2@PEAVColPartitionGrid@2@W4Color@32@2@Z)
        856  357 00013746 ?DisplayColPartitions@TableFinder@tesseract@@IEAAXPEAVScrollView@2@PEAVColPartitionGrid@2@W4Color@32@@Z = @ILT+75585(?DisplayColPartitions@TableFinder@tesseract@@IEAAXPEAVScrollView@2@PEAVColPartitionGrid@2@W4Color@32@@Z)
        857  358 0000D7AB ?DisplayColSegments@TableFinder@tesseract@@IEAAXPEAVScrollView@2@PEAVColSegment_LIST@2@W4Color@32@@Z = @ILT+51110(?DisplayColSegments@TableFinder@tesseract@@IEAAXPEAVScrollView@2@PEAVColSegment_LIST@2@W4Color@32@@Z)
        858  359 0001C73D ?DisplayColumnBounds@ColumnFinder@tesseract@@AEAAXPEAV?$vector@PEAVColPartitionSet@tesseract@@V?$allocator@PEAVColPartitionSet@tesseract@@@std@@@std@@@Z = @ILT+112440(?DisplayColumnBounds@ColumnFinder@tesseract@@AEAAXPEAV?$vector@PEAVColPartitionSet@tesseract@@V?$allocator@PEAVColPartitionSet@tesseract@@@std@@@std@@@Z)
        859  35A 0001C2E7 ?DisplayFeatures@TrainingSample@tesseract@@QEBAXW4Color@ScrollView@2@PEAV42@@Z = @ILT+111330(?DisplayFeatures@TrainingSample@tesseract@@QEBAXW4Color@ScrollView@2@PEAV42@@Z)
        860  35B 0000F3D0 ?DisplayForward@LSTMRecognizer@tesseract@@QEAAXAEBVNetworkIO@2@AEBV?$vector@HV?$allocator@H@std@@@std@@1PEBDPEAPEAVScrollView@2@@Z = @ILT+58315(?DisplayForward@LSTMRecognizer@tesseract@@QEAAXAEBVNetworkIO@2@AEBV?$vector@HV?$allocator@H@std@@@std@@1PEBDPEAPEAVScrollView@2@@Z)
        861  35C 00011E05 ?DisplayForward@Network@tesseract@@QEAAXAEBVNetworkIO@2@@Z = @ILT+69120(?DisplayForward@Network@tesseract@@QEAAXAEBVNetworkIO@2@@Z)
        862  35D 00001A05 ?DisplayImage@Network@tesseract@@SAHVImage@2@PEAVScrollView@2@@Z = @ILT+2560(?DisplayImage@Network@tesseract@@SAHVImage@2@PEAVScrollView@2@@Z)
        863  35E 0000E14C ?DisplayLSTMOutput@LSTMRecognizer@tesseract@@IEAAXAEBV?$vector@HV?$allocator@H@std@@@std@@0HPEAVScrollView@2@@Z = @ILT+53575(?DisplayLSTMOutput@LSTMRecognizer@tesseract@@IEAAXAEBV?$vector@HV?$allocator@H@std@@@std@@0HPEAVScrollView@2@@Z)
        864  35F 0000E395 ?DisplayProjection@TextlineProjection@tesseract@@QEBAXXZ = @ILT+54160(?DisplayProjection@TextlineProjection@tesseract@@QEBAXXZ)
        865  360 0000156E ?DisplaySegmentation@WERD_CHOICE@tesseract@@QEAAXPEAUTWERD@2@@Z = @ILT+1385(?DisplaySegmentation@WERD_CHOICE@tesseract@@QEAAXPEAUTWERD@2@@Z)
        866  361 0001939E ?DisplayTabVectors@TabFind@tesseract@@IEAAPEAVScrollView@2@PEAV32@@Z = @ILT+99225(?DisplayTabVectors@TabFind@tesseract@@IEAAPEAVScrollView@2@PEAV32@@Z)
        867  362 0001C413 ?DisplayTabs@AlignedBlob@tesseract@@QEAAPEAVScrollView@2@PEBDPEAV32@@Z = @ILT+111630(?DisplayTabs@AlignedBlob@tesseract@@QEAAPEAVScrollView@2@PEBDPEAV32@@Z)
        868  363 0000977D ?DistanceOfBoxFromBox@TextlineProjection@tesseract@@QEBAHAEBVTBOX@2@0_NPEBVDENORM@2@1@Z = @ILT+34680(?DistanceOfBoxFromBox@TextlineProjection@tesseract@@QEBAHAEBVTBOX@2@0_NPEBVDENORM@2@1@Z)
        869  364 00018093 ?DistanceOfBoxFromPartition@TextlineProjection@tesseract@@QEBAHAEBVTBOX@2@AEBVColPartition@2@PEBVDENORM@2@_N@Z = @ILT+94350(?DistanceOfBoxFromPartition@TextlineProjection@tesseract@@QEBAHAEBVTBOX@2@AEBVColPartition@2@PEBVDENORM@2@_N@Z)
        870  365 00008E54 ?DoAdaptiveMatch@Classify@tesseract@@QEAAXPEAUTBLOB@2@PEAUADAPT_RESULTS@2@@Z = @ILT+32335(?DoAdaptiveMatch@Classify@tesseract@@QEAAXPEAUTBLOB@2@PEAUADAPT_RESULTS@2@@Z)
        871  366 00011365 ?DoSegSearch@Wordrec@tesseract@@QEAAXPEAVWERD_RES@2@@Z = @ILT+66400(?DoSegSearch@Wordrec@tesseract@@QEAAXPEAVWERD_RES@2@@Z)
        872  367 0001A7CB ?DoesPartitionFit@StructuredTable@tesseract@@QEBA_NAEBVColPartition@2@@Z = @ILT+104390(?DoesPartitionFit@StructuredTable@tesseract@@QEBA_NAEBVColPartition@2@@Z)
        873  368 000073D3 ?DontFindTabVectors@TabFind@tesseract@@IEAAXPEAVBLOBNBOX_LIST@2@PEAVTO_BLOCK@2@PEAVFCOORD@2@2@Z = @ILT+25550(?DontFindTabVectors@TabFind@tesseract@@IEAAXPEAVBLOBNBOX_LIST@2@PEAVTO_BLOCK@2@PEAVFCOORD@2@2@Z)
        874  369 00001131 ?Draw@ScrollView@tesseract@@QEAAXPEBDHH@Z = @ILT+300(?Draw@ScrollView@tesseract@@QEAAXPEBDHH@Z)
        875  36A 00012887 ?Draw@ScrollView@tesseract@@QEAAXVImage@2@HH@Z = @ILT+71810(?Draw@ScrollView@tesseract@@QEAAXVImage@2@HH@Z)
        876  36B 0000501A ?DrawTo@ScrollView@tesseract@@QEAAXHH@Z = @ILT+16405(?DrawTo@ScrollView@tesseract@@QEAAXHH@Z)
        877  36C 00004110 ?Ellipse@ScrollView@tesseract@@QEAAXHHHH@Z = @ILT+12555(?Ellipse@ScrollView@tesseract@@QEAAXHHHH@Z)
        878  36D 0000AA60 ?Empty@PageIterator@tesseract@@QEBA_NW4PageIteratorLevel@2@@Z = @ILT+39515(?Empty@PageIterator@tesseract@@QEBA_NW4PageIteratorLevel@2@@Z)
        879  36E 00003945 ?EmptyTempPartList@ColumnFinder@tesseract@@AEAAXPEAVColPartition_CLIST@2@PEAVWorkingPartSet_LIST@2@@Z = @ILT+10560(?EmptyTempPartList@ColumnFinder@tesseract@@AEAAXPEAVColPartition_CLIST@2@PEAVWorkingPartSet_LIST@2@@Z)
        880  36F 00014BFF ?EncodeUnichar@UnicharCompress@tesseract@@QEBAHHPEAVRecodedCharID@2@@Z = @ILT+80890(?EncodeUnichar@UnicharCompress@tesseract@@QEBAHHPEAVRecodedCharID@2@@Z)
        881  370 0000A16E ?End@Dict@tesseract@@QEAAXXZ = @ILT+37225(?End@Dict@tesseract@@QEAAXXZ)
        882  371 00012981 ?End@TessBaseAPI@tesseract@@QEAAXXZ = @ILT+72060(?End@TessBaseAPI@tesseract@@QEAAXXZ)
        883  372 00013AA2 ?EndAdaptiveClassifier@Classify@tesseract@@QEAAXXZ = @ILT+76445(?EndAdaptiveClassifier@Classify@tesseract@@QEAAXXZ)
        884  373 0001AB04 ?EndDangerousAmbigs@Dict@tesseract@@QEAAXXZ = @ILT+105215(?EndDangerousAmbigs@Dict@tesseract@@QEAAXXZ)
        885  374 0000FEE3 ?EndDocument@TessResultRenderer@tesseract@@QEAA_NXZ = @ILT+61150(?EndDocument@TessResultRenderer@tesseract@@QEAA_NXZ)
        886  375 000185B6 ?EndDocumentHandler@TessAltoRenderer@tesseract@@MEAA_NXZ = @ILT+95665(?EndDocumentHandler@TessAltoRenderer@tesseract@@MEAA_NXZ)
        887  376 00001A9B ?EndDocumentHandler@TessHOcrRenderer@tesseract@@MEAA_NXZ = @ILT+2710(?EndDocumentHandler@TessHOcrRenderer@tesseract@@MEAA_NXZ)
        888  377 0001B13A ?EndDocumentHandler@TessPDFRenderer@tesseract@@MEAA_NXZ = @ILT+106805(?EndDocumentHandler@TessPDFRenderer@tesseract@@MEAA_NXZ)
        889  378 00012346 ?EndDocumentHandler@TessResultRenderer@tesseract@@MEAA_NXZ = @ILT+70465(?EndDocumentHandler@TessResultRenderer@tesseract@@MEAA_NXZ)
        890  379 00014DE9 ?EndDocumentHandler@TessTsvRenderer@tesseract@@MEAA_NXZ = @ILT+81380(?EndDocumentHandler@TessTsvRenderer@tesseract@@MEAA_NXZ)
        891  37A 00015410 ?EnsureBestLabel@NetworkIO@tesseract@@QEAAXHH@Z = @ILT+82955(?EnsureBestLabel@NetworkIO@tesseract@@QEAAXHH@Z)
        892  37B 000114FF ?EnumerateLayers@LSTMRecognizer@tesseract@@QEBA?AV?$vector@V?$basic_string@DU?$char_traits@D@std@@V?$allocator@D@2@@std@@V?$allocator@V?$basic_string@DU?$char_traits@D@std@@V?$allocator@D@2@@std@@@2@@std@@XZ = @ILT+66810(?EnumerateLayers@LSTMRecognizer@tesseract@@QEBA?AV?$vector@V?$basic_string@DU?$char_traits@D@std@@V?$allocator@D@2@@std@@V?$allocator@V?$basic_string@DU?$char_traits@D@std@@V?$allocator@D@2@@std@@@2@@std@@XZ)
        893  37C 00004741 ?EnumerateLayers@Plumbing@tesseract@@QEBAXPEBV?$basic_string@DU?$char_traits@D@std@@V?$allocator@D@2@@std@@AEAV?$vector@V?$basic_string@DU?$char_traits@D@std@@V?$allocator@D@2@@std@@V?$allocator@V?$basic_string@DU?$char_traits@D@std@@V?$allocator@D@2@@std@@@2@@4@@Z = @ILT+14140(?EnumerateLayers@Plumbing@tesseract@@QEBAXPEBV?$basic_string@DU?$char_traits@D@std@@V?$allocator@D@2@@std@@AEAV?$vector@V?$basic_string@DU?$char_traits@D@std@@V?$allocator@D@2@@std@@V?$allocator@V?$basic_string@DU?$char_traits@D@std@@V?$allocator@D@2@@std@@@2@@4@@Z)
        894  37D 00001825 ?EqualUnichars@ShapeTable@tesseract@@QEBA_NHH@Z = @ILT+2080(?EqualUnichars@ShapeTable@tesseract@@QEBA_NHH@Z)
        895  37E 00017553 ?Equivalent@ParamsModel@tesseract@@QEBA_NAEBV12@@Z = @ILT+91470(?Equivalent@ParamsModel@tesseract@@QEBA_NAEBV12@@Z)
        896  37F 000107AD ?EquivalentToTruth@LTRResultIterator@tesseract@@QEBA_NPEBD@Z = @ILT+63400(?EquivalentToTruth@LTRResultIterator@tesseract@@QEBA_NPEBD@Z)
        897  380 00007FEA ?EstimateBaselinePosition@C_BLOB@tesseract@@QEAAFXZ = @ILT+28645(?EstimateBaselinePosition@C_BLOB@tesseract@@QEAAFXZ)
        898  381 00010D3E ?EstimateTextPartLineSpacing@EquationDetect@tesseract@@IEAAHXZ = @ILT+64825(?EstimateTextPartLineSpacing@EquationDetect@tesseract@@IEAAHXZ)
        899  382 00004A61 ?EstimateTypeForUnichar@EquationDetect@tesseract@@IEBA?AW4BlobSpecialTextType@2@AEBVUNICHARSET@2@H@Z = @ILT+14940(?EstimateTypeForUnichar@EquationDetect@tesseract@@IEBA?AW4BlobSpecialTextType@2@AEBVUNICHARSET@2@H@Z)
        900  383 00003CD3 ?EvaluateBox@TextlineProjection@tesseract@@QEBAHAEBVTBOX@2@PEBVDENORM@2@_N@Z = @ILT+11470(?EvaluateBox@TextlineProjection@tesseract@@QEBAHAEBVTBOX@2@PEBVDENORM@2@_N@Z)
        901  384 0000541B ?EvaluateBoxInternal@TextlineProjection@tesseract@@AEBAHAEBVTBOX@2@PEBVDENORM@2@_NPEAH333@Z = @ILT+17430(?EvaluateBoxInternal@TextlineProjection@tesseract@@AEBAHAEBVTBOX@2@PEBVDENORM@2@_NPEAH333@Z)
        902  385 0000AE89 ?EvaluateColPartition@TextlineProjection@tesseract@@QEBAHAEBVColPartition@2@PEBVDENORM@2@_N@Z = @ILT+40580(?EvaluateColPartition@TextlineProjection@tesseract@@QEBAHAEBVColPartition@2@PEBVDENORM@2@_N@Z)
        903  386 000013AC ?EvaluateTabs@TabFind@tesseract@@AEAAXXZ = @ILT+935(?EvaluateTabs@TabFind@tesseract@@AEAAXXZ)
        904  387 0000A385 ?Exit@ScrollView@tesseract@@SAXXZ = @ILT+37760(?Exit@ScrollView@tesseract@@SAXXZ)
        905  388 00010456 ?ExpandRangesFrom@UNICHAR_PROPERTIES@UNICHARSET@tesseract@@QEAAXAEBU123@@Z = @ILT+62545(?ExpandRangesFrom@UNICHAR_PROPERTIES@UNICHARSET@tesseract@@QEAAXAEBU123@@Z)
        906  389 0000A84E ?ExpandRangesFromOther@UNICHARSET@tesseract@@QEAAXAEBV12@@Z = @ILT+38985(?ExpandRangesFromOther@UNICHARSET@tesseract@@QEAAXAEBV12@@Z)
        907  38A 0000EBFB ?ExpandSeed@EquationDetect@tesseract@@IEAA_NPEAVColPartition@2@@Z = @ILT+56310(?ExpandSeed@EquationDetect@tesseract@@IEAA_NPEAVColPartition@2@@Z)
        908  38B 0000E02F ?ExpandSeedHorizontal@EquationDetect@tesseract@@IEAAX_NPEAVColPartition@2@PEAV?$vector@PEAVColPartition@tesseract@@V?$allocator@PEAVColPartition@tesseract@@@std@@@std@@@Z = @ILT+53290(?ExpandSeedHorizontal@EquationDetect@tesseract@@IEAAX_NPEAVColPartition@2@PEAV?$vector@PEAVColPartition@tesseract@@V?$allocator@PEAVColPartition@tesseract@@@std@@@std@@@Z)
        909  38C 00003166 ?ExpandSeedVertical@EquationDetect@tesseract@@IEAAX_NPEAVColPartition@2@PEAV?$vector@PEAVColPartition@tesseract@@V?$allocator@PEAVColPartition@tesseract@@@std@@@std@@@Z = @ILT+8545(?ExpandSeedVertical@EquationDetect@tesseract@@IEAAX_NPEAVColPartition@2@PEAV?$vector@PEAVColPartition@tesseract@@V?$allocator@PEAVColPartition@tesseract@@@std@@@std@@@Z)
        910  38D 00017201 ?ExpandShapesAndApplyCorrections@Classify@tesseract@@QEAAXPEAPEAUADAPT_CLASS_STRUCT@2@_NHHHMHHPEBEPEAUUnicharRating@2@PEAUADAPT_RESULTS@2@@Z = @ILT+90620(?ExpandShapesAndApplyCorrections@Classify@tesseract@@QEAAXPEAPEAUADAPT_CLASS_STRUCT@2@_NHHHMHHPEBEPEAUUnicharRating@2@PEAUADAPT_RESULTS@2@@Z)
        911  38E 0001B35B ?ExtendRangePastSmallGaps@ColumnFinder@tesseract@@AEAAXPEAPEAHPEBHPEB_NHHHPEAH@Z = @ILT+107350(?ExtendRangePastSmallGaps@ColumnFinder@tesseract@@AEAAXPEAPEAHPEBHPEB_NHHHPEAH@Z)
        912  38F 00007D1F ?ExtractBestPathAsLabels@RecodeBeamSearch@tesseract@@QEBAXPEAV?$vector@HV?$allocator@H@std@@@std@@0@Z = @ILT+27930(?ExtractBestPathAsLabels@RecodeBeamSearch@tesseract@@QEBAXPEAV?$vector@HV?$allocator@H@std@@@std@@0@Z)
        913  390 0000972D ?ExtractBestPathAsUnicharIds@RecodeBeamSearch@tesseract@@QEBAX_NPEBVUNICHARSET@2@PEAV?$vector@HV?$allocator@H@std@@@std@@PEAV?$vector@MV?$allocator@M@std@@@5@32@Z = @ILT+34600(?ExtractBestPathAsUnicharIds@RecodeBeamSearch@tesseract@@QEBAX_NPEBVUNICHARSET@2@PEAV?$vector@HV?$allocator@H@std@@@std@@PEAV?$vector@MV?$allocator@M@std@@@5@32@Z)
        914  391 0001CD00 ?ExtractBestPathAsWords@RecodeBeamSearch@tesseract@@QEAAXAEBVTBOX@2@M_NPEBVUNICHARSET@2@PEAV?$PointerVector@VWERD_RES@tesseract@@@2@H@Z = @ILT+113915(?ExtractBestPathAsWords@RecodeBeamSearch@tesseract@@QEAAXAEBVTBOX@2@M_NPEBVUNICHARSET@2@PEAV?$PointerVector@VWERD_RES@tesseract@@@2@H@Z)
        915  392 000076EE ?ExtractBestPaths@RecodeBeamSearch@tesseract@@AEBAXPEAV?$vector@PEBURecodeNode@tesseract@@V?$allocator@PEBURecodeNode@tesseract@@@std@@@std@@0@Z = @ILT+26345(?ExtractBestPaths@RecodeBeamSearch@tesseract@@AEBAXPEAV?$vector@PEBURecodeNode@tesseract@@V?$allocator@PEBURecodeNode@tesseract@@@std@@@std@@0@Z)
        916  393 00006C8F ?ExtractCharDesc@TrainingSample@tesseract@@QEAAXHHHHPEAUCHAR_DESC_STRUCT@2@@Z = @ILT+23690(?ExtractCharDesc@TrainingSample@tesseract@@QEAAXHHHHPEAUCHAR_DESC_STRUCT@2@@Z)
        917  394 00002B3F ?ExtractFeatures@Classify@tesseract@@SAXAEBUTBLOB@2@_NPEAV?$vector@UINT_FEATURE_STRUCT@tesseract@@V?$allocator@UINT_FEATURE_STRUCT@tesseract@@@std@@@std@@2PEAUINT_FX_RESULT_STRUCT@2@PEAV?$vector@HV?$allocator@H@std@@@5@@Z = @ILT+6970(?ExtractFeatures@Classify@tesseract@@SAXAEBUTBLOB@2@_NPEAV?$vector@UINT_FEATURE_STRUCT@tesseract@@V?$allocator@UINT_FEATURE_STRUCT@tesseract@@@std@@@std@@2PEAUINT_FX_RESULT_STRUCT@2@PEAV?$vector@HV?$allocator@H@std@@@5@@Z)
        918  395 000074BE ?ExtractIntCNFeatures@Classify@tesseract@@QEAAPEAUFEATURE_SET_STRUCT@2@AEBUTBLOB@2@AEBUINT_FX_RESULT_STRUCT@2@@Z = @ILT+25785(?ExtractIntCNFeatures@Classify@tesseract@@QEAAPEAUFEATURE_SET_STRUCT@2@AEBUTBLOB@2@AEBUINT_FX_RESULT_STRUCT@2@@Z)
        919  396 00019E34 ?ExtractIntGeoFeatures@Classify@tesseract@@QEAAPEAUFEATURE_SET_STRUCT@2@AEBUTBLOB@2@AEBUINT_FX_RESULT_STRUCT@2@@Z = @ILT+101935(?ExtractIntGeoFeatures@Classify@tesseract@@QEAAPEAUFEATURE_SET_STRUCT@2@AEBUTBLOB@2@AEBUINT_FX_RESULT_STRUCT@2@@Z)
        920  397 0001446B ?ExtractOutlineFeatures@Classify@tesseract@@QEAAPEAUFEATURE_SET_STRUCT@2@PEAUTBLOB@2@@Z = @ILT+78950(?ExtractOutlineFeatures@Classify@tesseract@@QEAAPEAUFEATURE_SET_STRUCT@2@PEAUTBLOB@2@@Z)
        921  398 00011612 ?ExtractPartitionsAsBlocks@ColPartitionGrid@tesseract@@QEAAXPEAVBLOCK_LIST@2@PEAVTO_BLOCK_LIST@2@@Z = @ILT+67085(?ExtractPartitionsAsBlocks@ColPartitionGrid@tesseract@@QEAAXPEAVBLOCK_LIST@2@PEAVTO_BLOCK_LIST@2@@Z)
        922  399 00009C23 ?ExtractPath@RecodeBeamSearch@tesseract@@AEBAXPEBURecodeNode@2@PEAV?$vector@PEBURecodeNode@tesseract@@V?$allocator@PEBURecodeNode@tesseract@@@std@@@std@@@Z = @ILT+35870(?ExtractPath@RecodeBeamSearch@tesseract@@AEBAXPEBURecodeNode@2@PEAV?$vector@PEBURecodeNode@tesseract@@V?$allocator@PEBURecodeNode@tesseract@@@std@@@std@@@Z)
        923  39A 000105F0 ?ExtractPath@RecodeBeamSearch@tesseract@@AEBAXPEBURecodeNode@2@PEAV?$vector@PEBURecodeNode@tesseract@@V?$allocator@PEBURecodeNode@tesseract@@@std@@@std@@H@Z = @ILT+62955(?ExtractPath@RecodeBeamSearch@tesseract@@AEBAXPEBURecodeNode@2@PEAV?$vector@PEBURecodeNode@tesseract@@V?$allocator@PEBURecodeNode@tesseract@@@std@@@std@@H@Z)
        924  39B 00018494 ?ExtractPathAsUnicharIds@RecodeBeamSearch@tesseract@@CAXAEBV?$vector@PEBURecodeNode@tesseract@@V?$allocator@PEBURecodeNode@tesseract@@@std@@@std@@PEAV?$vector@HV?$allocator@H@std@@@4@PEAV?$vector@MV?$allocator@M@std@@@4@211@Z = @ILT+95375(?ExtractPathAsUnicharIds@RecodeBeamSearch@tesseract@@CAXAEBV?$vector@PEBURecodeNode@tesseract@@V?$allocator@PEBURecodeNode@tesseract@@@std@@@std@@PEAV?$vector@HV?$allocator@H@std@@@4@PEAV?$vector@MV?$allocator@M@std@@@4@211@Z)
        925  39C 0000A05B ?ExtractPicoFeatures@Classify@tesseract@@QEAAPEAUFEATURE_SET_STRUCT@2@PEAUTBLOB@2@@Z = @ILT+36950(?ExtractPicoFeatures@Classify@tesseract@@QEAAPEAUFEATURE_SET_STRUCT@2@PEAUTBLOB@2@@Z)
        926  39D 0000DCFB ?ExtractToFile@TessdataManager@tesseract@@QEAA_NPEBD@Z = @ILT+52470(?ExtractToFile@TessdataManager@tesseract@@QEAA_NPEBD@Z)
        927  39E 0000571D ?FGets@TFile@tesseract@@QEAAPEADPEADH@Z = @ILT+18200(?FGets@TFile@tesseract@@QEAAPEADPEADH@Z)
        928  39F 0001B1C6 ?FRead@TFile@tesseract@@QEAAHPEAX_KH@Z = @ILT+106945(?FRead@TFile@tesseract@@QEAAHPEAX_KH@Z)
        929  3A0 00002E5A ?FReadEndian@TFile@tesseract@@QEAAHPEAX_KH@Z = @ILT+7765(?FReadEndian@TFile@tesseract@@QEAAHPEAX_KH@Z)
        930  3A1 00016BCB ?FWrite@TFile@tesseract@@QEAAHPEBX_KH@Z = @ILT+89030(?FWrite@TFile@tesseract@@QEAAHPEBX_KH@Z)
        931  3A2 0001885E ?FakeBlob@C_BLOB@tesseract@@SAPEAV12@AEBVTBOX@2@@Z = @ILT+96345(?FakeBlob@C_BLOB@tesseract@@SAPEAV12@AEBVTBOX@2@@Z)
        932  3A3 00012B61 ?FakeClassifyWord@WERD_RES@tesseract@@QEAAXHPEAPEAVBLOB_CHOICE@2@@Z = @ILT+72540(?FakeClassifyWord@WERD_RES@tesseract@@QEAAXHPEAPEAVBLOB_CHOICE@2@@Z)
        933  3A4 00002649 ?FakePartition@ColPartition@tesseract@@SAPEAV12@AEBVTBOX@2@W4PolyBlockType@2@W4BlobRegionType@2@W4BlobTextFlowType@2@@Z = @ILT+5700(?FakePartition@ColPartition@tesseract@@SAPEAV12@AEBVTBOX@2@W4PolyBlockType@2@W4BlobRegionType@2@W4BlobTextFlowType@2@@Z)
        934  3A5 00001514 ?FakeWordFromRatings@WERD_RES@tesseract@@QEAAXW4PermuterType@2@@Z = @ILT+1295(?FakeWordFromRatings@WERD_RES@tesseract@@QEAAXW4PermuterType@2@@Z)
        935  3A6 0000B7A3 ?FeatureDirection@tesseract@@YA?AVFCOORD@1@E@Z = @ILT+42910(?FeatureDirection@tesseract@@YA?AVFCOORD@1@E@Z)
        936  3A7 0001617B ?FillABC@tesseract@@YAXPEAUPROTO_STRUCT@1@@Z = @ILT+86390(?FillABC@tesseract@@YAXPEAUPROTO_STRUCT@1@@Z)
        937  3A8 00011F09 ?FilterDuplicateUnichars@ShapeClassifier@tesseract@@IEBAXPEAV?$vector@UShapeRating@tesseract@@V?$allocator@UShapeRating@tesseract@@@std@@@std@@@Z = @ILT+69380(?FilterDuplicateUnichars@ShapeClassifier@tesseract@@IEBAXPEAV?$vector@UShapeRating@tesseract@@V?$allocator@UShapeRating@tesseract@@@std@@@std@@@Z)
        938  3A9 000017CB ?FilterFalseAlarms@TableFinder@tesseract@@IEAAXXZ = @ILT+1990(?FilterFalseAlarms@TableFinder@tesseract@@IEAAXXZ)
        939  3AA 0000CE69 ?FilterHeaderAndFooter@TableFinder@tesseract@@IEAAXXZ = @ILT+48740(?FilterHeaderAndFooter@TableFinder@tesseract@@IEAAXXZ)
        940  3AB 0000797D ?FilterParagraphEndings@TableFinder@tesseract@@IEAAXXZ = @ILT+27000(?FilterParagraphEndings@TableFinder@tesseract@@IEAAXXZ)
        941  3AC 00003D00 ?FilterWordChoices@WERD_RES@tesseract@@QEAAXH@Z = @ILT+11515(?FilterWordChoices@WERD_RES@tesseract@@QEAAXH@Z)
        942  3AD 00018B29 ?FindAlignedBlob@AlignedBlob@tesseract@@AEAAPEAVBLOBNBOX@2@AEBUAlignedBlobParams@2@_NPEAV32@HPEAH@Z = @ILT+97060(?FindAlignedBlob@AlignedBlob@tesseract@@AEAAPEAVBLOBNBOX@2@AEBUAlignedBlobParams@2@_NPEAV32@HPEAH@Z)
        943  3AE 0001C97C ?FindAllTabVectors@TabFind@tesseract@@AEAAXH@Z = @ILT+113015(?FindAllTabVectors@TabFind@tesseract@@AEAAXH@Z)
        944  3AF 000118DD ?FindBlocks@ColumnFinder@tesseract@@QEAAHW4PageSegMode@2@VImage@2@HPEAVTO_BLOCK@2@111PEAVDebugPixa@2@PEAVBLOCK_LIST@2@PEAVBLOBNBOX_LIST@2@PEAVTO_BLOCK_LIST@2@@Z = @ILT+67800(?FindBlocks@ColumnFinder@tesseract@@QEAAHW4PageSegMode@2@VImage@2@HPEAVTO_BLOCK@2@111PEAVDebugPixa@2@PEAVBLOCK_LIST@2@PEAVBLOBNBOX_LIST@2@PEAVTO_BLOCK_LIST@2@@Z)
        945  3B0 00015F6E ?FindCellSplitLocations@StructuredTable@tesseract@@KAXAEBV?$vector@HV?$allocator@H@std@@@std@@0HPEAV34@@Z = @ILT+85865(?FindCellSplitLocations@StructuredTable@tesseract@@KAXAEBV?$vector@HV?$allocator@H@std@@@std@@0HPEAV34@@Z)
        946  3B1 0001B086 ?FindEquationParts@EquationDetect@tesseract@@UEAAHPEAVColPartitionGrid@2@PEAPEAVColPartitionSet@2@@Z = @ILT+106625(?FindEquationParts@EquationDetect@tesseract@@UEAAHPEAVColPartitionGrid@2@PEAPEAVColPartitionSet@2@@Z)
        947  3B2 000171A7 ?FindFigureCaptions@ColPartitionGrid@tesseract@@QEAAXXZ = @ILT+90530(?FindFigureCaptions@ColPartitionGrid@tesseract@@QEAAXXZ)
        948  3B3 0000C1B7 ?FindHorizontalMargin@StructuredTable@tesseract@@IEBAHPEAVColPartitionGrid@2@H_N@Z = @ILT+45490(?FindHorizontalMargin@StructuredTable@tesseract@@IEBAHPEAVColPartitionGrid@2@H_N@Z)
        949  3B4 0000E1B0 ?FindInitialTabVectors@TabFind@tesseract@@IEAAPEAVScrollView@2@PEAVBLOBNBOX_LIST@2@HNPEAVTO_BLOCK@2@@Z = @ILT+53675(?FindInitialTabVectors@TabFind@tesseract@@IEAAPEAVScrollView@2@PEAVBLOBNBOX_LIST@2@HNPEAVTO_BLOCK@2@@Z)
        950  3B5 000020DB ?FindLinedStructure@StructuredTable@tesseract@@QEAA_NXZ = @ILT+4310(?FindLinedStructure@StructuredTable@tesseract@@QEAA_NXZ)
        951  3B6 00018B8D ?FindLines@TessBaseAPI@tesseract@@IEAAHXZ = @ILT+97160(?FindLines@TessBaseAPI@tesseract@@IEAAHXZ)
        952  3B7 0000C937 ?FindLinesBoundingBox@TableRecognizer@tesseract@@IEAA_NPEAVTBOX@2@@Z = @ILT+47410(?FindLinesBoundingBox@TableRecognizer@tesseract@@IEAA_NPEAVTBOX@2@@Z)
        953  3B8 00009A61 ?FindLinesBoundingBoxIteration@TableRecognizer@tesseract@@IEAA_NPEAVTBOX@2@@Z = @ILT+35420(?FindLinesBoundingBoxIteration@TableRecognizer@tesseract@@IEAA_NPEAVTBOX@2@@Z)
        954  3B9 00006181 ?FindMargin@ColPartitionGrid@tesseract@@AEAAHH_NHHHPEBVColPartition@2@@Z = @ILT+20860(?FindMargin@ColPartitionGrid@tesseract@@AEAAHH_NHHHPEBVColPartition@2@@Z)
        955  3BA 00013CCD ?FindMedianGutterWidth@TabFind@tesseract@@AEAAHPEAVTabVector_LIST@2@@Z = @ILT+77000(?FindMedianGutterWidth@TabFind@tesseract@@AEAAHPEAVTabVector_LIST@2@@Z)
        956  3BB 00007F9F ?FindMergeCandidates@ColPartitionGrid@tesseract@@AEAAXPEBVColPartition@2@AEBVTBOX@2@_NPEAVColPartition_CLIST@2@@Z = @ILT+28570(?FindMergeCandidates@ColPartitionGrid@tesseract@@AEAAXPEBVColPartition@2@AEBVTBOX@2@_NPEAVColPartition_CLIST@2@@Z)
        957  3BC 0001C977 ?FindNeighbors@TableFinder@tesseract@@IEAAXXZ = @ILT+113010(?FindNeighbors@TableFinder@tesseract@@IEAAXXZ)
        958  3BD 00001BE5 ?FindOverlappingPartitions@ColPartitionGrid@tesseract@@QEAAXAEBVTBOX@2@PEBVColPartition@2@PEAVColPartition_CLIST@2@@Z = @ILT+3040(?FindOverlappingPartitions@ColPartitionGrid@tesseract@@QEAAXAEBVTBOX@2@PEBVColPartition@2@PEAVColPartition_CLIST@2@@Z)
        959  3BE 0000EF43 ?FindPartitionMargins@ColPartitionGrid@tesseract@@AEAAXPEAVColPartitionSet@2@PEAVColPartition@2@@Z = @ILT+57150(?FindPartitionMargins@ColPartitionGrid@tesseract@@AEAAXPEAVColPartitionSet@2@PEAVColPartition@2@@Z)
        960  3BF 00015A50 ?FindPartitionPartners@ColPartitionGrid@tesseract@@QEAAXXZ = @ILT+84555(?FindPartitionPartners@ColPartitionGrid@tesseract@@QEAAXXZ)
        961  3C0 00007D9C ?FindPartitionPartners@ColPartitionGrid@tesseract@@QEAAX_NPEAVColPartition@2@@Z = @ILT+28055(?FindPartitionPartners@ColPartitionGrid@tesseract@@QEAAX_NPEAVColPartition@2@@Z)
        962  3C1 0000B807 ?FindSegmentation@Tesseract@tesseract@@QEAA_NAEBV?$vector@HV?$allocator@H@std@@@std@@PEAVWERD_RES@2@@Z = @ILT+43010(?FindSegmentation@Tesseract@tesseract@@QEAA_NAEBV?$vector@HV?$allocator@H@std@@@std@@PEAVWERD_RES@2@@Z)
        963  3C2 00014BD7 ?FindShape@ShapeTable@tesseract@@QEBAHHH@Z = @ILT+80850(?FindShape@ShapeTable@tesseract@@QEBAHHH@Z)
        964  3C3 00001AE6 ?FindTabBoxes@TabFind@tesseract@@AEAAPEAVScrollView@2@HN@Z = @ILT+2785(?FindTabBoxes@TabFind@tesseract@@AEAAPEAVScrollView@2@HN@Z)
        965  3C4 00017B3E ?FindTabVector@TabFind@tesseract@@AEAAPEAVTabVector@2@HHW4TabAlignment@2@PEAVBLOBNBOX@2@PEAH2@Z = @ILT+92985(?FindTabVector@TabFind@tesseract@@AEAAPEAVTabVector@2@HHW4TabAlignment@2@PEAVBLOBNBOX@2@PEAH2@Z)
        966  3C5 0000BD7F ?FindTabVectors@TabFind@tesseract@@AEAAHHW4TabAlignment@2@HPEAVTabVector_LIST@2@PEAH2@Z = @ILT+44410(?FindTabVectors@TabFind@tesseract@@AEAAHHW4TabAlignment@2@HPEAVTabVector_LIST@2@PEAH2@Z)
        967  3C6 0001A9D3 ?FindTabVectors@TabFind@tesseract@@IEAA_NPEAVTabVector_LIST@2@PEAVBLOBNBOX_LIST@2@PEAVTO_BLOCK@2@HNPEAVColPartitionGrid@2@PEAVFCOORD@2@4@Z = @ILT+104910(?FindTabVectors@TabFind@tesseract@@IEAA_NPEAVTabVector_LIST@2@PEAVBLOBNBOX_LIST@2@PEAVTO_BLOCK@2@HNPEAVColPartitionGrid@2@PEAVFCOORD@2@4@Z)
        968  3C7 0000BA28 ?FindVPartitionPartners@ColPartitionGrid@tesseract@@QEAAX_NPEAVColPartition@2@@Z = @ILT+43555(?FindVPartitionPartners@ColPartitionGrid@tesseract@@QEAAX_NPEAVColPartition@2@@Z)
        969  3C8 00009B01 ?FindVerticalAlignment@AlignedBlob@tesseract@@QEAAPEAVTabVector@2@UAlignedBlobParams@2@PEAVBLOBNBOX@2@PEAH2@Z = @ILT+35580(?FindVerticalAlignment@AlignedBlob@tesseract@@QEAAPEAVTabVector@2@UAlignedBlobParams@2@PEAVBLOBNBOX@2@PEAH2@Z)
        970  3C9 00003CD8 ?FindVerticalMargin@StructuredTable@tesseract@@IEBAHPEAVColPartitionGrid@2@H_N@Z = @ILT+11475(?FindVerticalMargin@StructuredTable@tesseract@@IEBAHPEAVColPartitionGrid@2@H_N@Z)
        971  3CA 000155E6 ?FindWhitespacedColumns@StructuredTable@tesseract@@IEAAXXZ = @ILT+83425(?FindWhitespacedColumns@StructuredTable@tesseract@@IEAAXXZ)
        972  3CB 00007072 ?FindWhitespacedRows@StructuredTable@tesseract@@IEAAXXZ = @ILT+24685(?FindWhitespacedRows@StructuredTable@tesseract@@IEAAXXZ)
        973  3CC 00007EAA ?FindWhitespacedStructure@StructuredTable@tesseract@@QEAA_NXZ = @ILT+28325(?FindWhitespacedStructure@StructuredTable@tesseract@@QEAA_NXZ)
        974  3CD 00007257 ?FinishLoad@Dict@tesseract@@QEAA_NXZ = @ILT+25170(?FinishLoad@Dict@tesseract@@QEAA_NXZ)
        975  3CE 00006B81 ?First@CLIST@tesseract@@AEAAPEAVCLIST_LINK@2@XZ = @ILT+23420(?First@CLIST@tesseract@@AEAAPEAVCLIST_LINK@2@XZ)
        976  3CF 00001910 ?First@CLIST@tesseract@@AEBAPEBVCLIST_LINK@2@XZ = @ILT+2315(?First@CLIST@tesseract@@AEBAPEBVCLIST_LINK@2@XZ)
        977  3D0 00012BCF ?First@ELIST2@tesseract@@AEAAPEAVELIST2_LINK@2@XZ = @ILT+72650(?First@ELIST2@tesseract@@AEAAPEAVELIST2_LINK@2@XZ)
        978  3D1 0001A424 ?First@ELIST@tesseract@@AEAAPEAVELIST_LINK@2@XZ = @ILT+103455(?First@ELIST@tesseract@@AEAAPEAVELIST_LINK@2@XZ)
        979  3D2 00015D2F ?ForceFontMerges@ShapeTable@tesseract@@QEAAXHH@Z = @ILT+85290(?ForceFontMerges@ShapeTable@tesseract@@QEAAXHH@Z)
        980  3D3 00014678 ?FreeClass@tesseract@@YAXPEAUCLASS_STRUCT@1@@Z = @ILT+79475(?FreeClass@tesseract@@YAXPEAUCLASS_STRUCT@1@@Z)
        981  3D4 0000878D ?FreeClassFields@tesseract@@YAXPEAUCLASS_STRUCT@1@@Z = @ILT+30600(?FreeClassFields@tesseract@@YAXPEAUCLASS_STRUCT@1@@Z)
        982  3D5 0000A07E ?FreeClusterer@tesseract@@YAXPEAUCLUSTERER@1@@Z = @ILT+36985(?FreeClusterer@tesseract@@YAXPEAUCLUSTERER@1@@Z)
        983  3D6 0001344E ?FreeNormProtos@Classify@tesseract@@QEAAXXZ = @ILT+74825(?FreeNormProtos@Classify@tesseract@@QEAAXXZ)
        984  3D7 0000E6A6 ?FreeProtoList@tesseract@@YAXPEAPEAUlist_rec@1@@Z = @ILT+54945(?FreeProtoList@tesseract@@YAXPEAPEAUlist_rec@1@@Z)
        985  3D8 0000E19C ?FromPix@NetworkIO@tesseract@@QEAAXAEBVStaticShape@2@VImage@2@PEAVTRand@2@@Z = @ILT+53655(?FromPix@NetworkIO@tesseract@@QEAAXAEBVStaticShape@2@VImage@2@PEAVTRand@2@@Z)
        986  3D9 00017454 ?FromPixes@NetworkIO@tesseract@@QEAAXAEBVStaticShape@2@AEBV?$vector@VImage@tesseract@@V?$allocator@VImage@tesseract@@@std@@@std@@PEAVTRand@2@@Z = @ILT+91215(?FromPixes@NetworkIO@tesseract@@QEAAXAEBVStaticShape@2@AEBV?$vector@VImage@tesseract@@V?$allocator@VImage@tesseract@@@std@@@std@@PEAVTRand@2@@Z)
        987  3DA 0001490C ?GapInXProjection@TableFinder@tesseract@@IEAA_NPEAHH@Z = @ILT+80135(?GapInXProjection@TableFinder@tesseract@@IEAA_NPEAHH@Z)
        988  3DB 00013B83 ?GetAdamBeta@LSTMRecognizer@tesseract@@QEBAMXZ = @ILT+76670(?GetAdamBeta@LSTMRecognizer@tesseract@@QEBAMXZ)
        989  3DC 0001A7DA ?GetAdaptiveFeatures@Classify@tesseract@@QEAAHPEAUTBLOB@2@QEAUINT_FEATURE_STRUCT@2@PEAPEAUFEATURE_SET_STRUCT@2@@Z = @ILT+104405(?GetAdaptiveFeatures@Classify@tesseract@@QEAAHPEAUTBLOB@2@QEAUINT_FEATURE_STRUCT@2@PEAPEAUFEATURE_SET_STRUCT@2@@Z)
        990  3DD 00004502 ?GetAltoText@TessBaseAPI@tesseract@@QEAAPEADH@Z = @ILT+13565(?GetAltoText@TessBaseAPI@tesseract@@QEAAPEADH@Z)
        991  3DE 00010A2D ?GetAltoText@TessBaseAPI@tesseract@@QEAAPEADPEAVETEXT_DESC@2@H@Z = @ILT+64040(?GetAltoText@TessBaseAPI@tesseract@@QEAAPEADPEAVETEXT_DESC@2@H@Z)
        992  3DF 0001211B ?GetAmbiguities@Classify@tesseract@@QEAAPEAHPEAUTBLOB@2@H@Z = @ILT+69910(?GetAmbiguities@Classify@tesseract@@QEAAPEAHPEAUTBLOB@2@H@Z)
        993  3E0 0000A0EC ?GetAvailableLanguagesAsVector@TessBaseAPI@tesseract@@QEBAXPEAV?$vector@V?$basic_string@DU?$char_traits@D@std@@V?$allocator@D@2@@std@@V?$allocator@V?$basic_string@DU?$char_traits@D@std@@V?$allocator@D@2@@std@@@2@@std@@@Z = @ILT+37095(?GetAvailableLanguagesAsVector@TessBaseAPI@tesseract@@QEBAXPEAV?$vector@V?$basic_string@DU?$char_traits@D@std@@V?$allocator@D@2@@std@@V?$allocator@V?$basic_string@DU?$char_traits@D@std@@V?$allocator@D@2@@std@@@2@@std@@@Z)
        994  3E1 00006497 ?GetBestLSTMSymbolChoices@ResultIterator@tesseract@@UEBAPEAV?$vector@V?$vector@U?$pair@PEBDM@std@@V?$allocator@U?$pair@PEBDM@std@@@2@@std@@V?$allocator@V?$vector@U?$pair@PEBDM@std@@V?$allocator@U?$pair@PEBDM@std@@@2@@std@@@2@@std@@XZ = @ILT+21650(?GetBestLSTMSymbolChoices@ResultIterator@tesseract@@UEBAPEAV?$vector@V?$vector@U?$pair@PEBDM@std@@V?$allocator@U?$pair@PEBDM@std@@@2@@std@@V?$allocator@V?$vector@U?$pair@PEBDM@std@@V?$allocator@U?$pair@PEBDM@std@@@2@@std@@@2@@std@@XZ)
        995  3E2 00017567 ?GetBinaryImage@PageIterator@tesseract@@QEBAPEAUPix@@W4PageIteratorLevel@2@@Z = @ILT+91490(?GetBinaryImage@PageIterator@tesseract@@QEBAPEAUPix@@W4PageIteratorLevel@2@@Z)
        996  3E3 0001102C ?GetBlamerDebug@LTRResultIterator@tesseract@@QEBAPEBDXZ = @ILT+65575(?GetBlamerDebug@LTRResultIterator@tesseract@@QEBAPEBDXZ)
        997  3E4 0000E4D5 ?GetBlamerMisadaptionDebug@LTRResultIterator@tesseract@@QEBAPEBDXZ = @ILT+54480(?GetBlamerMisadaptionDebug@LTRResultIterator@tesseract@@QEBAPEBDXZ)
        998  3E5 00003B20 ?GetBlobChoice@WERD_RES@tesseract@@QEBAPEAVBLOB_CHOICE@2@H@Z = @ILT+11035(?GetBlobChoice@WERD_RES@tesseract@@QEBAPEAVBLOB_CHOICE@2@H@Z)
        999  3E6 00013E85 ?GetBlobChoices@WERD_RES@tesseract@@QEBAPEAVBLOB_CHOICE_LIST@2@H@Z = @ILT+77440(?GetBlobChoices@WERD_RES@tesseract@@QEBAPEAVBLOB_CHOICE_LIST@2@H@Z)
       1000  3E7 00009CA5 ?GetBlobsGap@WERD_RES@tesseract@@QEBAHH@Z = @ILT+36000(?GetBlobsGap@WERD_RES@tesseract@@QEBAHH@Z)
       1001  3E8 00001EBF ?GetBlobsWidth@WERD_RES@tesseract@@QEBAHHH@Z = @ILT+3770(?GetBlobsWidth@WERD_RES@tesseract@@QEBAHHH@Z)
       1002  3E9 00001EE7 ?GetBlockTextOrientations@TessBaseAPI@tesseract@@QEAAXPEAPEAHPEAPEA_N@Z = @ILT+3810(?GetBlockTextOrientations@TessBaseAPI@tesseract@@QEAAXPEAPEAHPEAPEA_N@Z)
       1003  3EA 00002F27 ?GetBoolVariable@TessBaseAPI@tesseract@@QEBA_NPEBDPEA_N@Z = @ILT+7970(?GetBoolVariable@TessBaseAPI@tesseract@@QEBA_NPEBDPEA_N@Z)
       1004  3EB 0000FE93 ?GetBoxText@TessBaseAPI@tesseract@@QEAAPEADH@Z = @ILT+61070(?GetBoxText@TessBaseAPI@tesseract@@QEAAPEADH@Z)
       1005  3EC 00017EB3 ?GetCNFeature@TrainingSample@tesseract@@QEBAPEAUFEATURE_STRUCT@2@XZ = @ILT+93870(?GetCNFeature@TrainingSample@tesseract@@QEBAPEAUFEATURE_STRUCT@2@XZ)
       1006  3ED 0001B0EA ?GetCharNormFeature@Classify@tesseract@@QEAAHAEBUINT_FX_RESULT_STRUCT@2@PEAUINT_TEMPLATES_STRUCT@2@PEAE2@Z = @ILT+106725(?GetCharNormFeature@Classify@tesseract@@QEAAHAEBUINT_FX_RESULT_STRUCT@2@PEAUINT_TEMPLATES_STRUCT@2@PEAE2@Z)
       1007  3EE 0000D814 ?GetClassToDebug@Classify@tesseract@@QEAAHPEBDPEA_N1PEAH@Z = @ILT+51215(?GetClassToDebug@Classify@tesseract@@QEAAHPEBDPEA_N1PEAH@Z)
       1008  3EF 000075A4 ?GetColumnBlocks@TableFinder@tesseract@@IEAAXPEAPEAVColPartitionSet@2@PEAVColSegment_LIST@2@@Z = @ILT+26015(?GetColumnBlocks@TableFinder@tesseract@@IEAAXPEAPEAVColPartitionSet@2@PEAVColSegment_LIST@2@@Z)
       1009  3F0 0000C0D1 ?GetComponent@TessdataManager@tesseract@@QEAA_NW4TessdataType@2@PEAVTFile@2@@Z = @ILT+45260(?GetComponent@TessdataManager@tesseract@@QEAA_NW4TessdataType@2@PEAVTFile@2@@Z)
       1010  3F1 0000FD2B ?GetComponent@TessdataManager@tesseract@@QEBA_NW4TessdataType@2@PEAVTFile@2@@Z = @ILT+60710(?GetComponent@TessdataManager@tesseract@@QEBA_NW4TessdataType@2@PEAVTFile@2@@Z)
       1011  3F2 000115FE ?GetComponentImages@TessBaseAPI@tesseract@@QEAAPEAUBoxa@@W4PageIteratorLevel@2@_N1HPEAPEAUPixa@@PEAPEAH3@Z = @ILT+67065(?GetComponentImages@TessBaseAPI@tesseract@@QEAAPEAUBoxa@@W4PageIteratorLevel@2@_N1HPEAPEAUPixa@@PEAPEAH3@Z)
       1012  3F3 000192F9 ?GetComponentImages@TessBaseAPI@tesseract@@QEAAPEAUBoxa@@W4PageIteratorLevel@2@_NPEAPEAUPixa@@PEAPEAH@Z = @ILT+99060(?GetComponentImages@TessBaseAPI@tesseract@@QEAAPEAUBoxa@@W4PageIteratorLevel@2@_NPEAPEAUPixa@@PEAPEAH@Z)
       1013  3F4 00008B61 ?GetConnectedComponents@TessBaseAPI@tesseract@@QEAAPEAUBoxa@@PEAPEAUPixa@@@Z = @ILT+31580(?GetConnectedComponents@TessBaseAPI@tesseract@@QEAAPEAUBoxa@@PEAPEAUPixa@@@Z)
       1014  3F5 000034EA ?GetDataFileName@TessdataManager@tesseract@@QEBAAEBV?$basic_string@DU?$char_traits@D@std@@V?$allocator@D@2@@std@@XZ = @ILT+9445(?GetDataFileName@TessdataManager@tesseract@@QEBAAEBV?$basic_string@DU?$char_traits@D@std@@V?$allocator@D@2@@std@@XZ)
       1015  3F6 00014259 ?GetDatapath@TessBaseAPI@tesseract@@QEAAPEBDXZ = @ILT+78420(?GetDatapath@TessBaseAPI@tesseract@@QEAAPEBDXZ)
       1016  3F7 00003C83 ?GetDawg@Dict@tesseract@@QEBAPEBVDawg@2@H@Z = @ILT+11390(?GetDawg@Dict@tesseract@@QEBAPEBVDawg@2@H@Z)
       1017  3F8 00014551 ?GetDawg@TessBaseAPI@tesseract@@QEBAPEBVDawg@2@H@Z = @ILT+79180(?GetDawg@TessBaseAPI@tesseract@@QEBAPEBVDawg@2@H@Z)
       1018  3F9 000021BC ?GetDeskewVectors@ColumnFinder@tesseract@@QEAAXPEAVFCOORD@2@0@Z = @ILT+4535(?GetDeskewVectors@ColumnFinder@tesseract@@QEAAXPEAVFCOORD@2@0@Z)
       1019  3FA 00003369 ?GetDict@LSTMRecognizer@tesseract@@QEAAPEAVDict@2@XZ = @ILT+9060(?GetDict@LSTMRecognizer@tesseract@@QEAAPEAVDict@2@XZ)
       1020  3FB 000086E3 ?GetDict@LSTMRecognizer@tesseract@@QEBAPEBVDict@2@XZ = @ILT+30430(?GetDict@LSTMRecognizer@tesseract@@QEBAPEBVDict@2@XZ)
       1021  3FC 00001C3A ?GetDoubleVariable@TessBaseAPI@tesseract@@QEBA_NPEBDPEAN@Z = @ILT+3125(?GetDoubleVariable@TessBaseAPI@tesseract@@QEBA_NPEBDPEAN@Z)
       1022  3FD 0000DE63 ?GetEncodingAsString@UnicharCompress@tesseract@@QEBA?AV?$basic_string@DU?$char_traits@D@std@@V?$allocator@D@2@@std@@AEBVUNICHARSET@2@@Z = @ILT+52830(?GetEncodingAsString@UnicharCompress@tesseract@@QEBA?AV?$basic_string@DU?$char_traits@D@std@@V?$allocator@D@2@@std@@AEBVUNICHARSET@2@@Z)
       1023  3FE 00011667 ?GetFinalCodes@UnicharCompress@tesseract@@QEBAPEBV?$vector@HV?$allocator@H@std@@@std@@AEBVRecodedCharID@2@@Z = @ILT+67170(?GetFinalCodes@UnicharCompress@tesseract@@QEBAPEBV?$vector@HV?$allocator@H@std@@@std@@AEBVRecodedCharID@2@@Z)
       1024  3FF 00019C77 ?GetFirstUnicharAndFont@ShapeTable@tesseract@@QEBAXHPEAH0@Z = @ILT+101490(?GetFirstUnicharAndFont@ShapeTable@tesseract@@QEBAXHPEAH0@Z)
       1025  400 0000123F ?GetFontinfoId@Classify@tesseract@@QEAAHPEAUADAPT_CLASS_STRUCT@2@E@Z = @ILT+570(?GetFontinfoId@Classify@tesseract@@QEAAHPEAUADAPT_CLASS_STRUCT@2@E@Z)
       1026  401 000047F0 ?GetHOCRText@TessBaseAPI@tesseract@@QEAAPEADH@Z = @ILT+14315(?GetHOCRText@TessBaseAPI@tesseract@@QEAAPEADH@Z)
       1027  402 00010C99 ?GetHOCRText@TessBaseAPI@tesseract@@QEAAPEADPEAVETEXT_DESC@2@H@Z = @ILT+64660(?GetHOCRText@TessBaseAPI@tesseract@@QEAAPEADPEAVETEXT_DESC@2@H@Z)
       1028  403 0000AAA6 ?GetId@ScrollView@tesseract@@QEAAHXZ = @ILT+39585(?GetId@ScrollView@tesseract@@QEAAHXZ)
       1029  404 00016C84 ?GetImage@PageIterator@tesseract@@QEBAPEAUPix@@W4PageIteratorLevel@2@HPEAU3@PEAH2@Z = @ILT+89215(?GetImage@PageIterator@tesseract@@QEBAPEAUPix@@W4PageIteratorLevel@2@HPEAU3@PEAH2@Z)
       1030  405 00017B84 ?GetImageSizes@ImageThresholder@tesseract@@UEAAXPEAH00000@Z = @ILT+93055(?GetImageSizes@ImageThresholder@tesseract@@UEAAXPEAH00000@Z)
       1031  406 0001B5CC ?GetInitLanguagesAsString@TessBaseAPI@tesseract@@QEBAPEBDXZ = @ILT+107975(?GetInitLanguagesAsString@TessBaseAPI@tesseract@@QEBAPEBDXZ)
       1032  407 0001653B ?GetInputImage@TessBaseAPI@tesseract@@QEAAPEAUPix@@XZ = @ILT+87350(?GetInputImage@TessBaseAPI@tesseract@@QEAAPEAUPix@@XZ)
       1033  408 0000D4D6 ?GetInputName@TessBaseAPI@tesseract@@QEAAPEBDXZ = @ILT+50385(?GetInputName@TessBaseAPI@tesseract@@QEAAPEBDXZ)
       1034  409 00005795 ?GetIntVariable@TessBaseAPI@tesseract@@QEBA_NPEBDPEAH@Z = @ILT+18320(?GetIntVariable@TessBaseAPI@tesseract@@QEBA_NPEBDPEAH@Z)
       1035  40A 00003E63 ?GetIterator@TessBaseAPI@tesseract@@QEAAPEAVResultIterator@2@XZ = @ILT+11870(?GetIterator@TessBaseAPI@tesseract@@QEAAPEAVResultIterator@2@XZ)
       1036  40B 00002C75 ?GetLSTMBoxText@TessBaseAPI@tesseract@@QEAAPEADH@Z = @ILT+7280(?GetLSTMBoxText@TessBaseAPI@tesseract@@QEAAPEADH@Z)
       1037  40C 0001CCAB ?GetLTRIterator@TessBaseAPI@tesseract@@IEAAPEAVLTRResultIterator@2@XZ = @ILT+113830(?GetLTRIterator@TessBaseAPI@tesseract@@IEAAPEAVLTRResultIterator@2@XZ)
       1038  40D 00016BDA ?GetLayer@LSTMRecognizer@tesseract@@QEBAPEAVNetwork@2@AEBV?$basic_string@DU?$char_traits@D@std@@V?$allocator@D@2@@std@@@Z = @ILT+89045(?GetLayer@LSTMRecognizer@tesseract@@QEBAPEAVNetwork@2@AEBV?$basic_string@DU?$char_traits@D@std@@V?$allocator@D@2@@std@@@Z)
       1039  40E 00014047 ?GetLayer@Plumbing@tesseract@@QEBAPEAVNetwork@2@PEBD@Z = @ILT+77890(?GetLayer@Plumbing@tesseract@@QEBAPEAVNetwork@2@PEBD@Z)
       1040  40F 0001104F ?GetLayerLearningRate@LSTMRecognizer@tesseract@@QEBAMAEBV?$basic_string@DU?$char_traits@D@std@@V?$allocator@D@2@@std@@@Z = @ILT+65610(?GetLayerLearningRate@LSTMRecognizer@tesseract@@QEBAMAEBV?$basic_string@DU?$char_traits@D@std@@V?$allocator@D@2@@std@@@Z)
       1041  410 00001019 ?GetLineData@Tesseract@tesseract@@QEAAPEAVImageData@2@AEBVTBOX@2@AEBV?$vector@VTBOX@tesseract@@V?$allocator@VTBOX@tesseract@@@std@@@std@@AEBV?$vector@V?$basic_string@DU?$char_traits@D@std@@V?$allocator@D@2@@std@@V?$allocator@V?$basic_string@DU?$char_traits@D@std@@V?$allocator@D@2@@std@@@2@@6@HHAEBVBLOCK@2@@Z = @ILT+20(?GetLineData@Tesseract@tesseract@@QEAAPEAVImageData@2@AEBVTBOX@2@AEBV?$vector@VTBOX@tesseract@@V?$allocator@VTBOX@tesseract@@@std@@@std@@AEBV?$vector@V?$basic_string@DU?$char_traits@D@std@@V?$allocator@D@2@@std@@V?$allocator@V?$basic_string@DU?$char_traits@D@std@@V?$allocator@D@2@@std@@@2@@6@HHAEBVBLOCK@2@@Z)
       1042  411 0000522C ?GetLoadedLanguagesAsVector@TessBaseAPI@tesseract@@QEBAXPEAV?$vector@V?$basic_string@DU?$char_traits@D@std@@V?$allocator@D@2@@std@@V?$allocator@V?$basic_string@DU?$char_traits@D@std@@V?$allocator@D@2@@std@@@2@@std@@@Z = @ILT+16935(?GetLoadedLanguagesAsVector@TessBaseAPI@tesseract@@QEBAXPEAV?$vector@V?$basic_string@DU?$char_traits@D@std@@V?$allocator@D@2@@std@@V?$allocator@V?$basic_string@DU?$char_traits@D@std@@V?$allocator@D@2@@std@@@2@@std@@@Z)
       1043  412 00019623 ?GetMomentum@LSTMRecognizer@tesseract@@QEBAMXZ = @ILT+99870(?GetMomentum@LSTMRecognizer@tesseract@@QEBAMXZ)
       1044  413 00019835 ?GetMutableIterator@TessBaseAPI@tesseract@@QEAAPEAVMutableIterator@2@XZ = @ILT+100400(?GetMutableIterator@TessBaseAPI@tesseract@@QEAAPEAVMutableIterator@2@XZ)
       1045  414 0001D066 ?GetName@ScrollView@tesseract@@QEAAPEBDXZ = @ILT+114785(?GetName@ScrollView@tesseract@@QEAAPEBDXZ)
       1046  415 00011A45 ?GetNetwork@LSTMRecognizer@tesseract@@QEBAPEBDXZ = @ILT+68160(?GetNetwork@LSTMRecognizer@tesseract@@QEBAPEBDXZ)
       1047  416 0001569A ?GetNextCodes@UnicharCompress@tesseract@@QEBAPEBV?$vector@HV?$allocator@H@std@@@std@@AEBVRecodedCharID@2@@Z = @ILT+83605(?GetNextCodes@UnicharCompress@tesseract@@QEBAPEBV?$vector@HV?$allocator@H@std@@@std@@AEBVRecodedCharID@2@@Z)
       1048  417 0000FD58 ?GetNoiseOutlines@WERD@tesseract@@QEAAXPEAV?$vector@PEAVC_OUTLINE@tesseract@@V?$allocator@PEAVC_OUTLINE@tesseract@@@std@@@std@@@Z = @ILT+60755(?GetNoiseOutlines@WERD@tesseract@@QEAAXPEAV?$vector@PEAVC_OUTLINE@tesseract@@V?$allocator@PEAVC_OUTLINE@tesseract@@@std@@@std@@@Z)
       1049  418 00011103 ?GetNonSuperscriptSpan@WERD_CHOICE@tesseract@@QEBAXPEAH0@Z = @ILT+65790(?GetNonSuperscriptSpan@WERD_CHOICE@tesseract@@QEBAXPEAH0@Z)
       1050  419 00010235 ?GetNumberOfTables@TessBaseAPI@tesseract@@QEBA_KXZ = @ILT+62000(?GetNumberOfTables@TessBaseAPI@tesseract@@QEBA_KXZ)
       1051  41A 00004BE7 ?GetOsdText@TessBaseAPI@tesseract@@QEAAPEADH@Z = @ILT+15330(?GetOsdText@TessBaseAPI@tesseract@@QEAAPEADH@Z)
       1052  41B 0000CCE8 ?GetOutputTiffName@EquationDetect@tesseract@@IEBAXPEBDAEAV?$basic_string@DU?$char_traits@D@std@@V?$allocator@D@2@@std@@@Z = @ILT+48355(?GetOutputTiffName@EquationDetect@tesseract@@IEBAXPEBDAEAV?$basic_string@DU?$char_traits@D@std@@V?$allocator@D@2@@std@@@Z)
       1053  41C 000198A3 ?GetPDFTextObjects@TessPDFRenderer@tesseract@@AEAAPEADPEAVTessBaseAPI@2@NN@Z = @ILT+100510(?GetPDFTextObjects@TessPDFRenderer@tesseract@@AEAAPEADPEAVTessBaseAPI@2@NN@Z)
       1054  41D 00007A3B ?GetPadding@NetworkIO@tesseract@@CAHH@Z = @ILT+27190(?GetPadding@NetworkIO@tesseract@@CAHH@Z)
       1055  41E 00008D05 ?GetPage@DocumentData@tesseract@@QEAAPEBVImageData@2@H@Z = @ILT+32000(?GetPage@DocumentData@tesseract@@QEAAPEBVImageData@2@H@Z)
       1056  41F 00005D30 ?GetPageRes@TessBaseAPI@tesseract@@IEBAPEBVPAGE_RES@2@XZ = @ILT+19755(?GetPageRes@TessBaseAPI@tesseract@@IEBAPEBVPAGE_RES@2@XZ)
       1057  420 0000C2AC ?GetPageRoundRobin@DocumentCache@tesseract@@AEAAPEBVImageData@2@H@Z = @ILT+45735(?GetPageRoundRobin@DocumentCache@tesseract@@AEAAPEBVImageData@2@H@Z)
       1058  421 00009DB8 ?GetPageSegMode@TessBaseAPI@tesseract@@QEBA?AW4PageSegMode@2@XZ = @ILT+36275(?GetPageSegMode@TessBaseAPI@tesseract@@QEBA?AW4PageSegMode@2@XZ)
       1059  422 0000804E ?GetPageSequential@DocumentCache@tesseract@@AEAAPEBVImageData@2@H@Z = @ILT+28745(?GetPageSequential@DocumentCache@tesseract@@AEAAPEBVImageData@2@H@Z)
       1060  423 0000586C ?GetParamAsString@ParamUtils@tesseract@@SA_NPEBDPEBUParamsVectors@2@PEAV?$basic_string@DU?$char_traits@D@std@@V?$allocator@D@2@@std@@@Z = @ILT+18535(?GetParamAsString@ParamUtils@tesseract@@SA_NPEBDPEBUParamsVectors@2@PEAV?$basic_string@DU?$char_traits@D@std@@V?$allocator@D@2@@std@@@Z)
       1061  424 00013FC0 ?GetParamsTrainingBundle@LTRResultIterator@tesseract@@QEBAPEBXXZ = @ILT+77755(?GetParamsTrainingBundle@LTRResultIterator@tesseract@@QEBAPEBXXZ)
       1062  425 000164F5 ?GetPix@ImageData@tesseract@@QEBA?AVImage@2@XZ = @ILT+87280(?GetPix@ImageData@tesseract@@QEBA?AVImage@2@XZ)
       1063  426 00002E69 ?GetPixInternal@ImageData@tesseract@@CA?AVImage@2@AEBV?$vector@DV?$allocator@D@std@@@std@@@Z = @ILT+7780(?GetPixInternal@ImageData@tesseract@@CA?AVImage@2@AEBV?$vector@DV?$allocator@D@std@@@std@@@Z)
       1064  427 00019042 ?GetPixRect@ImageThresholder@tesseract@@QEAA?AVImage@2@XZ = @ILT+98365(?GetPixRect@ImageThresholder@tesseract@@QEAA?AVImage@2@XZ)
       1065  428 00008DD2 ?GetPixRectGrey@ImageThresholder@tesseract@@UEAA?AVImage@2@XZ = @ILT+32205(?GetPixRectGrey@ImageThresholder@tesseract@@UEAA?AVImage@2@XZ)
       1066  429 000171AC ?GetPixRectThresholds@ImageThresholder@tesseract@@UEAA?AVImage@2@XZ = @ILT+90535(?GetPixRectThresholds@ImageThresholder@tesseract@@UEAA?AVImage@2@XZ)
       1067  42A 0001C21A ?GetPuncDawg@Dict@tesseract@@QEBAPEBVDawg@2@XZ = @ILT+111125(?GetPuncDawg@Dict@tesseract@@QEBAPEBVDawg@2@XZ)
       1068  42B 0001067C ?GetRawLSTMTimesteps@ResultIterator@tesseract@@UEBAPEAV?$vector@V?$vector@V?$vector@U?$pair@PEBDM@std@@V?$allocator@U?$pair@PEBDM@std@@@2@@std@@V?$allocator@V?$vector@U?$pair@PEBDM@std@@V?$allocator@U?$pair@PEBDM@std@@@2@@std@@@2@@std@@V?$allocator@V?$vector@V?$vector@U?$pair@PEBDM@std@@V?$allocator@U?$pair@PEBDM@std@@@2@@std@@V?$allocator@V?$vector@U?$pair@PEBDM@std@@V?$allocator@U?$pair@PEBDM@std@@@2@@std@@@2@@std@@@2@@std@@XZ = @ILT+63095(?GetRawLSTMTimesteps@ResultIterator@tesseract@@UEBAPEAV?$vector@V?$vector@V?$vector@U?$pair@PEBDM@std@@V?$allocator@U?$pair@PEBDM@std@@@2@@std@@V?$allocator@V?$vector@U?$pair@PEBDM@std@@V?$allocator@U?$pair@PEBDM@std@@@2@@std@@@2@@std@@V?$allocator@V?$vector@V?$vector@U?$pair@PEBDM@std@@V?$allocator@U?$pair@PEBDM@std@@@2@@std@@V?$allocator@V?$vector@U?$pair@PEBDM@std@@V?$allocator@U?$pair@PEBDM@std@@@2@@std@@@2@@std@@@2@@std@@XZ)
       1069  42C 000173FF ?GetRecoder@LSTMRecognizer@tesseract@@QEBAAEBVUnicharCompress@2@XZ = @ILT+91130(?GetRecoder@LSTMRecognizer@tesseract@@QEBAAEBVUnicharCompress@2@XZ)
       1070  42D 00008675 ?GetRectImage@Tesseract@tesseract@@QEBAPEAVImageData@2@AEBVTBOX@2@AEBVBLOCK@2@HPEAV42@@Z = @ILT+30320(?GetRectImage@Tesseract@tesseract@@QEBAPEAVImageData@2@AEBVTBOX@2@AEBVBLOCK@2@HPEAV42@@Z)
       1071  42E 00009796 ?GetRegions@TessBaseAPI@tesseract@@QEAAPEAUBoxa@@PEAPEAUPixa@@@Z = @ILT+34705(?GetRegions@TessBaseAPI@tesseract@@QEAAPEAUBoxa@@PEAPEAUPixa@@@Z)
       1072  42F 000062B7 ?GetSamplePix@TrainingSample@tesseract@@QEBA?AVImage@2@HV32@@Z = @ILT+21170(?GetSamplePix@TrainingSample@tesseract@@QEBA?AVImage@2@HV32@@Z)
       1073  430 0000933B ?GetScaleFactor@ImageThresholder@tesseract@@QEBAHXZ = @ILT+33590(?GetScaleFactor@ImageThresholder@tesseract@@QEBAHXZ)
       1074  431 00017B66 ?GetScaledEstimatedResolution@ImageThresholder@tesseract@@QEBAHXZ = @ILT+93025(?GetScaledEstimatedResolution@ImageThresholder@tesseract@@QEBAHXZ)
       1075  432 0001976D ?GetScaledYResolution@ImageThresholder@tesseract@@QEBAHXZ = @ILT+100200(?GetScaledYResolution@ImageThresholder@tesseract@@QEBAHXZ)
       1076  433 00011AD6 ?GetShape@ShapeTable@tesseract@@QEBAAEBVShape@2@H@Z = @ILT+68305(?GetShape@ShapeTable@tesseract@@QEBAAEBVShape@2@H@Z)
       1077  434 00017A6C ?GetShapeTable@TessClassifier@tesseract@@UEBAPEBVShapeTable@2@XZ = @ILT+92775(?GetShapeTable@TessClassifier@tesseract@@UEBAPEBVShapeTable@2@XZ)
       1078  435 0001A7B7 ?GetSourceYResolution@ImageThresholder@tesseract@@QEBAHXZ = @ILT+104370(?GetSourceYResolution@ImageThresholder@tesseract@@QEBAHXZ)
       1079  436 0001C9D1 ?GetSourceYResolution@TessBaseAPI@tesseract@@QEAAHXZ = @ILT+113100(?GetSourceYResolution@TessBaseAPI@tesseract@@QEAAHXZ)
       1080  437 00015E79 ?GetStartingNode@Dict@tesseract@@SA_JPEBVDawg@2@_J@Z = @ILT+85620(?GetStartingNode@Dict@tesseract@@SA_JPEBVDawg@2@_J@Z)
       1081  438 00003918 ?GetStrProperties@UNICHARSET@tesseract@@AEBA_NPEBDPEAUUNICHAR_PROPERTIES@12@@Z = @ILT+10515(?GetStrProperties@UNICHARSET@tesseract@@AEBA_NPEBDPEAUUNICHAR_PROPERTIES@12@@Z)
       1082  439 00007F13 ?GetStream@ScrollView@tesseract@@CAPEAVSVNetwork@2@XZ = @ILT+28430(?GetStream@ScrollView@tesseract@@CAPEAVSVNetwork@2@XZ)
       1083  43A 00007923 ?GetStringVariable@TessBaseAPI@tesseract@@QEBAPEBDPEBD@Z = @ILT+26910(?GetStringVariable@TessBaseAPI@tesseract@@QEBAPEBDPEBD@Z)
       1084  43B 0001597E ?GetStrips@TessBaseAPI@tesseract@@QEAAPEAUBoxa@@PEAPEAUPixa@@PEAPEAH@Z = @ILT+84345(?GetStrips@TessBaseAPI@tesseract@@QEAAPEAUBoxa@@PEAPEAUPixa@@PEAPEAH@Z)
       1085  43C 00005614 ?GetSubAndSuperscriptCandidates@Tesseract@tesseract@@QEAAXPEBVWERD_RES@2@PEAHPEAW4ScriptPos@2@PEAM12333@Z = @ILT+17935(?GetSubAndSuperscriptCandidates@Tesseract@tesseract@@QEAAXPEBVWERD_RES@2@PEAHPEAW4ScriptPos@2@PEAM12333@Z)
       1086  43D 00012F5D ?GetTSVText@TessBaseAPI@tesseract@@QEAAPEADH@Z = @ILT+73560(?GetTSVText@TessBaseAPI@tesseract@@QEAAPEADH@Z)
       1087  43E 0000EA0C ?GetTableBoundingBox@TessBaseAPI@tesseract@@QEAA?AV?$tuple@HHHH@std@@I@Z = @ILT+55815(?GetTableBoundingBox@TessBaseAPI@tesseract@@QEAA?AV?$tuple@HHHH@std@@I@Z)
       1088  43F 000088C3 ?GetTableCols@TessBaseAPI@tesseract@@QEAA?AV?$vector@V?$tuple@HHHH@std@@V?$allocator@V?$tuple@HHHH@std@@@2@@std@@I@Z = @ILT+30910(?GetTableCols@TessBaseAPI@tesseract@@QEAA?AV?$vector@V?$tuple@HHHH@std@@V?$allocator@V?$tuple@HHHH@std@@@2@@std@@I@Z)
       1089  440 00015D07 ?GetTableColumns@TableFinder@tesseract@@IEAAXPEAVColSegment_LIST@2@@Z = @ILT+85250(?GetTableColumns@TableFinder@tesseract@@IEAAXPEAVColSegment_LIST@2@@Z)
       1090  441 0000A3E9 ?GetTableRegions@TableFinder@tesseract@@IEAAXPEAVColSegment_LIST@2@0@Z = @ILT+37860(?GetTableRegions@TableFinder@tesseract@@IEAAXPEAVColSegment_LIST@2@0@Z)
       1091  442 00014411 ?GetTableRows@TessBaseAPI@tesseract@@QEAA?AV?$vector@V?$tuple@HHHH@std@@V?$allocator@V?$tuple@HHHH@std@@@2@@std@@I@Z = @ILT+78860(?GetTableRows@TessBaseAPI@tesseract@@QEAA?AV?$vector@V?$tuple@HHHH@std@@V?$allocator@V?$tuple@HHHH@std@@@2@@std@@I@Z)
       1092  443 0000EB8D ?GetTextDirection@TessBaseAPI@tesseract@@QEAA_NPEAHPEAM@Z = @ILT+56200(?GetTextDirection@TessBaseAPI@tesseract@@QEAA_NPEAHPEAM@Z)
       1093  444 0000B32A ?GetTextlines@TessBaseAPI@tesseract@@QEAAPEAUBoxa@@PEAPEAUPixa@@PEAPEAH@Z = @ILT+41765(?GetTextlines@TessBaseAPI@tesseract@@QEAAPEAUBoxa@@PEAPEAUPixa@@PEAPEAH@Z)
       1094  445 0001A370 ?GetTextlines@TessBaseAPI@tesseract@@QEAAPEAUBoxa@@_NHPEAPEAUPixa@@PEAPEAH2@Z = @ILT+103275(?GetTextlines@TessBaseAPI@tesseract@@QEAAPEAUBoxa@@_NHPEAPEAUPixa@@PEAPEAH2@Z)
       1095  446 000110D1 ?GetThresholdedImage@TessBaseAPI@tesseract@@QEAAPEAUPix@@XZ = @ILT+65740(?GetThresholdedImage@TessBaseAPI@tesseract@@QEAAPEAUPix@@XZ)
       1096  447 000156C7 ?GetThresholdedImageScaleFactor@TessBaseAPI@tesseract@@QEBAHXZ = @ILT+83650(?GetThresholdedImageScaleFactor@TessBaseAPI@tesseract@@QEBAHXZ)
       1097  448 00012882 ?GetTopScriptID@WERD_CHOICE@tesseract@@QEBAHXZ = @ILT+71805(?GetTopScriptID@WERD_CHOICE@tesseract@@QEBAHXZ)
       1098  449 00001244 ?GetUNLVText@TessBaseAPI@tesseract@@QEAAPEADXZ = @ILT+575(?GetUNLVText@TessBaseAPI@tesseract@@QEAAPEADXZ)
       1099  44A 00002E2D ?GetUTF8Text@ChoiceIterator@tesseract@@QEBAPEBDXZ = @ILT+7720(?GetUTF8Text@ChoiceIterator@tesseract@@QEBAPEBDXZ)
       1100  44B 0000F9AC ?GetUTF8Text@LTRResultIterator@tesseract@@QEBAPEADW4PageIteratorLevel@2@@Z = @ILT+59815(?GetUTF8Text@LTRResultIterator@tesseract@@QEBAPEADW4PageIteratorLevel@2@@Z)
       1101  44C 000145A6 ?GetUTF8Text@ResultIterator@tesseract@@UEBAPEADW4PageIteratorLevel@2@@Z = @ILT+79265(?GetUTF8Text@ResultIterator@tesseract@@UEBAPEADW4PageIteratorLevel@2@@Z)
       1102  44D 0000BA5F ?GetUTF8Text@TessBaseAPI@tesseract@@QEAAPEADXZ = @ILT+43610(?GetUTF8Text@TessBaseAPI@tesseract@@QEAAPEADXZ)
       1103  44E 00012805 ?GetUnambigDawg@Dict@tesseract@@QEBAPEBVDawg@2@XZ = @ILT+71680(?GetUnambigDawg@Dict@tesseract@@QEBAPEBVDawg@2@XZ)
       1104  44F 00009723 ?GetUnichar@TessBaseAPI@tesseract@@QEBAPEBDH@Z = @ILT+34590(?GetUnichar@TessBaseAPI@tesseract@@QEBAPEBDH@Z)
       1105  450 0001AA5A ?GetUnicharset@LSTMRecognizer@tesseract@@QEAAAEAVUNICHARSET@2@XZ = @ILT+105045(?GetUnicharset@LSTMRecognizer@tesseract@@QEAAAEAVUNICHARSET@2@XZ)
       1106  451 00003B8E ?GetUnicharset@LSTMRecognizer@tesseract@@QEBAAEBVUNICHARSET@2@XZ = @ILT+11145(?GetUnicharset@LSTMRecognizer@tesseract@@QEBAAEBVUNICHARSET@2@XZ)
       1107  452 0000DBF2 ?GetUnicharset@ShapeClassifier@tesseract@@UEBAAEBVUNICHARSET@2@XZ = @ILT+52205(?GetUnicharset@ShapeClassifier@tesseract@@UEBAAEBVUNICHARSET@2@XZ)
       1108  453 0000C351 ?GetUnicharset@TessClassifier@tesseract@@UEBAAEBVUNICHARSET@2@XZ = @ILT+45900(?GetUnicharset@TessClassifier@tesseract@@UEBAAEBVUNICHARSET@2@XZ)
       1109  454 00016487 ?GetVariableAsString@TessBaseAPI@tesseract@@QEBA_NPEBDPEAV?$basic_string@DU?$char_traits@D@std@@V?$allocator@D@2@@std@@@Z = @ILT+87170(?GetVariableAsString@TessBaseAPI@tesseract@@QEBA_NPEBDPEAV?$basic_string@DU?$char_traits@D@std@@V?$allocator@D@2@@std@@@Z)
       1110  455 0001B77F ?GetWordStrBoxText@TessBaseAPI@tesseract@@QEAAPEADH@Z = @ILT+108410(?GetWordStrBoxText@TessBaseAPI@tesseract@@QEAAPEADH@Z)
       1111  456 0001A67C ?GetWords@TessBaseAPI@tesseract@@QEAAPEAUBoxa@@PEAPEAUPixa@@@Z = @ILT+104055(?GetWords@TessBaseAPI@tesseract@@QEAAPEAUBoxa@@PEAPEAUPixa@@@Z)
       1112  457 000032E2 ?GlobalDawgCache@Dict@tesseract@@SAPEAVDawgCache@2@XZ = @ILT+8925(?GlobalDawgCache@Dict@tesseract@@SAPEAVDawgCache@2@XZ)
       1113  458 0001B2B1 ?GlobalParams@tesseract@@YAPEAUParamsVectors@1@XZ = @ILT+107180(?GlobalParams@tesseract@@YAPEAUParamsVectors@1@XZ)
       1114  459 0000DE95 ?GridCoords@GridBase@tesseract@@QEBAXHHPEAH0@Z = @ILT+52880(?GridCoords@GridBase@tesseract@@QEBAXHHPEAH0@Z)
       1115  45A 0000FBE6 ?GridFindMargins@ColPartitionGrid@tesseract@@QEAAXPEAPEAVColPartitionSet@2@@Z = @ILT+60385(?GridFindMargins@ColPartitionGrid@tesseract@@QEAAXPEAPEAVColPartitionSet@2@@Z)
       1116  45B 000184A8 ?GridInsertHLinePartitions@ColumnFinder@tesseract@@AEAAXXZ = @ILT+95395(?GridInsertHLinePartitions@ColumnFinder@tesseract@@AEAAXXZ)
       1117  45C 0000CD92 ?GridInsertVLinePartitions@ColumnFinder@tesseract@@AEAAXXZ = @ILT+48525(?GridInsertVLinePartitions@ColumnFinder@tesseract@@AEAAXXZ)
       1118  45D 00015168 ?GridMergeColumnBlocks@TableFinder@tesseract@@IEAAXXZ = @ILT+82275(?GridMergeColumnBlocks@TableFinder@tesseract@@IEAAXXZ)
       1119  45E 0001799F ?GridMergePartitions@ColumnFinder@tesseract@@AEAAXXZ = @ILT+92570(?GridMergePartitions@ColumnFinder@tesseract@@AEAAXXZ)
       1120  45F 0000894A ?GridMergeTableRegions@TableFinder@tesseract@@IEAAXXZ = @ILT+31045(?GridMergeTableRegions@TableFinder@tesseract@@IEAAXXZ)
       1121  460 0000654B ?GridRemoveUnderlinePartitions@ColumnFinder@tesseract@@AEAAXXZ = @ILT+21830(?GridRemoveUnderlinePartitions@ColumnFinder@tesseract@@AEAAXXZ)
       1122  461 0000A8A8 ?GridSmoothNeighbours@ColPartitionGrid@tesseract@@QEAA_NW4BlobTextFlowType@2@VImage@2@AEBVTBOX@2@AEBVFCOORD@2@@Z = @ILT+39075(?GridSmoothNeighbours@ColPartitionGrid@tesseract@@QEAA_NW4BlobTextFlowType@2@VImage@2@AEBVTBOX@2@AEBVFCOORD@2@@Z)
       1123  462 0001030C ?GridSplitPartitions@ColumnFinder@tesseract@@AEAAXXZ = @ILT+62215(?GridSplitPartitions@ColumnFinder@tesseract@@AEAAXXZ)
       1124  463 0000CC4D ?GroupColumnBlocks@TableFinder@tesseract@@IEAAXPEAVColSegment_LIST@2@0@Z = @ILT+48200(?GroupColumnBlocks@TableFinder@tesseract@@IEAAXPEAVColSegment_LIST@2@0@Z)
       1125  464 00007478 ?GrowTableBox@TableFinder@tesseract@@IEAAXAEBVTBOX@2@PEAV32@@Z = @ILT+25715(?GrowTableBox@TableFinder@tesseract@@IEAAXAEBVTBOX@2@PEAV32@@Z)
       1126  465 000192DB ?GrowTableToIncludeLines@TableFinder@tesseract@@IEAAXAEBVTBOX@2@0PEAV32@@Z = @ILT+99030(?GrowTableToIncludeLines@TableFinder@tesseract@@IEAAXAEBVTBOX@2@0PEAV32@@Z)
       1127  466 0000B8E8 ?GrowTableToIncludePartials@TableFinder@tesseract@@IEAAXAEBVTBOX@2@0PEAV32@@Z = @ILT+43235(?GrowTableToIncludePartials@TableFinder@tesseract@@IEAAXAEBVTBOX@2@0PEAV32@@Z)
       1128  467 0001742C ?GutterWidth@TabFind@tesseract@@QEAAHHHAEBVTabVector@2@_NHPEAH@Z = @ILT+91175(?GutterWidth@TabFind@tesseract@@QEAAHHHAEBVTabVector@2@_NHPEAH@Z)
       1129  468 00016879 ?GutterWidthAndNeighbourGap@TabFind@tesseract@@QEAAXHHH_NPEAVBLOBNBOX@2@PEAH2@Z = @ILT+88180(?GutterWidthAndNeighbourGap@TabFind@tesseract@@QEAAXHHH_NPEAVBLOBNBOX@2@PEAH2@Z)
       1130  469 0000F33F ?HCoreOverlap@ColPartition@tesseract@@QEBAHAEBV12@@Z = @ILT+58170(?HCoreOverlap@ColPartition@tesseract@@QEBAHAEBV12@@Z)
       1131  46A 0000FBD7 ?HLineBelongsToTable@TableFinder@tesseract@@IEAA_NAEBVColPartition@2@AEBVTBOX@2@@Z = @ILT+60370(?HLineBelongsToTable@TableFinder@tesseract@@IEAA_NAEBVColPartition@2@AEBVTBOX@2@@Z)
       1132  46B 0000AB23 ?HOverlaps@ColPartition@tesseract@@QEBA_NAEBV12@@Z = @ILT+39710(?HOverlaps@ColPartition@tesseract@@QEBA_NAEBV12@@Z)
       1133  46C 000083A5 ?HandleClick@?$BBGrid@VBLOBNBOX@tesseract@@VBLOBNBOX_CLIST@2@VBLOBNBOX_C_IT@2@@tesseract@@UEAAXHH@Z = @ILT+29600(?HandleClick@?$BBGrid@VBLOBNBOX@tesseract@@VBLOBNBOX_CLIST@2@VBLOBNBOX_C_IT@2@@tesseract@@UEAAXHH@Z)
       1134  46D 000179F4 ?HandleClick@?$BBGrid@VColPartition@tesseract@@VColPartition_CLIST@2@VColPartition_C_IT@2@@tesseract@@UEAAXHH@Z = @ILT+92655(?HandleClick@?$BBGrid@VColPartition@tesseract@@VColPartition_CLIST@2@VColPartition_C_IT@2@@tesseract@@UEAAXHH@Z)
       1135  46E 0001C34B ?HandleClick@ColPartitionGrid@tesseract@@UEAAXHH@Z = @ILT+111430(?HandleClick@ColPartitionGrid@tesseract@@UEAAXHH@Z)
       1136  46F 0000138E ?HasBlamerInfo@LTRResultIterator@tesseract@@QEBA_NXZ = @ILT+905(?HasBlamerInfo@LTRResultIterator@tesseract@@QEBA_NXZ)
       1137  470 0001BB71 ?HasGoodBaseline@ColPartition@tesseract@@QEAA_NXZ = @ILT+109420(?HasGoodBaseline@ColPartition@tesseract@@QEAA_NXZ)
       1138  471 00019B0F ?HasLeaderAdjacent@TableFinder@tesseract@@IEAA_NAEBVColPartition@2@@Z = @ILT+101130(?HasLeaderAdjacent@TableFinder@tesseract@@IEAA_NAEBVColPartition@2@@Z)
       1139  472 00018FE8 ?HasSignificantLines@TableRecognizer@tesseract@@IEAA_NAEBVTBOX@2@@Z = @ILT+98275(?HasSignificantLines@TableRecognizer@tesseract@@IEAA_NAEBVTBOX@2@@Z)
       1140  473 00006109 ?HasTruthString@LTRResultIterator@tesseract@@QEBA_NXZ = @ILT+20740(?HasTruthString@LTRResultIterator@tesseract@@QEBA_NXZ)
       1141  474 000097A0 ?HasWideOrNoInterWordGap@TableFinder@tesseract@@IEBA_NPEAVColPartition@2@@Z = @ILT+34715(?HasWideOrNoInterWordGap@TableFinder@tesseract@@IEBA_NPEAVColPartition@2@@Z)
       1142  475 00012D91 ?HorizontalDistance@TextlineProjection@tesseract@@QEBAH_NHHH@Z = @ILT+73100(?HorizontalDistance@TextlineProjection@tesseract@@QEBAH_NHHH@Z)
       1143  476 00012E63 ?HyphenBoxesOverlap@WERD_RES@tesseract@@QEAA_NAEBVTBOX@2@0@Z = @ILT+73310(?HyphenBoxesOverlap@WERD_RES@tesseract@@QEAA_NAEBVTBOX@2@0@Z)
       1144  477 00019B23 ?IdentifyBlobsToSkip@EquationDetect@tesseract@@IEAAXPEAVColPartition@2@@Z = @ILT+101150(?IdentifyBlobsToSkip@EquationDetect@tesseract@@IEAAXPEAVColPartition@2@@Z)
       1145  478 00002E37 ?IdentifyInlineParts@EquationDetect@tesseract@@IEAAXXZ = @ILT+7730(?IdentifyInlineParts@EquationDetect@tesseract@@IEAAXXZ)
       1146  479 00005DD5 ?IdentifyInlinePartsHorizontal@EquationDetect@tesseract@@IEAAXXZ = @ILT+19920(?IdentifyInlinePartsHorizontal@EquationDetect@tesseract@@IEAAXXZ)
       1147  47A 0000B730 ?IdentifyInlinePartsVertical@EquationDetect@tesseract@@IEAAX_NH@Z = @ILT+42795(?IdentifyInlinePartsVertical@EquationDetect@tesseract@@IEAAX_NH@Z)
       1148  47B 00008AF8 ?IdentifySeedParts@EquationDetect@tesseract@@IEAAXXZ = @ILT+31475(?IdentifySeedParts@EquationDetect@tesseract@@IEAAXXZ)
       1149  47C 0001403D ?IdentifySpecialText@EquationDetect@tesseract@@IEAAXPEAVBLOBNBOX@2@H@Z = @ILT+77880(?IdentifySpecialText@EquationDetect@tesseract@@IEAAXPEAVBLOBNBOX@2@H@Z)
       1150  47D 0000EE94 ?IdentifySpecialText@EquationDetect@tesseract@@IEAAXXZ = @ILT+56975(?IdentifySpecialText@EquationDetect@tesseract@@IEAAXXZ)
       1151  47E 0001D3A9 ?ImageHeight@Tesseract@tesseract@@QEBAHXZ = @ILT+115620(?ImageHeight@Tesseract@tesseract@@QEBAHXZ)
       1152  47F 00007496 ?ImageWidth@Tesseract@tesseract@@QEBAHXZ = @ILT+25745(?ImageWidth@Tesseract@tesseract@@QEBAHXZ)
       1153  480 000124B3 ?ImageXToProjectionX@TextlineProjection@tesseract@@AEBAHH@Z = @ILT+70830(?ImageXToProjectionX@TextlineProjection@tesseract@@AEBAHH@Z)
       1154  481 0000C0C2 ?ImageYToProjectionY@TextlineProjection@tesseract@@AEBAHH@Z = @ILT+45245(?ImageYToProjectionY@TextlineProjection@tesseract@@AEBAHH@Z)
       1155  482 0000ECEB ?ImproveColumnCandidates@ColumnFinder@tesseract@@AEAAXPEAV?$vector@PEAVColPartitionSet@tesseract@@V?$allocator@PEAVColPartitionSet@tesseract@@@std@@@std@@0@Z = @ILT+56550(?ImproveColumnCandidates@ColumnFinder@tesseract@@AEAAXPEAV?$vector@PEAVColPartitionSet@tesseract@@V?$allocator@PEAVColPartitionSet@tesseract@@@std@@@std@@0@Z)
       1156  483 00012C6A ?IncludeLeftOutColumnHeaders@TableFinder@tesseract@@IEAAXPEAVTBOX@2@@Z = @ILT+72805(?IncludeLeftOutColumnHeaders@TableFinder@tesseract@@IEAAXPEAVTBOX@2@@Z)
       1157  484 0000416F ?IncrementRectangle8Bit@TextlineProjection@tesseract@@AEAAXAEBVTBOX@2@@Z = @ILT+12650(?IncrementRectangle8Bit@TextlineProjection@tesseract@@AEAAXAEBVTBOX@2@@Z)
       1158  485 0001A85C ?Index@IntFeatureSpace@tesseract@@QEBAHAEBUINT_FEATURE_STRUCT@2@@Z = @ILT+104535(?Index@IntFeatureSpace@tesseract@@QEBAHAEBUINT_FEATURE_STRUCT@2@@Z)
       1159  486 0001346C ?IndexAndSortFeatures@IntFeatureSpace@tesseract@@QEBAXPEBUINT_FEATURE_STRUCT@2@HPEAV?$vector@HV?$allocator@H@std@@@std@@@Z = @ILT+74855(?IndexAndSortFeatures@IntFeatureSpace@tesseract@@QEBAXPEBUINT_FEATURE_STRUCT@2@HPEAV?$vector@HV?$allocator@H@std@@@std@@@Z)
       1160  487 0001052D ?IndexFeatures@IntFeatureSpace@tesseract@@QEBAXPEBUINT_FEATURE_STRUCT@2@HPEAV?$vector@HV?$allocator@H@std@@@std@@@Z = @ILT+62760(?IndexFeatures@IntFeatureSpace@tesseract@@QEBAXPEBUINT_FEATURE_STRUCT@2@HPEAV?$vector@HV?$allocator@H@std@@@std@@@Z)
       1161  488 00003DF5 ?IndexFeatures@TrainingSample@tesseract@@QEAAXAEBVIntFeatureSpace@2@@Z = @ILT+11760(?IndexFeatures@TrainingSample@tesseract@@QEAAXAEBVIntFeatureSpace@2@@Z)
       1162  489 000019C9 ?Init@?$BBGrid@VBLOBNBOX@tesseract@@VBLOBNBOX_CLIST@2@VBLOBNBOX_C_IT@2@@tesseract@@QEAAXHAEBVICOORD@2@0@Z = @ILT+2500(?Init@?$BBGrid@VBLOBNBOX@tesseract@@VBLOBNBOX_CLIST@2@VBLOBNBOX_C_IT@2@@tesseract@@QEAAXHAEBVICOORD@2@0@Z)
       1163  48A 00009EF8 ?Init@?$BBGrid@VColPartition@tesseract@@VColPartition_CLIST@2@VColPartition_C_IT@2@@tesseract@@QEAAXHAEBVICOORD@2@0@Z = @ILT+36595(?Init@?$BBGrid@VColPartition@tesseract@@VColPartition_CLIST@2@VColPartition_C_IT@2@@tesseract@@QEAAXHAEBVICOORD@2@0@Z)
       1164  48B 0001BABD ?Init@BitVector@tesseract@@QEAAXH@Z = @ILT+109240(?Init@BitVector@tesseract@@QEAAXH@Z)
       1165  48C 0000B609 ?Init@DENORM@tesseract@@AEAAXXZ = @ILT+42500(?Init@DENORM@tesseract@@AEAAXXZ)
       1166  48D 000158AC ?Init@GridBase@tesseract@@QEAAXHAEBVICOORD@2@0@Z = @ILT+84135(?Init@GridBase@tesseract@@QEAAXHAEBVICOORD@2@0@Z)
       1167  48E 00006B1D ?Init@ImageThresholder@tesseract@@MEAAXXZ = @ILT+23320(?Init@ImageThresholder@tesseract@@MEAAXXZ)
       1168  48F 0001291D ?Init@IndexMapBiDi@tesseract@@QEAAXH_N@Z = @ILT+71960(?Init@IndexMapBiDi@tesseract@@QEAAXH_N@Z)
       1169  490 000055D3 ?Init@IntFeatureSpace@tesseract@@QEAAXEEE@Z = @ILT+17870(?Init@IntFeatureSpace@tesseract@@QEAAXEEE@Z)
       1170  491 00002504 ?Init@IntSimdMatrix@tesseract@@QEBAXAEBV?$GENERIC_2D_ARRAY@C@2@AEAV?$vector@CV?$allocator@C@std@@@std@@AEAH@Z = @ILT+5375(?Init@IntSimdMatrix@tesseract@@QEBAXAEBV?$GENERIC_2D_ARRAY@C@2@AEAV?$vector@CV?$allocator@C@std@@@std@@AEAH@Z)
       1171  492 000124DB ?Init@StructuredTable@tesseract@@QEAAXXZ = @ILT+70870(?Init@StructuredTable@tesseract@@QEAAXXZ)
       1172  493 00018FED ?Init@TableFinder@tesseract@@QEAAXHAEBVICOORD@2@0@Z = @ILT+98280(?Init@TableFinder@tesseract@@QEAAXHAEBVICOORD@2@0@Z)
       1173  494 00016E2D ?Init@TableRecognizer@tesseract@@QEAAXXZ = @ILT+89640(?Init@TableRecognizer@tesseract@@QEAAXXZ)
       1174  495 0001B84C ?Init@TessBaseAPI@tesseract@@QEAAHPEBD0@Z = @ILT+108615(?Init@TessBaseAPI@tesseract@@QEAAHPEBD0@Z)
       1175  496 00016D97 ?Init@TessBaseAPI@tesseract@@QEAAHPEBD0W4OcrEngineMode@2@@Z = @ILT+89490(?Init@TessBaseAPI@tesseract@@QEAAHPEBD0W4OcrEngineMode@2@@Z)
       1176  497 0001D025 ?Init@TessBaseAPI@tesseract@@QEAAHPEBD0W4OcrEngineMode@2@PEAPEADHPEBV?$vector@V?$basic_string@DU?$char_traits@D@std@@V?$allocator@D@2@@std@@V?$allocator@V?$basic_string@DU?$char_traits@D@std@@V?$allocator@D@2@@std@@@2@@std@@3_N@Z = @ILT+114720(?Init@TessBaseAPI@tesseract@@QEAAHPEBD0W4OcrEngineMode@2@PEAPEADHPEBV?$vector@V?$basic_string@DU?$char_traits@D@std@@V?$allocator@D@2@@std@@V?$allocator@V?$basic_string@DU?$char_traits@D@std@@V?$allocator@D@2@@std@@@2@@std@@3_N@Z)
       1177  498 0000D3AA ?Init@TessBaseAPI@tesseract@@QEAAHPEBDH0W4OcrEngineMode@2@PEAPEADHPEBV?$vector@V?$basic_string@DU?$char_traits@D@std@@V?$allocator@D@2@@std@@V?$allocator@V?$basic_string@DU?$char_traits@D@std@@V?$allocator@D@2@@std@@@2@@std@@3_NP6A_N0PEAV?$vector@DV?$allocator@D@std@@@5@@Z@Z = @ILT+50085(?Init@TessBaseAPI@tesseract@@QEAAHPEBDH0W4OcrEngineMode@2@PEAPEADHPEBV?$vector@V?$basic_string@DU?$char_traits@D@std@@V?$allocator@D@2@@std@@V?$allocator@V?$basic_string@DU?$char_traits@D@std@@V?$allocator@D@2@@std@@@2@@std@@3_NP6A_N0PEAV?$vector@DV?$allocator@D@std@@@5@@Z@Z)
       1178  499 0001D381 ?Init@TessdataManager@tesseract@@QEAA_NPEBD@Z = @ILT+115580(?Init@TessdataManager@tesseract@@QEAA_NPEBD@Z)
       1179  49A 00011B21 ?Init@UNICHAR_PROPERTIES@UNICHARSET@tesseract@@QEAAXXZ = @ILT+68380(?Init@UNICHAR_PROPERTIES@UNICHARSET@tesseract@@QEAAXXZ)
       1180  49B 0000D0A8 ?InitAdaptedClass@Classify@tesseract@@QEAAXPEAUTBLOB@2@HHPEAUADAPT_CLASS_STRUCT@2@PEAVADAPT_TEMPLATES_STRUCT@2@@Z = @ILT+49315(?InitAdaptedClass@Classify@tesseract@@QEAAXPEAUTBLOB@2@HHPEAUADAPT_CLASS_STRUCT@2@PEAVADAPT_TEMPLATES_STRUCT@2@@Z)
       1181  49C 00005F4C ?InitAdaptiveClassifier@Classify@tesseract@@QEAAXPEAVTessdataManager@2@@Z = @ILT+20295(?InitAdaptiveClassifier@Classify@tesseract@@QEAAXPEAVTessdataManager@2@@Z)
       1182  49D 000124B8 ?InitAndSetupRange@IndexMapBiDi@tesseract@@QEAAXHHH@Z = @ILT+70835(?InitAndSetupRange@IndexMapBiDi@tesseract@@QEAAXHHH@Z)
       1183  49E 00011C48 ?InitBlamerForSegSearch@Wordrec@tesseract@@IEAAXPEAVWERD_RES@2@PEAVLMPainPoints@2@PEAUBlamerBundle@2@AEAV?$basic_string@DU?$char_traits@D@std@@V?$allocator@D@2@@std@@@Z = @ILT+68675(?InitBlamerForSegSearch@Wordrec@tesseract@@IEAAXPEAVWERD_RES@2@PEAVLMPainPoints@2@PEAUBlamerBundle@2@AEAV?$basic_string@DU?$char_traits@D@std@@V?$allocator@D@2@@std@@@Z)
       1184  49F 00011644 ?InitFeatureDefs@tesseract@@YAXPEAUFEATURE_DEFS_STRUCT@1@@Z = @ILT+67135(?InitFeatureDefs@tesseract@@YAXPEAUFEATURE_DEFS_STRUCT@1@@Z)
       1185  4A0 0000910B ?InitForAnalysePage@TessBaseAPI@tesseract@@QEAAXXZ = @ILT+33030(?InitForAnalysePage@TessBaseAPI@tesseract@@QEAAXXZ)
       1186  4A1 000065F0 ?InitForRetryRecognition@WERD_RES@tesseract@@QEAAXAEBV12@@Z = @ILT+21995(?InitForRetryRecognition@WERD_RES@tesseract@@QEAAXAEBV12@@Z)
       1187  4A2 00005579 ?InitIntegerFX@tesseract@@YAXXZ = @ILT+17780(?InitIntegerFX@tesseract@@YAXXZ)
       1188  4A3 00001249 ?InitLangMod@TessBaseAPI@tesseract@@QEAAHPEBD0@Z = @ILT+580(?InitLangMod@TessBaseAPI@tesseract@@QEAAHPEBD0@Z)
       1189  4A4 0001497F ?InitWeights@Network@tesseract@@UEAAHMPEAVTRand@2@@Z = @ILT+80250(?InitWeights@Network@tesseract@@UEAAHMPEAVTRand@2@@Z)
       1190  4A5 000025A4 ?InitialSegSearch@Wordrec@tesseract@@QEAAXPEAVWERD_RES@2@PEAVLMPainPoints@2@PEAV?$vector@VSegSearchPending@tesseract@@V?$allocator@VSegSearchPending@tesseract@@@std@@@std@@PEAUBestChoiceBundle@2@PEAUBlamerBundle@2@@Z = @ILT+5535(?InitialSegSearch@Wordrec@tesseract@@QEAAXPEAVWERD_RES@2@PEAVLMPainPoints@2@PEAV?$vector@VSegSearchPending@tesseract@@V?$allocator@VSegSearchPending@tesseract@@@std@@@std@@PEAUBestChoiceBundle@2@PEAUBlamerBundle@2@@Z)
       1191  4A6 0000B208 ?Initialize@ScrollView@tesseract@@AEAAXPEBDHHHHHH_N0@Z = @ILT+41475(?Initialize@ScrollView@tesseract@@AEAAXPEBDHHHHHH_N0@Z)
       1192  4A7 0000AD9E ?InitializePartitions@TableFinder@tesseract@@IEAAXPEAPEAVColPartitionSet@2@@Z = @ILT+40345(?InitializePartitions@TableFinder@tesseract@@IEAAXPEAPEAVColPartitionSet@2@@Z)
       1193  4A8 0001884A ?InitializeWord@RecodeBeamSearch@tesseract@@AEAAPEAVWERD_RES@2@_NAEBVTBOX@2@HHMPEBVUNICHARSET@2@AEBV?$vector@HV?$allocator@H@std@@@std@@M@Z = @ILT+96325(?InitializeWord@RecodeBeamSearch@tesseract@@AEAAPEAVWERD_RES@2@_NAEBVTBOX@2@HHMPEBVUNICHARSET@2@AEBV?$vector@HV?$allocator@H@std@@@std@@M@Z)
       1194  4A9 0000DE4F ?Initialized@ParamsModel@tesseract@@QEAA_NXZ = @ILT+52810(?Initialized@ParamsModel@tesseract@@QEAA_NXZ)
       1195  4AA 000054B6 ?InputShape@Network@tesseract@@UEBA?AVStaticShape@2@XZ = @ILT+17585(?InputShape@Network@tesseract@@UEBA?AVStaticShape@2@XZ)
       1196  4AB 0001555F ?InsertBBox@?$BBGrid@VBLOBNBOX@tesseract@@VBLOBNBOX_CLIST@2@VBLOBNBOX_C_IT@2@@tesseract@@QEAAX_N0PEAVBLOBNBOX@2@@Z = @ILT+83290(?InsertBBox@?$BBGrid@VBLOBNBOX@tesseract@@VBLOBNBOX_CLIST@2@VBLOBNBOX_C_IT@2@@tesseract@@QEAAX_N0PEAVBLOBNBOX@2@@Z)
       1197  4AC 00010A23 ?InsertBBox@?$BBGrid@VColPartition@tesseract@@VColPartition_CLIST@2@VColPartition_C_IT@2@@tesseract@@QEAAX_N0PEAVColPartition@2@@Z = @ILT+64030(?InsertBBox@?$BBGrid@VColPartition@tesseract@@VColPartition_CLIST@2@VColPartition_C_IT@2@@tesseract@@QEAAX_N0PEAVColPartition@2@@Z)
       1198  4AD 0000CE1E ?InsertBlob@TabFind@tesseract@@QEAA_N_N0PEAVBLOBNBOX@2@PEAV?$BBGrid@VBLOBNBOX@tesseract@@VBLOBNBOX_CLIST@2@VBLOBNBOX_C_IT@2@@2@@Z = @ILT+48665(?InsertBlob@TabFind@tesseract@@QEAA_N_N0PEAVBLOBNBOX@2@PEAV?$BBGrid@VBLOBNBOX@tesseract@@VBLOBNBOX_CLIST@2@VBLOBNBOX_C_IT@2@@2@@Z)
       1199  4AE 00014DFD ?InsertBlobList@BlobGrid@tesseract@@QEAAXPEAVBLOBNBOX_LIST@2@@Z = @ILT+81400(?InsertBlobList@BlobGrid@tesseract@@QEAAXPEAVBLOBNBOX_LIST@2@@Z)
       1200  4AF 00008305 ?InsertBlobsToGrid@TabFind@tesseract@@QEAAX_N0PEAVBLOBNBOX_LIST@2@PEAV?$BBGrid@VBLOBNBOX@tesseract@@VBLOBNBOX_CLIST@2@VBLOBNBOX_C_IT@2@@2@@Z = @ILT+29440(?InsertBlobsToGrid@TabFind@tesseract@@QEAAX_N0PEAVBLOBNBOX_LIST@2@PEAV?$BBGrid@VBLOBNBOX@tesseract@@VBLOBNBOX_CLIST@2@VBLOBNBOX_C_IT@2@@2@@Z)
       1201  4B0 00008A8A ?InsertCleanPartitions@TableFinder@tesseract@@QEAAXPEAVColPartitionGrid@2@PEAVTO_BLOCK@2@@Z = @ILT+31365(?InsertCleanPartitions@TableFinder@tesseract@@QEAAXPEAVColPartitionGrid@2@PEAVTO_BLOCK@2@@Z)
       1202  4B1 00006B54 ?InsertFragmentedTextPartition@TableFinder@tesseract@@IEAAXPEAVColPartition@2@@Z = @ILT+23375(?InsertFragmentedTextPartition@TableFinder@tesseract@@IEAAXPEAVColPartition@2@@Z)
       1203  4B2 0000CB4E ?InsertImagePartition@TableFinder@tesseract@@IEAAXPEAVColPartition@2@@Z = @ILT+47945(?InsertImagePartition@TableFinder@tesseract@@IEAAXPEAVColPartition@2@@Z)
       1204  4B3 00005407 ?InsertLeaderPartition@TableFinder@tesseract@@IEAAXPEAVColPartition@2@@Z = @ILT+17410(?InsertLeaderPartition@TableFinder@tesseract@@IEAAXPEAVColPartition@2@@Z)
       1205  4B4 00017689 ?InsertPartAfterAbsorb@EquationDetect@tesseract@@IEAAXPEAVColPartition@2@@Z = @ILT+91780(?InsertPartAfterAbsorb@EquationDetect@tesseract@@IEAAXPEAVColPartition@2@@Z)
       1206  4B5 00008C29 ?InsertPixPtBBox@?$BBGrid@VBLOBNBOX@tesseract@@VBLOBNBOX_CLIST@2@VBLOBNBOX_C_IT@2@@tesseract@@QEAAXHHVImage@2@PEAVBLOBNBOX@2@@Z = @ILT+31780(?InsertPixPtBBox@?$BBGrid@VBLOBNBOX@tesseract@@VBLOBNBOX_CLIST@2@VBLOBNBOX_C_IT@2@@tesseract@@QEAAXHHVImage@2@PEAVBLOBNBOX@2@@Z)
       1207  4B6 00008DD7 ?InsertPixPtBBox@?$BBGrid@VColPartition@tesseract@@VColPartition_CLIST@2@VColPartition_C_IT@2@@tesseract@@QEAAXHHVImage@2@PEAVColPartition@2@@Z = @ILT+32210(?InsertPixPtBBox@?$BBGrid@VColPartition@tesseract@@VColPartition_CLIST@2@VColPartition_C_IT@2@@tesseract@@QEAAXHHVImage@2@PEAVColPartition@2@@Z)
       1208  4B7 00002563 ?InsertRemainingNoise@ColumnFinder@tesseract@@AEAAXPEAVTO_BLOCK@2@@Z = @ILT+5470(?InsertRemainingNoise@ColumnFinder@tesseract@@AEAAXPEAVTO_BLOCK@2@@Z)
       1209  4B8 00018831 ?InsertRulingPartition@TableFinder@tesseract@@IEAAXPEAVColPartition@2@@Z = @ILT+96300(?InsertRulingPartition@TableFinder@tesseract@@IEAAXPEAVColPartition@2@@Z)
       1210  4B9 000138A9 ?InsertSeam@WERD_RES@tesseract@@QEAAXHPEAVSEAM@2@@Z = @ILT+75940(?InsertSeam@WERD_RES@tesseract@@QEAAXHPEAVSEAM@2@@Z)
       1211  4BA 0001BF4F ?InsertSimpleCloneWord@PAGE_RES_IT@tesseract@@QEAAPEAVWERD_RES@2@AEBV32@PEAVWERD@2@@Z = @ILT+110410(?InsertSimpleCloneWord@PAGE_RES_IT@tesseract@@QEAAPEAVWERD_RES@2@AEBV32@PEAVWERD@2@@Z)
       1212  4BB 0000B032 ?InsertTextPartition@TableFinder@tesseract@@IEAAXPEAVColPartition@2@@Z = @ILT+41005(?InsertTextPartition@TableFinder@tesseract@@IEAAXPEAVColPartition@2@@Z)
       1213  4BC 0000FB91 ?InternalSetImage@TessBaseAPI@tesseract@@IEAA_NXZ = @ILT+60300(?InternalSetImage@TessBaseAPI@tesseract@@IEAA_NXZ)
       1214  4BD 00013AAC ?IsAllSpaces@WERD_CHOICE@tesseract@@QEBA_NXZ = @ILT+76455(?IsAllSpaces@WERD_CHOICE@tesseract@@QEBA_NXZ)
       1215  4BE 000115C7 ?IsAmbiguous@WERD_RES@tesseract@@QEAA_NXZ = @ILT+67010(?IsAmbiguous@WERD_RES@tesseract@@QEAA_NXZ)
       1216  4BF 00005C7C ?IsAtBeginningOf@PageIterator@tesseract@@UEBA_NW4PageIteratorLevel@2@@Z = @ILT+19575(?IsAtBeginningOf@PageIterator@tesseract@@UEBA_NW4PageIteratorLevel@2@@Z)
       1217  4C0 0001C44F ?IsAtBeginningOf@ResultIterator@tesseract@@UEBA_NW4PageIteratorLevel@2@@Z = @ILT+111690(?IsAtBeginningOf@ResultIterator@tesseract@@UEBA_NW4PageIteratorLevel@2@@Z)
       1218  4C1 00003B6B ?IsAtFinalElement@PageIterator@tesseract@@UEBA_NW4PageIteratorLevel@2@0@Z = @ILT+11110(?IsAtFinalElement@PageIterator@tesseract@@UEBA_NW4PageIteratorLevel@2@0@Z)
       1219  4C2 0001AB2C ?IsAtFinalElement@ResultIterator@tesseract@@UEBA_NW4PageIteratorLevel@2@0@Z = @ILT+105255(?IsAtFinalElement@ResultIterator@tesseract@@UEBA_NW4PageIteratorLevel@2@0@Z)
       1220  4C3 000160A4 ?IsAtFinalSymbolOfWord@ResultIterator@tesseract@@AEBA_NXZ = @ILT+86175(?IsAtFinalSymbolOfWord@ResultIterator@tesseract@@AEBA_NXZ)
       1221  4C4 0000809E ?IsAtFirstSymbolOfWord@ResultIterator@tesseract@@AEBA_NXZ = @ILT+28825(?IsAtFirstSymbolOfWord@ResultIterator@tesseract@@AEBA_NXZ)
       1222  4C5 00018A5C ?IsBaseAvailable@TessdataManager@tesseract@@QEBA_NXZ = @ILT+96855(?IsBaseAvailable@TessdataManager@tesseract@@QEBA_NXZ)
       1223  4C6 0000939A ?IsBinary@ImageThresholder@tesseract@@QEBA_NXZ = @ILT+33685(?IsBinary@ImageThresholder@tesseract@@QEBA_NXZ)
       1224  4C7 000057EF ?IsColor@ImageThresholder@tesseract@@QEBA_NXZ = @ILT+18410(?IsColor@ImageThresholder@tesseract@@QEBA_NXZ)
       1225  4C8 00011CF2 ?IsCompactDeleted@IndexMapBiDi@tesseract@@QEBA_NH@Z = @ILT+68845(?IsCompactDeleted@IndexMapBiDi@tesseract@@QEBA_NH@Z)
       1226  4C9 00018B5B ?IsComponentAvailable@TessdataManager@tesseract@@QEBA_NW4TessdataType@2@@Z = @ILT+97110(?IsComponentAvailable@TessdataManager@tesseract@@QEBA_NW4TessdataType@2@@Z)
       1227  4CA 00015857 ?IsDawgFromBeamsIndex@RecodeBeamSearch@tesseract@@SA_NH@Z = @ILT+84050(?IsDawgFromBeamsIndex@RecodeBeamSearch@tesseract@@SA_NH@Z)
       1228  4CB 00008F26 ?IsEmpty@ColPartition@tesseract@@QEBA_NXZ = @ILT+32545(?IsEmpty@ColPartition@tesseract@@QEBA_NXZ)
       1229  4CC 00005C4A ?IsEmpty@ImageThresholder@tesseract@@QEBA_NXZ = @ILT+19525(?IsEmpty@ImageThresholder@tesseract@@QEBA_NXZ)
       1230  4CD 0001A5DC ?IsEqualUnichars@Shape@tesseract@@QEAA_NPEAV12@@Z = @ILT+103895(?IsEqualUnichars@Shape@tesseract@@QEAA_NPEAV12@@Z)
       1231  4CE 000097F0 ?IsFullImage@ImageThresholder@tesseract@@IEBA_NXZ = @ILT+34795(?IsFullImage@ImageThresholder@tesseract@@IEBA_NXZ)
       1232  4CF 000142A9 ?IsHorizontalLine@ColPartition@tesseract@@QEBA_NXZ = @ILT+78500(?IsHorizontalLine@ColPartition@tesseract@@QEBA_NXZ)
       1233  4D0 0000C743 ?IsHorizontalType@ColPartition@tesseract@@QEBA_NXZ = @ILT+46910(?IsHorizontalType@ColPartition@tesseract@@QEBA_NXZ)
       1234  4D1 0001A95B ?IsImageType@ColPartition@tesseract@@QEBA_NXZ = @ILT+104790(?IsImageType@ColPartition@tesseract@@QEBA_NXZ)
       1235  4D2 000048BD ?IsInSameColumnAs@ColPartition@tesseract@@QEBA_NAEBV12@@Z = @ILT+14520(?IsInSameColumnAs@ColPartition@tesseract@@QEBA_NAEBV12@@Z)
       1236  4D3 0001BEC8 ?IsIndented@EquationDetect@tesseract@@IEAA?AW4IndentType@12@PEAVColPartition@2@@Z = @ILT+110275(?IsIndented@EquationDetect@tesseract@@IEAA?AW4IndentType@12@PEAVColPartition@2@@Z)
       1237  4D4 000117A7 ?IsInline@EquationDetect@tesseract@@IEAA_N_NHPEAVColPartition@2@@Z = @ILT+67490(?IsInline@EquationDetect@tesseract@@IEAA_N_NHPEAVColPartition@2@@Z)
       1238  4D5 00005277 ?IsIntMode@LSTMRecognizer@tesseract@@QEBA_NXZ = @ILT+17010(?IsIntMode@LSTMRecognizer@tesseract@@QEBA_NXZ)
       1239  4D6 00012954 ?IsLSTMAvailable@TessdataManager@tesseract@@QEBA_NXZ = @ILT+72015(?IsLSTMAvailable@TessdataManager@tesseract@@QEBA_NXZ)
       1240  4D7 0001896C ?IsLeftOf@ColPartition@tesseract@@QEBA_NAEBV12@@Z = @ILT+96615(?IsLeftOf@ColPartition@tesseract@@QEBA_NAEBV12@@Z)
       1241  4D8 00006546 ?IsLegal@ColPartition@tesseract@@QEAA_NXZ = @ILT+21825(?IsLegal@ColPartition@tesseract@@QEAA_NXZ)
       1242  4D9 0001B5E5 ?IsLineType@ColPartition@tesseract@@QEBA_NXZ = @ILT+108000(?IsLineType@ColPartition@tesseract@@QEBA_NXZ)
       1243  4DA 0000F28B ?IsMathBlockSatellite@EquationDetect@tesseract@@IEAA_NPEAVColPartition@2@PEAV?$vector@PEAVColPartition@tesseract@@V?$allocator@PEAVColPartition@tesseract@@@std@@@std@@@Z = @ILT+57990(?IsMathBlockSatellite@EquationDetect@tesseract@@IEAA_NPEAVColPartition@2@PEAV?$vector@PEAVColPartition@tesseract@@V?$allocator@PEAVColPartition@tesseract@@@std@@@std@@@Z)
       1244  4DB 0000E82C ?IsNearMathNeighbor@EquationDetect@tesseract@@IEBA_NHPEBVColPartition@2@@Z = @ILT+55335(?IsNearMathNeighbor@EquationDetect@tesseract@@IEBA_NHPEBVColPartition@2@@Z)
       1245  4DC 0001C030 ?IsNearSmallNeighbor@EquationDetect@tesseract@@IEBA_NAEBVTBOX@2@0@Z = @ILT+110635(?IsNearSmallNeighbor@EquationDetect@tesseract@@IEBA_NAEBVTBOX@2@0@Z)
       1246  4DD 00014A51 ?IsPlumbingType@Network@tesseract@@UEBA_NXZ = @ILT+80460(?IsPlumbingType@Network@tesseract@@UEBA_NXZ)
       1247  4DE 00005349 ?IsPulloutType@ColPartition@tesseract@@QEBA_NXZ = @ILT+17220(?IsPulloutType@ColPartition@tesseract@@QEBA_NXZ)
       1248  4DF 0000ADEE ?IsRecoding@LSTMRecognizer@tesseract@@QEBA_NXZ = @ILT+40425(?IsRecoding@LSTMRecognizer@tesseract@@QEBA_NXZ)
       1249  4E0 000076D0 ?IsSingleton@ColPartition@tesseract@@QEBA_NXZ = @ILT+26315(?IsSingleton@ColPartition@tesseract@@QEBA_NXZ)
       1250  4E1 0000B3DE ?IsSpaceDelimited@UNICHARSET@tesseract@@QEBA_NH@Z = @ILT+41945(?IsSpaceDelimited@UNICHARSET@tesseract@@QEBA_NH@Z)
       1251  4E2 00010B09 ?IsSpaceDelimitedLang@Dict@tesseract@@QEBA_NXZ = @ILT+64260(?IsSpaceDelimitedLang@Dict@tesseract@@QEBA_NXZ)
       1252  4E3 0000D328 ?IsSubsetOf@Shape@tesseract@@QEBA_NAEBV12@@Z = @ILT+49955(?IsSubsetOf@Shape@tesseract@@QEBA_NAEBV12@@Z)
       1253  4E4 000114D7 ?IsTensorFlow@LSTMRecognizer@tesseract@@QEBA_NXZ = @ILT+66770(?IsTensorFlow@LSTMRecognizer@tesseract@@QEBA_NXZ)
       1254  4E5 00013DDB ?IsText@POLY_BLOCK@tesseract@@QEBA_NXZ = @ILT+77270(?IsText@POLY_BLOCK@tesseract@@QEBA_NXZ)
       1255  4E6 0001B072 ?IsTextType@ColPartition@tesseract@@QEBA_NXZ = @ILT+106605(?IsTextType@ColPartition@tesseract@@QEBA_NXZ)
       1256  4E7 0001623E ?IsTraining@Network@tesseract@@QEBA_NXZ = @ILT+86585(?IsTraining@Network@tesseract@@QEBA_NXZ)
       1257  4E8 000178A5 ?IsUnMergeableType@ColPartition@tesseract@@QEBA_NXZ = @ILT+92320(?IsUnMergeableType@ColPartition@tesseract@@QEBA_NXZ)
       1258  4E9 0000D1FC ?IsValidCharacter@TessBaseAPI@tesseract@@QEBA_NPEBD@Z = @ILT+49655(?IsValidCharacter@TessBaseAPI@tesseract@@QEBA_NPEBD@Z)
       1259  4EA 0001A659 ?IsValidFirstCode@UnicharCompress@tesseract@@QEBA_NH@Z = @ILT+104020(?IsValidFirstCode@UnicharCompress@tesseract@@QEBA_NH@Z)
       1260  4EB 0000D5D0 ?IsValidWord@TessBaseAPI@tesseract@@QEBAHPEBD@Z = @ILT+50635(?IsValidWord@TessBaseAPI@tesseract@@QEBAHPEBD@Z)
       1261  4EC 00003AE4 ?IsVerticalLine@ColPartition@tesseract@@QEBA_NXZ = @ILT+10975(?IsVerticalLine@ColPartition@tesseract@@QEBA_NXZ)
       1262  4ED 00006DC5 ?IsVerticalType@ColPartition@tesseract@@QEBA_NXZ = @ILT+24000(?IsVerticalType@ColPartition@tesseract@@QEBA_NXZ)
       1263  4EE 0000E34A ?IsVerticallyAlignedText@ColumnFinder@tesseract@@QEAA_NNPEAVTO_BLOCK@2@PEAVBLOBNBOX_CLIST@2@@Z = @ILT+54085(?IsVerticallyAlignedText@ColumnFinder@tesseract@@QEAA_NNPEAVTO_BLOCK@2@PEAVBLOBNBOX_CLIST@2@@Z)
       1264  4EF 00011D15 ?IsWeakTableRow@TableRecognizer@tesseract@@KA_NPEAVStructuredTable@2@H@Z = @ILT+68880(?IsWeakTableRow@TableRecognizer@tesseract@@KA_NPEAVStructuredTable@2@H@Z)
       1265  4F0 000018BB ?IsWithinFirstTextlineOfParagraph@PageIterator@tesseract@@QEBA_NXZ = @ILT+2230(?IsWithinFirstTextlineOfParagraph@PageIterator@tesseract@@QEBA_NXZ)
       1266  4F1 0001061D ?IterateAndAppendUTF8TextlineText@ResultIterator@tesseract@@AEAAXPEAV?$basic_string@DU?$char_traits@D@std@@V?$allocator@D@2@@std@@@Z = @ILT+63000(?IterateAndAppendUTF8TextlineText@ResultIterator@tesseract@@AEAAXPEAV?$basic_string@DU?$char_traits@D@std@@V?$allocator@D@2@@std@@@Z)
       1267  4F2 0000BD5C ?KeyWidth@ColPartition@tesseract@@QEBAHHH@Z = @ILT+44375(?KeyWidth@ColPartition@tesseract@@QEBAHHH@Z)
       1268  4F3 0001938F ?KillEdge@Trie@tesseract@@QEBAXPEA_K@Z = @ILT+99210(?KillEdge@Trie@tesseract@@QEBAXPEA_K@Z)
       1269  4F4 00012080 ?LSTMRecognizeWord@Tesseract@tesseract@@QEAAXAEBVBLOCK@2@PEAVROW@2@PEAVWERD_RES@2@PEAV?$PointerVector@VWERD_RES@tesseract@@@2@@Z = @ILT+69755(?LSTMRecognizeWord@Tesseract@tesseract@@QEAAXAEBVBLOCK@2@PEAVROW@2@PEAVWERD_RES@2@PEAV?$PointerVector@VWERD_RES@tesseract@@@2@@Z)
       1270  4F5 0000DE3B ?LTRWordIndex@ResultIterator@tesseract@@AEBAHXZ = @ILT+52790(?LTRWordIndex@ResultIterator@tesseract@@AEBAHXZ)
       1271  4F6 00011E19 ?LabelSpecialText@EquationDetect@tesseract@@UEAAHPEAVTO_BLOCK@2@@Z = @ILT+69140(?LabelSpecialText@EquationDetect@tesseract@@UEAAHPEAVTO_BLOCK@2@@Z)
       1272  4F7 00007E3C ?LabelsFromOutputs@LSTMRecognizer@tesseract@@QEAAXAEBVNetworkIO@2@PEAV?$vector@HV?$allocator@H@std@@@std@@1@Z = @ILT+28215(?LabelsFromOutputs@LSTMRecognizer@tesseract@@QEAAXAEBVNetworkIO@2@PEAV?$vector@HV?$allocator@H@std@@@std@@1@Z)
       1273  4F8 00012521 ?LabelsViaReEncode@LSTMRecognizer@tesseract@@IEAAXAEBVNetworkIO@2@PEAV?$vector@HV?$allocator@H@std@@@std@@1@Z = @ILT+70940(?LabelsViaReEncode@LSTMRecognizer@tesseract@@IEAAXAEBVNetworkIO@2@PEAV?$vector@HV?$allocator@H@std@@@std@@1@Z)
       1274  4F9 0000A826 ?LabelsViaSimpleText@LSTMRecognizer@tesseract@@IEAAXAEBVNetworkIO@2@PEAV?$vector@HV?$allocator@H@std@@@std@@1@Z = @ILT+38945(?LabelsViaSimpleText@LSTMRecognizer@tesseract@@IEAAXAEBVNetworkIO@2@PEAV?$vector@HV?$allocator@H@std@@@std@@1@Z)
       1275  4FA 000014E2 ?LargeSpeckle@Classify@tesseract@@QEAA_NAEBUTBLOB@2@@Z = @ILT+1245(?LargeSpeckle@Classify@tesseract@@QEAA_NAEBUTBLOB@2@@Z)
       1276  4FB 00007B0D ?LayerLearningRatePtr@Plumbing@tesseract@@QEAAPEAMPEBD@Z = @ILT+27400(?LayerLearningRatePtr@Plumbing@tesseract@@QEAAPEAMPEBD@Z)
       1277  4FC 00006C71 ?LearnBlob@Classify@tesseract@@QEAAXAEBV?$basic_string@DU?$char_traits@D@std@@V?$allocator@D@2@@std@@PEAUTBLOB@2@AEBVDENORM@2@AEBUINT_FX_RESULT_STRUCT@2@PEBD@Z = @ILT+23660(?LearnBlob@Classify@tesseract@@QEAAXAEBV?$basic_string@DU?$char_traits@D@std@@V?$allocator@D@2@@std@@PEAUTBLOB@2@AEBVDENORM@2@AEBUINT_FX_RESULT_STRUCT@2@PEBD@Z)
       1278  4FD 0000C19E ?LearnPieces@Classify@tesseract@@QEAAXPEBDHHMW4CharSegmentationType@2@0PEAVWERD_RES@2@@Z = @ILT+45465(?LearnPieces@Classify@tesseract@@QEAAXPEBDHHMW4CharSegmentationType@2@0PEAVWERD_RES@2@@Z)
       1279  4FE 0001B96E ?LearnWord@Classify@tesseract@@QEAAXPEBDPEAVWERD_RES@2@@Z = @ILT+108905(?LearnWord@Classify@tesseract@@QEAAXPEBDPEAVWERD_RES@2@@Z)
       1280  4FF 00016F95 ?LeftAtY@ColPartition@tesseract@@QEBAHH@Z = @ILT+90000(?LeftAtY@ColPartition@tesseract@@QEBAHH@Z)
       1281  500 0000E282 ?LeftBlobRule@ColPartition@tesseract@@QEBAHXZ = @ILT+53885(?LeftBlobRule@ColPartition@tesseract@@QEBAHXZ)
       1282  501 0001B0D1 ?LeftEdgeForBox@TabFind@tesseract@@QEAAHAEBVTBOX@2@_N1@Z = @ILT+106700(?LeftEdgeForBox@TabFind@tesseract@@QEAAHAEBVTBOX@2@_N1@Z)
       1283  502 0000DB43 ?LeftEdgeRun@ColPartition@tesseract@@CAXPEAVColPartition_IT@2@PEAVICOORD@2@1@Z = @ILT+52030(?LeftEdgeRun@ColPartition@tesseract@@CAXPEAVColPartition_IT@2@PEAVICOORD@2@1@Z)
       1284  503 00001523 ?LeftTabForBox@TabFind@tesseract@@QEAAPEAVTabVector@2@AEBVTBOX@2@_N1@Z = @ILT+1310(?LeftTabForBox@TabFind@tesseract@@QEAAPEAVTabVector@2@AEBVTBOX@2@_N1@Z)
       1285  504 00014916 ?LeftWordAttributes@tesseract@@YAXPEBVUNICHARSET@1@PEBVWERD_CHOICE@1@AEBV?$basic_string@DU?$char_traits@D@std@@V?$allocator@D@2@@std@@PEA_N33@Z = @ILT+80145(?LeftWordAttributes@tesseract@@YAXPEBVUNICHARSET@1@PEBVWERD_CHOICE@1@AEBV?$basic_string@DU?$char_traits@D@std@@V?$allocator@D@2@@std@@PEA_N33@Z)
       1286  505 0000F8E9 ?LengthFromBeamsIndex@RecodeBeamSearch@tesseract@@SAHH@Z = @ILT+59620(?LengthFromBeamsIndex@RecodeBeamSearch@tesseract@@SAHH@Z)
       1287  506 00009BC4 ?LengthOfShortestAlphaRun@Dict@tesseract@@QEBAHAEBVWERD_CHOICE@2@@Z = @ILT+35775(?LengthOfShortestAlphaRun@Dict@tesseract@@QEBAHAEBVWERD_CHOICE@2@@Z)
       1288  507 00008DFF ?LetterIsOkay@Dict@tesseract@@QEBAHPEAXAEBVUNICHARSET@2@H_N@Z = @ILT+32250(?LetterIsOkay@Dict@tesseract@@QEBAHPEAXAEBVUNICHARSET@2@H_N@Z)
       1289  508 00014C54 ?Line@ScrollView@tesseract@@QEAAXHHHH@Z = @ILT+80975(?Line@ScrollView@tesseract@@QEAAXHHHH@Z)
       1290  509 0000839B ?LineSpacingBlocks@ColPartition@tesseract@@SAXAEBVICOORD@2@0HPEAVColPartition_LIST@2@1PEAVBLOCK_LIST@2@PEAVTO_BLOCK_LIST@2@@Z = @ILT+29590(?LineSpacingBlocks@ColPartition@tesseract@@SAXAEBVICOORD@2@0HPEAVColPartition_LIST@2@1PEAVBLOCK_LIST@2@PEAVTO_BLOCK_LIST@2@@Z)
       1291  50A 00017A3A ?ListFindMargins@ColPartitionGrid@tesseract@@QEAAXPEAPEAVColPartitionSet@2@PEAVColPartition_LIST@2@@Z = @ILT+92725(?ListFindMargins@ColPartitionGrid@tesseract@@QEAAXPEAPEAVColPartitionSet@2@PEAVColPartition_LIST@2@@Z)
       1292  50B 00019E5C ?Load@Dict@tesseract@@QEAAXAEBV?$basic_string@DU?$char_traits@D@std@@V?$allocator@D@2@@std@@PEAVTessdataManager@2@@Z = @ILT+101975(?Load@Dict@tesseract@@QEAAXAEBV?$basic_string@DU?$char_traits@D@std@@V?$allocator@D@2@@std@@PEAVTessdataManager@2@@Z)
       1293  50C 000132F0 ?Load@LSTMRecognizer@tesseract@@QEAA_NPEBUParamsVectors@2@AEBV?$basic_string@DU?$char_traits@D@std@@V?$allocator@D@2@@std@@PEAVTessdataManager@2@@Z = @ILT+74475(?Load@LSTMRecognizer@tesseract@@QEAA_NPEBUParamsVectors@2@AEBV?$basic_string@DU?$char_traits@D@std@@V?$allocator@D@2@@std@@PEAVTessdataManager@2@@Z)
       1294  50D 000031CA ?Load@SquishedDawg@tesseract@@QEAA_NPEAVTFile@2@@Z = @ILT+8645(?Load@SquishedDawg@tesseract@@QEAA_NPEAVTFile@2@@Z)
       1295  50E 0001D188 ?LoadCharsets@LSTMRecognizer@tesseract@@QEAA_NPEBVTessdataManager@2@@Z = @ILT+115075(?LoadCharsets@LSTMRecognizer@tesseract@@QEAA_NPEBVTessdataManager@2@@Z)
       1296  50F 0000405C ?LoadDataFromFile@tesseract@@YA_NPEBDPEAV?$vector@DV?$allocator@D@std@@@std@@@Z = @ILT+12375(?LoadDataFromFile@tesseract@@YA_NPEBDPEAV?$vector@DV?$allocator@D@std@@@std@@@Z)
       1297  510 0000C87E ?LoadDictionary@LSTMRecognizer@tesseract@@QEAA_NPEBUParamsVectors@2@AEBV?$basic_string@DU?$char_traits@D@std@@V?$allocator@D@2@@std@@PEAVTessdataManager@2@@Z = @ILT+47225(?LoadDictionary@LSTMRecognizer@tesseract@@QEAA_NPEBUParamsVectors@2@AEBV?$basic_string@DU?$char_traits@D@std@@V?$allocator@D@2@@std@@PEAVTessdataManager@2@@Z)
       1298  511 00012067 ?LoadDocument@DocumentData@tesseract@@QEAA_NPEBDH_JP6A_N0PEAV?$vector@DV?$allocator@D@std@@@std@@@Z@Z = @ILT+69730(?LoadDocument@DocumentData@tesseract@@QEAA_NPEBDH_JP6A_N0PEAV?$vector@DV?$allocator@D@std@@@std@@@Z@Z)
       1299  512 000181F6 ?LoadDocuments@DocumentCache@tesseract@@QEAA_NAEBV?$vector@V?$basic_string@DU?$char_traits@D@std@@V?$allocator@D@2@@std@@V?$allocator@V?$basic_string@DU?$char_traits@D@std@@V?$allocator@D@2@@std@@@2@@std@@W4CachingStrategy@2@P6A_NPEBDPEAV?$vector@DV?$allocator@D@std@@@4@@Z@Z = @ILT+94705(?LoadDocuments@DocumentCache@tesseract@@QEAA_NAEBV?$vector@V?$basic_string@DU?$char_traits@D@std@@V?$allocator@D@2@@std@@V?$allocator@V?$basic_string@DU?$char_traits@D@std@@V?$allocator@D@2@@std@@@2@@std@@W4CachingStrategy@2@P6A_NPEBDPEAV?$vector@DV?$allocator@D@std@@@4@@Z@Z)
       1300  513 000096B0 ?LoadFileLater@TessdataManager@tesseract@@QEAAXPEBD@Z = @ILT+34475(?LoadFileLater@TessdataManager@tesseract@@QEAAXPEBD@Z)
       1301  514 000182B9 ?LoadFromFp@ParamsModel@tesseract@@QEAA_NPEBDPEAVTFile@2@@Z = @ILT+94900(?LoadFromFp@ParamsModel@tesseract@@QEAA_NPEBDPEAVTFile@2@@Z)
       1302  515 0001825F ?LoadLSTM@Dict@tesseract@@QEAAXAEBV?$basic_string@DU?$char_traits@D@std@@V?$allocator@D@2@@std@@PEAVTessdataManager@2@@Z = @ILT+94810(?LoadLSTM@Dict@tesseract@@QEAAXAEBV?$basic_string@DU?$char_traits@D@std@@V?$allocator@D@2@@std@@PEAVTessdataManager@2@@Z)
       1303  516 0000A1B9 ?LoadMemBuffer@TessdataManager@tesseract@@QEAA_NPEBD0H@Z = @ILT+37300(?LoadMemBuffer@TessdataManager@tesseract@@QEAA_NPEBD0H@Z)
       1304  517 00019F7E ?LoadRecoder@LSTMRecognizer@tesseract@@QEAA_NPEAVTFile@2@@Z = @ILT+102265(?LoadRecoder@LSTMRecognizer@tesseract@@QEAA_NPEAVTFile@2@@Z)
       1305  518 00016761 ?LocalDenormTransform@DENORM@tesseract@@QEBAXAEBUTPOINT@2@PEAU32@@Z = @ILT+87900(?LocalDenormTransform@DENORM@tesseract@@QEBAXAEBUTPOINT@2@PEAU32@@Z)
       1306  519 00009B42 ?LocalDenormTransform@DENORM@tesseract@@QEBAXAEBVFCOORD@2@PEAV32@@Z = @ILT+35645(?LocalDenormTransform@DENORM@tesseract@@QEBAXAEBVFCOORD@2@PEAV32@@Z)
       1307  51A 00012F76 ?LocalNormBlob@DENORM@tesseract@@QEBAXPEAUTBLOB@2@@Z = @ILT+73585(?LocalNormBlob@DENORM@tesseract@@QEBAXPEAUTBLOB@2@@Z)
       1308  51B 00013CAF ?LocalNormTransform@DENORM@tesseract@@QEBAXAEBUTPOINT@2@PEAU32@@Z = @ILT+76970(?LocalNormTransform@DENORM@tesseract@@QEBAXAEBUTPOINT@2@PEAU32@@Z)
       1309  51C 00015154 ?LocalNormTransform@DENORM@tesseract@@QEBAXAEBVFCOORD@2@PEAV32@@Z = @ILT+82255(?LocalNormTransform@DENORM@tesseract@@QEBAXAEBVFCOORD@2@PEAV32@@Z)
       1310  51D 0000127B ?LocateTables@TableFinder@tesseract@@QEAAXPEAVColPartitionGrid@2@PEAPEAVColPartitionSet@2@V?$function@$$A6A_NH@Z@std@@AEBVFCOORD@2@@Z = @ILT+630(?LocateTables@TableFinder@tesseract@@QEAAXPEAVColPartitionGrid@2@PEAPEAVColPartitionSet@2@V?$function@$$A6A_NH@Z@std@@AEBVFCOORD@2@@Z)
       1311  51E 0001D11F ?LogNewCookedChoice@WERD_RES@tesseract@@QEAA_NH_NPEAVWERD_CHOICE@2@@Z = @ILT+114970(?LogNewCookedChoice@WERD_RES@tesseract@@QEAA_NH_NPEAVWERD_CHOICE@2@@Z)
       1312  51F 0001D07F ?LogNewRawChoice@WERD_RES@tesseract@@QEAA_NPEAVWERD_CHOICE@2@@Z = @ILT+114810(?LogNewRawChoice@WERD_RES@tesseract@@QEAA_NPEAVWERD_CHOICE@2@@Z)
       1313  520 00001717 ?LooksLikeGarbage@Classify@tesseract@@QEAA_NPEAUTBLOB@2@@Z = @ILT+1810(?LooksLikeGarbage@Classify@tesseract@@QEAA_NPEAUTBLOB@2@@Z)
       1314  521 0001CA5D ?MakeBigPartition@ColPartition@tesseract@@SAPEAV12@PEAVBLOBNBOX@2@PEAVColPartition_LIST@2@@Z = @ILT+113240(?MakeBigPartition@ColPartition@tesseract@@SAPEAV12@PEAVBLOBNBOX@2@PEAVColPartition_LIST@2@@Z)
       1315  522 0001193C ?MakeBlock@ColPartition@tesseract@@SAPEAVTO_BLOCK@2@AEBVICOORD@2@0PEAVColPartition_LIST@2@1@Z = @ILT+67895(?MakeBlock@ColPartition@tesseract@@SAPEAVTO_BLOCK@2@AEBVICOORD@2@0PEAVColPartition_LIST@2@1@Z)
       1316  523 00017B61 ?MakeBoxFileStr@tesseract@@YAXPEBDAEBVTBOX@1@HAEAV?$basic_string@DU?$char_traits@D@std@@V?$allocator@D@2@@std@@@Z = @ILT+93020(?MakeBoxFileStr@tesseract@@YAXPEBDAEBVTBOX@1@HAEAV?$basic_string@DU?$char_traits@D@std@@V?$allocator@D@2@@std@@@Z)
       1317  524 000028BF ?MakeClusterer@tesseract@@YAPEAUCLUSTERER@1@FQEBUPARAM_DESC@1@@Z = @ILT+6330(?MakeClusterer@tesseract@@YAPEAUCLUSTERER@1@FQEBUPARAM_DESC@1@@Z)
       1318  525 0001B275 ?MakeColPartSets@ColPartitionGrid@tesseract@@QEAA_NPEAV?$vector@PEAVColPartitionSet@tesseract@@V?$allocator@PEAVColPartitionSet@tesseract@@@std@@@std@@@Z = @ILT+107120(?MakeColPartSets@ColPartitionGrid@tesseract@@QEAA_NPEAV?$vector@PEAVColPartitionSet@tesseract@@V?$allocator@PEAVColPartitionSet@tesseract@@@std@@@std@@@Z)
       1319  526 0000D346 ?MakeColumnWidths@TabFind@tesseract@@AEAAXHPEAVSTATS@2@@Z = @ILT+49985(?MakeColumnWidths@TabFind@tesseract@@AEAAXHPEAVSTATS@2@@Z)
       1320  527 000031F7 ?MakeColumns@ColumnFinder@tesseract@@AEAA_N_N@Z = @ILT+8690(?MakeColumns@ColumnFinder@tesseract@@AEAA_N_N@Z)
       1321  528 0000FAFB ?MakeCurrentWordFuzzy@PAGE_RES_IT@tesseract@@QEAAXXZ = @ILT+60150(?MakeCurrentWordFuzzy@PAGE_RES_IT@tesseract@@QEAAXXZ)
       1322  529 00010B6D ?MakeLinePartition@ColPartition@tesseract@@SAPEAV12@W4BlobRegionType@2@AEBVICOORD@2@HHHH@Z = @ILT+64360(?MakeLinePartition@ColPartition@tesseract@@SAPEAV12@W4BlobRegionType@2@AEBVICOORD@2@HHHH@Z)
       1323  52A 00011E9B ?MakeNewTempProtos@Classify@tesseract@@QEAAFPEAUFEATURE_SET_STRUCT@2@HQEAEPEAUINT_CLASS_STRUCT@2@PEAUADAPT_CLASS_STRUCT@2@PEAI@Z = @ILT+69270(?MakeNewTempProtos@Classify@tesseract@@QEAAFPEAUFEATURE_SET_STRUCT@2@HQEAEPEAUINT_CLASS_STRUCT@2@PEAUADAPT_CLASS_STRUCT@2@PEAI@Z)
       1324  52B 000116A8 ?MakeNewTemporaryConfig@Classify@tesseract@@QEAAHPEAVADAPT_TEMPLATES_STRUCT@2@HHHQEAUINT_FEATURE_STRUCT@2@PEAUFEATURE_SET_STRUCT@2@@Z = @ILT+67235(?MakeNewTemporaryConfig@Classify@tesseract@@QEAAHPEAVADAPT_TEMPLATES_STRUCT@2@HHHQEAUINT_FEATURE_STRUCT@2@PEAUFEATURE_SET_STRUCT@2@@Z)
       1325  52C 0001BC48 ?MakePermanent@Classify@tesseract@@QEAAXPEAVADAPT_TEMPLATES_STRUCT@2@HHPEAUTBLOB@2@@Z = @ILT+109635(?MakePermanent@Classify@tesseract@@QEAAXPEAVADAPT_TEMPLATES_STRUCT@2@HHPEAUTBLOB@2@@Z)
       1326  52D 00013F34 ?MakeSample@tesseract@@YAPEAUCLUSTER@1@PEAUCLUSTERER@1@PEBMH@Z = @ILT+77615(?MakeSample@tesseract@@YAPEAUCLUSTER@1@PEAUCLUSTERER@1@PEBMH@Z)
       1327  52E 0001C1F7 ?MakeSingleColumnSet@ColPartitionGrid@tesseract@@QEAAPEAVColPartitionSet@2@V?$function@$$A6A_NH@Z@std@@@Z = @ILT+111090(?MakeSingleColumnSet@ColPartitionGrid@tesseract@@QEAAPEAVColPartitionSet@2@V?$function@$$A6A_NH@Z@std@@@Z)
       1328  52F 00018557 ?MakeTableBlocks@TableFinder@tesseract@@IEAAXPEAVColPartitionGrid@2@PEAPEAVColPartitionSet@2@V?$function@$$A6A_NH@Z@std@@@Z = @ILT+95570(?MakeTableBlocks@TableFinder@tesseract@@IEAAXPEAVColPartitionGrid@2@PEAPEAVColPartitionSet@2@V?$function@$$A6A_NH@Z@std@@@Z)
       1329  530 0001B450 ?MakeToRow@ColPartition@tesseract@@QEAAPEAVTO_ROW@2@XZ = @ILT+107595(?MakeToRow@ColPartition@tesseract@@QEAAPEAVTO_ROW@2@XZ)
       1330  531 00006ED8 ?MakeVerticalTextBlock@ColPartition@tesseract@@SAPEAVTO_BLOCK@2@AEBVICOORD@2@0PEAVColPartition_LIST@2@1@Z = @ILT+24275(?MakeVerticalTextBlock@ColPartition@tesseract@@SAPEAVTO_BLOCK@2@AEBVICOORD@2@0PEAVColPartition_LIST@2@1@Z)
       1331  532 0000AC22 ?MakeWindow@?$BBGrid@VBLOBNBOX@tesseract@@VBLOBNBOX_CLIST@2@VBLOBNBOX_C_IT@2@@tesseract@@QEAAPEAVScrollView@2@HHPEBD@Z = @ILT+39965(?MakeWindow@?$BBGrid@VBLOBNBOX@tesseract@@VBLOBNBOX_CLIST@2@VBLOBNBOX_C_IT@2@@tesseract@@QEAAPEAVScrollView@2@HHPEBD@Z)
       1332  533 00005204 ?MakeWindow@?$BBGrid@VColPartition@tesseract@@VColPartition_CLIST@2@VColPartition_C_IT@2@@tesseract@@QEAAPEAVScrollView@2@HHPEBD@Z = @ILT+16895(?MakeWindow@?$BBGrid@VColPartition@tesseract@@VColPartition_CLIST@2@VColPartition_C_IT@2@@tesseract@@QEAAPEAVScrollView@2@HHPEBD@Z)
       1333  534 00005943 ?MakeWindow@TableFinder@tesseract@@IEAAPEAVScrollView@2@HHPEBD@Z = @ILT+18750(?MakeWindow@TableFinder@tesseract@@IEAAPEAVScrollView@2@HHPEBD@Z)
       1334  535 000125BC ?MapFeatures@IndexMapBiDi@tesseract@@QEBAHAEBV?$vector@HV?$allocator@H@std@@@std@@PEAV34@@Z = @ILT+71095(?MapFeatures@IndexMapBiDi@tesseract@@QEBAHAEBV?$vector@HV?$allocator@H@std@@@std@@PEAV34@@Z)
       1335  536 0000AE11 ?MarkAsLeaderIfMonospaced@ColPartition@tesseract@@QEAA_NXZ = @ILT+40460(?MarkAsLeaderIfMonospaced@ColPartition@tesseract@@QEAA_NXZ)
       1336  537 00018D1D ?MarkPartitionsUsingLocalInformation@TableFinder@tesseract@@IEAAXXZ = @ILT+97560(?MarkPartitionsUsingLocalInformation@TableFinder@tesseract@@IEAAXXZ)
       1337  538 0001BC07 ?MarkTablePartitions@TableFinder@tesseract@@IEAAXXZ = @ILT+109570(?MarkTablePartitions@TableFinder@tesseract@@IEAAXXZ)
       1338  539 0000491C ?MarkVerticalText@TabFind@tesseract@@AEAAXXZ = @ILT+14615(?MarkVerticalText@TabFind@tesseract@@AEAAXXZ)
       1339  53A 0000A092 ?MasterCompactIndex@IndexMapBiDi@tesseract@@AEBAHH@Z = @ILT+37005(?MasterCompactIndex@IndexMapBiDi@tesseract@@AEBAHH@Z)
       1340  53B 0000C0A9 ?MasterDestinationIndex@ShapeTable@tesseract@@QEBAHH@Z = @ILT+45220(?MasterDestinationIndex@ShapeTable@tesseract@@QEBAHH@Z)
       1341  53C 00018AD9 ?MasterFontCount@ShapeTable@tesseract@@QEBAHH@Z = @ILT+96980(?MasterFontCount@ShapeTable@tesseract@@QEBAHH@Z)
       1342  53D 0001A84D ?MasterMatcher@Classify@tesseract@@QEAAXPEAUINT_TEMPLATES_STRUCT@2@FPEBUINT_FEATURE_STRUCT@2@PEBEPEAPEAUADAPT_CLASS_STRUCT@2@HHAEBVTBOX@2@AEBV?$vector@UCP_RESULT_STRUCT@tesseract@@V?$allocator@UCP_RESULT_STRUCT@tesseract@@@std@@@std@@PEAUADAPT_RESULTS@2@@Z = @ILT+104520(?MasterMatcher@Classify@tesseract@@QEAAXPEAUINT_TEMPLATES_STRUCT@2@FPEBUINT_FEATURE_STRUCT@2@PEBEPEAPEAUADAPT_CLASS_STRUCT@2@HHAEBVTBOX@2@AEBV?$vector@UCP_RESULT_STRUCT@tesseract@@V?$allocator@UCP_RESULT_STRUCT@tesseract@@@std@@@std@@PEAUADAPT_RESULTS@2@@Z)
       1343  53E 0001558C ?MasterUnicharCount@ShapeTable@tesseract@@QEBAHH@Z = @ILT+83335(?MasterUnicharCount@ShapeTable@tesseract@@QEBAHH@Z)
       1344  53F 0000635C ?MatchingColumns@ColPartition@tesseract@@QEBA_NAEBV12@@Z = @ILT+21335(?MatchingColumns@ColPartition@tesseract@@QEBA_NAEBV12@@Z)
       1345  540 000030B2 ?MatchingSizes@ColPartition@tesseract@@QEBA_NAEBV12@@Z = @ILT+8365(?MatchingSizes@ColPartition@tesseract@@QEBA_NAEBV12@@Z)
       1346  541 00018D22 ?MatchingStrokeWidth@ColPartition@tesseract@@QEBA_NAEBV12@NN@Z = @ILT+97565(?MatchingStrokeWidth@ColPartition@tesseract@@QEBA_NAEBV12@NN@Z)
       1347  542 00015B1D ?MatchingTextColor@ColPartition@tesseract@@QEBA_NAEBV12@@Z = @ILT+84760(?MatchingTextColor@ColPartition@tesseract@@QEBA_NAEBV12@@Z)
       1348  543 00013156 ?MatrixCoord@WERD_CHOICE@tesseract@@QEBA?AUMATRIX_COORD@2@H@Z = @ILT+74065(?MatrixCoord@WERD_CHOICE@tesseract@@QEBA?AUMATRIX_COORD@2@H@Z)
       1349  544 00004D54 ?MatrixDotVector@IntSimdMatrix@tesseract@@SAXAEBV?$GENERIC_2D_ARRAY@C@2@AEBV?$vector@NV?$allocator@N@std@@@std@@PEBCPEAN@Z = @ILT+15695(?MatrixDotVector@IntSimdMatrix@tesseract@@SAXAEBV?$GENERIC_2D_ARRAY@C@2@AEBV?$vector@NV?$allocator@N@std@@@std@@PEBCPEAN@Z)
       1350  545 0000A024 ?Max@NetworkIO@tesseract@@QEBAMXZ = @ILT+36895(?Max@NetworkIO@tesseract@@QEBAMXZ)
       1351  546 0000FFC9 ?MaxNumUnichars@ShapeTable@tesseract@@QEBAHXZ = @ILT+61380(?MaxNumUnichars@ShapeTable@tesseract@@QEBAHXZ)
       1352  547 00017E86 ?MaximallyChopWord@Tesseract@tesseract@@QEAAXAEBV?$vector@VTBOX@tesseract@@V?$allocator@VTBOX@tesseract@@@std@@@std@@PEAVBLOCK@2@PEAVROW@2@PEAVWERD_RES@2@@Z = @ILT+93825(?MaximallyChopWord@Tesseract@tesseract@@QEAAXAEBV?$vector@VTBOX@tesseract@@V?$allocator@VTBOX@tesseract@@@std@@@std@@PEAVBLOCK@2@PEAVROW@2@PEAVWERD_RES@2@@Z)
       1353  548 000124F9 ?MaxpoolBackward@NetworkIO@tesseract@@QEAAXAEBV12@AEBV?$GENERIC_2D_ARRAY@H@2@@Z = @ILT+70900(?MaxpoolBackward@NetworkIO@tesseract@@QEAAXAEBV12@AEBV?$GENERIC_2D_ARRAY@H@2@@Z)
       1354  549 00015FF5 ?MaxpoolTimeStep@NetworkIO@tesseract@@QEAAXHAEBV12@HPEAH@Z = @ILT+86000(?MaxpoolTimeStep@NetworkIO@tesseract@@QEAAXHAEBV12@HPEAH@Z)
       1355  54A 00013D9F ?MeanPixelsInLineSegment@TextlineProjection@tesseract@@AEBAHPEBVDENORM@2@HUTPOINT@2@1@Z = @ILT+77210(?MeanPixelsInLineSegment@TextlineProjection@tesseract@@AEBAHPEBVDENORM@2@HUTPOINT@2@1@Z)
       1356  54B 00015E15 ?MeanTextConf@TessBaseAPI@tesseract@@QEAAHXZ = @ILT+85520(?MeanTextConf@TessBaseAPI@tesseract@@QEAAHXZ)
       1357  54C 0001000F ?MedianY@ColPartition@tesseract@@QEBAHXZ = @ILT+61450(?MedianY@ColPartition@tesseract@@QEBAHXZ)
       1358  54D 0001B66C ?MemoryUsed@ImageData@tesseract@@QEBAHXZ = @ILT+108135(?MemoryUsed@ImageData@tesseract@@QEBAHXZ)
       1359  54E 000116DA ?MenuItem@ScrollView@tesseract@@QEAAXPEBD0@Z = @ILT+67285(?MenuItem@ScrollView@tesseract@@QEAAXPEBD0@Z)
       1360  54F 0000B8ED ?MenuItem@ScrollView@tesseract@@QEAAXPEBD0H@Z = @ILT+43240(?MenuItem@ScrollView@tesseract@@QEAAXPEBD0H@Z)
       1361  550 00012CC9 ?MenuItem@ScrollView@tesseract@@QEAAXPEBD0H_N@Z = @ILT+72900(?MenuItem@ScrollView@tesseract@@QEAAXPEBD0H_N@Z)
       1362  551 0001D241 ?Merge@IndexMapBiDi@tesseract@@QEAA_NHH@Z = @ILT+115260(?Merge@IndexMapBiDi@tesseract@@QEAA_NHH@Z)
       1363  552 0001B004 ?MergeAdjacentBlobs@WERD_RES@tesseract@@QEAAXH@Z = @ILT+106495(?MergeAdjacentBlobs@WERD_RES@tesseract@@QEAAXH@Z)
       1364  553 00015749 ?MergeClusters@tesseract@@YAHFQEAUPARAM_DESC@1@HHQEAM11@Z = @ILT+83780(?MergeClusters@tesseract@@YAHFQEAUPARAM_DESC@1@HHQEAM11@Z)
       1365  554 00017FE4 ?MergeEqualUnichars@ShapeTable@tesseract@@QEBA_NHHH@Z = @ILT+94175(?MergeEqualUnichars@ShapeTable@tesseract@@QEBA_NHHH@Z)
       1366  555 0000C8B5 ?MergePart@ColPartitionGrid@tesseract@@QEAA_NV?$function@$$A6A_NPEAVColPartition@tesseract@@PEAVTBOX@2@@Z@std@@V?$function@$$A6A_NPEBVColPartition@tesseract@@0@Z@4@PEAVColPartition@2@@Z = @ILT+47280(?MergePart@ColPartitionGrid@tesseract@@QEAA_NV?$function@$$A6A_NPEAVColPartition@tesseract@@PEAVTBOX@2@@Z@std@@V?$function@$$A6A_NPEBVColPartition@tesseract@@0@Z@4@PEAVColPartition@2@@Z)
       1367  556 0001762A ?MergePartsByLocation@EquationDetect@tesseract@@IEAAXXZ = @ILT+91685(?MergePartsByLocation@EquationDetect@tesseract@@IEAAXXZ)
       1368  557 0000B825 ?MergeShapes@ShapeTable@tesseract@@QEAAXHH@Z = @ILT+43040(?MergeShapes@ShapeTable@tesseract@@QEAAXHH@Z)
       1369  558 0001C260 ?MergeSubsetUnichar@ShapeTable@tesseract@@QEBA_NHHH@Z = @ILT+111195(?MergeSubsetUnichar@ShapeTable@tesseract@@QEBA_NHHH@Z)
       1370  559 00002F45 ?MergedUnicharCount@ShapeTable@tesseract@@QEBAHHH@Z = @ILT+8000(?MergedUnicharCount@ShapeTable@tesseract@@QEBAHHH@Z)
       1371  55A 0000489A ?Merges@ColPartitionGrid@tesseract@@QEAAXV?$function@$$A6A_NPEAVColPartition@tesseract@@PEAVTBOX@2@@Z@std@@V?$function@$$A6A_NPEBVColPartition@tesseract@@0@Z@4@@Z = @ILT+14485(?Merges@ColPartitionGrid@tesseract@@QEAAXV?$function@$$A6A_NPEAVColPartition@tesseract@@PEAVTBOX@2@@Z@std@@V?$function@$$A6A_NPEBVColPartition@tesseract@@0@Z@4@@Z)
       1372  55B 0001BDF6 ?MessageReceiver@ScrollView@tesseract@@CAXXZ = @ILT+110065(?MessageReceiver@ScrollView@tesseract@@CAXXZ)
       1373  55C 00004C3C ?MidX@ColPartition@tesseract@@QEBAHXZ = @ILT+15415(?MidX@ColPartition@tesseract@@QEBAHXZ)
       1374  55D 0000281A ?MidY@ColPartition@tesseract@@QEBAHXZ = @ILT+6165(?MidY@ColPartition@tesseract@@QEBAHXZ)
       1375  55E 0000B866 ?MinOfMaxes@NetworkIO@tesseract@@QEBAMXZ = @ILT+43105(?MinOfMaxes@NetworkIO@tesseract@@QEBAMXZ)
       1376  55F 0001B8EC ?MoveColSegmentsToGrid@TableFinder@tesseract@@IEAAXPEAVColSegment_LIST@2@PEAV?$BBGrid@VColSegment@tesseract@@VColSegment_CLIST@2@VColSegment_C_IT@2@@2@@Z = @ILT+108775(?MoveColSegmentsToGrid@TableFinder@tesseract@@IEAAXPEAVColSegment_LIST@2@PEAV?$BBGrid@VColSegment@tesseract@@VColSegment_CLIST@2@VColSegment_C_IT@2@@2@@Z)
       1377  560 00002496 ?MoveNonTextlineBlobs@TextlineProjection@tesseract@@QEBAXPEAVBLOBNBOX_LIST@2@0@Z = @ILT+5265(?MoveNonTextlineBlobs@TextlineProjection@tesseract@@QEBAXPEAVBLOBNBOX_LIST@2@0@Z)
       1378  561 00015208 ?MoveSpacingInfoFrom@FontInfoTable@tesseract@@QEAAXPEAV12@@Z = @ILT+82435(?MoveSpacingInfoFrom@FontInfoTable@tesseract@@QEAAXPEAV12@@Z)
       1379  562 000147DB ?MoveTo@FontInfoTable@tesseract@@QEAAXPEAV?$UnicityTable@UFontInfo@tesseract@@@2@@Z = @ILT+79830(?MoveTo@FontInfoTable@tesseract@@QEAAXPEAV?$UnicityTable@UFontInfo@tesseract@@@2@@Z)
       1380  563 000192EA ?MoveToLogicalStartOfTextline@ResultIterator@tesseract@@AEAAXXZ = @ILT+99045(?MoveToLogicalStartOfTextline@ResultIterator@tesseract@@AEAAXXZ)
       1381  564 00011A81 ?MoveToLogicalStartOfWord@ResultIterator@tesseract@@AEAAXXZ = @ILT+68220(?MoveToLogicalStartOfWord@ResultIterator@tesseract@@AEAAXXZ)
       1382  565 00012198 ?MutableShape@ShapeTable@tesseract@@QEAAPEAVShape@2@H@Z = @ILT+70035(?MutableShape@ShapeTable@tesseract@@QEAAPEAVShape@2@H@Z)
       1383  566 00016CE3 ?NewClass@tesseract@@YAPEAUCLASS_STRUCT@1@HH@Z = @ILT+89310(?NewClass@tesseract@@YAPEAUCLASS_STRUCT@1@HH@Z)
       1384  567 000142C2 ?Next@ChoiceIterator@tesseract@@QEAA_NXZ = @ILT+78525(?Next@ChoiceIterator@tesseract@@QEAA_NXZ)
       1385  568 00012099 ?Next@PageIterator@tesseract@@UEAA_NW4PageIteratorLevel@2@@Z = @ILT+69780(?Next@PageIterator@tesseract@@UEAA_NW4PageIteratorLevel@2@@Z)
       1386  569 0000D26F ?Next@ResultIterator@tesseract@@UEAA_NW4PageIteratorLevel@2@@Z = @ILT+49770(?Next@ResultIterator@tesseract@@UEAA_NW4PageIteratorLevel@2@@Z)
       1387  56A 00008B07 ?NextColor@WERD@tesseract@@SA?AW4Color@ScrollView@2@W4342@@Z = @ILT+31490(?NextColor@WERD@tesseract@@SA?AW4Color@ScrollView@2@W4342@@Z)
       1388  56B 00001884 ?NextHorizontalSplit@TableRecognizer@tesseract@@IEAAHHHH_N@Z = @ILT+2175(?NextHorizontalSplit@TableRecognizer@tesseract@@IEAAHHHH_N@Z)
       1389  56C 0001223D ?NextSetBit@BitVector@tesseract@@QEBAHH@Z = @ILT+70200(?NextSetBit@BitVector@tesseract@@QEBAHH@Z)
       1390  56D 0000D706 ?NoDangerousAmbig@Dict@tesseract@@QEAA_NPEAVWERD_CHOICE@2@PEAV?$vector@UDANGERR_INFO@tesseract@@V?$allocator@UDANGERR_INFO@tesseract@@@std@@@std@@_NPEAVMATRIX@2@@Z = @ILT+50945(?NoDangerousAmbig@Dict@tesseract@@QEAA_NPEAVWERD_CHOICE@2@PEAV?$vector@UDANGERR_INFO@tesseract@@V?$allocator@UDANGERR_INFO@tesseract@@@std@@@std@@_NPEAVMATRIX@2@@Z)
       1391  56E 000129E5 ?NormTransform@DENORM@tesseract@@QEBAXPEBV12@AEBUTPOINT@2@PEAU32@@Z = @ILT+72160(?NormTransform@DENORM@tesseract@@QEBAXPEBV12@AEBUTPOINT@2@PEAU32@@Z)
       1392  56F 0001D313 ?NormTransform@DENORM@tesseract@@QEBAXPEBV12@AEBVFCOORD@2@PEAV32@@Z = @ILT+115470(?NormTransform@DENORM@tesseract@@QEBAXPEBV12@AEBVFCOORD@2@PEAV32@@Z)
       1393  570 0000F06F ?NormalizeOutlines@Classify@tesseract@@QEAAXPEAUlist_rec@2@PEAM1@Z = @ILT+57450(?NormalizeOutlines@Classify@tesseract@@QEAAXPEAUlist_rec@2@PEAM1@Z)
       1394  571 00002B67 ?NothingYOverlapsInBox@TabFind@tesseract@@AEAA_NAEBVTBOX@2@0@Z = @ILT+7010(?NothingYOverlapsInBox@TabFind@tesseract@@AEAA_NAEBVTBOX@2@0@Z)
       1395  572 0000F268 ?NumDawgs@Dict@tesseract@@QEBAHXZ = @ILT+57955(?NumDawgs@Dict@tesseract@@QEBAHXZ)
       1396  573 0001062C ?NumDawgs@TessBaseAPI@tesseract@@QEBAHXZ = @ILT+63015(?NumDawgs@TessBaseAPI@tesseract@@QEBAHXZ)
       1397  574 000068F7 ?NumEdges@SquishedDawg@tesseract@@QEAAHXZ = @ILT+22770(?NumEdges@SquishedDawg@tesseract@@QEAAHXZ)
       1398  575 000052A9 ?NumFeatures@NetworkIO@tesseract@@QEBAHXZ = @ILT+17060(?NumFeatures@NetworkIO@tesseract@@QEBAHXZ)
       1399  576 0001B879 ?NumFonts@ShapeTable@tesseract@@QEBAHXZ = @ILT+108660(?NumFonts@ShapeTable@tesseract@@QEBAHXZ)
       1400  577 00004386 ?NumInputs@LSTMRecognizer@tesseract@@QEBAHXZ = @ILT+13185(?NumInputs@LSTMRecognizer@tesseract@@QEBAHXZ)
       1401  578 0001C9B3 ?NumInputs@Network@tesseract@@QEBAHXZ = @ILT+113070(?NumInputs@Network@tesseract@@QEBAHXZ)
       1402  579 0000965B ?NumMasterShapes@ShapeTable@tesseract@@QEBAHXZ = @ILT+34390(?NumMasterShapes@ShapeTable@tesseract@@QEBAHXZ)
       1403  57A 0001A8CA ?NumOutputs@LSTMRecognizer@tesseract@@QEBAHXZ = @ILT+104645(?NumOutputs@LSTMRecognizer@tesseract@@QEBAHXZ)
       1404  57B 00018A89 ?NumOutputs@Network@tesseract@@QEBAHXZ = @ILT+96900(?NumOutputs@Network@tesseract@@QEBAHXZ)
       1405  57C 000107CB ?NumSetBits@BitVector@tesseract@@QEBAHXZ = @ILT+63430(?NumSetBits@BitVector@tesseract@@QEBAHXZ)
       1406  57D 000197D1 ?NumShapes@ShapeTable@tesseract@@QEBAHXZ = @ILT+100300(?NumShapes@ShapeTable@tesseract@@QEBAHXZ)
       1407  57E 00001401 ?OKDiacriticMerge@ColPartition@tesseract@@QEBA_NAEBV12@_N@Z = @ILT+1020(?OKDiacriticMerge@ColPartition@tesseract@@QEBA_NAEBV12@_N@Z)
       1408  57F 0001583E ?OKMergeOverlap@ColPartition@tesseract@@QEAA_NAEBV12@0H_N@Z = @ILT+84025(?OKMergeOverlap@ColPartition@tesseract@@QEAA_NAEBV12@0H_N@Z)
       1409  580 00017C74 ?OKSpacingBlip@ColPartition@tesseract@@CA_NHHPEAPEAV12@H@Z = @ILT+93295(?OKSpacingBlip@ColPartition@tesseract@@CA_NHHPEAPEAV12@H@Z)
       1410  581 00004E35 ?Open@TFile@tesseract@@QEAA_NPEAU_iobuf@@_J@Z = @ILT+15920(?Open@TFile@tesseract@@QEAA_NPEAU_iobuf@@_J@Z)
       1411  582 0001B33D ?Open@TFile@tesseract@@QEAA_NPEBDH@Z = @ILT+107320(?Open@TFile@tesseract@@QEAA_NPEBDH@Z)
       1412  583 00004EE9 ?Open@TFile@tesseract@@QEAA_NPEBDP6A_N0PEAV?$vector@DV?$allocator@D@std@@@std@@@Z@Z = @ILT+16100(?Open@TFile@tesseract@@QEAA_NPEBDP6A_N0PEAV?$vector@DV?$allocator@D@std@@@std@@@Z@Z)
       1413  584 00011BCB ?OpenBoxFile@tesseract@@YAPEAU_iobuf@@PEBD@Z = @ILT+68550(?OpenBoxFile@tesseract@@YAPEAU_iobuf@@PEBD@Z)
       1414  585 000159CE ?OpenWrite@TFile@tesseract@@QEAAXPEAV?$vector@DV?$allocator@D@std@@@std@@@Z = @ILT+84425(?OpenWrite@TFile@tesseract@@QEAAXPEAV?$vector@DV?$allocator@D@std@@@std@@@Z)
       1415  586 00017A30 ?Orientation@PageIterator@tesseract@@QEBAXPEAW402@PEAW4WritingDirection@2@PEAW4TextlineOrder@2@PEAM@Z = @ILT+92715(?Orientation@PageIterator@tesseract@@QEBAXPEAW402@PEAW4WritingDirection@2@PEAW4TextlineOrder@2@PEAM@Z)
       1416  587 00009B0B ?OrientationIdToValue@tesseract@@YAHAEBH@Z = @ILT+35590(?OrientationIdToValue@tesseract@@YAHAEBH@Z)
       1417  588 0000C8E7 ?OtsuThresholdRectToPix@ImageThresholder@tesseract@@IEBAXVImage@2@PEAV32@@Z = @ILT+47330(?OtsuThresholdRectToPix@ImageThresholder@tesseract@@IEBAXVImage@2@PEAV32@@Z)
       1418  589 0000D9A9 ?OutputLossType@LSTMRecognizer@tesseract@@QEBA?AW4LossType@2@XZ = @ILT+51620(?OutputLossType@LSTMRecognizer@tesseract@@QEBA?AW4LossType@2@XZ)
       1419  58A 0001C51C ?OutputShape@Network@tesseract@@UEBA?AVStaticShape@2@AEBV32@@Z = @ILT+111895(?OutputShape@Network@tesseract@@UEBA?AVStaticShape@2@AEBV32@@Z)
       1420  58B 00002699 ?OutputStats@LSTMRecognizer@tesseract@@QEAAXAEBVNetworkIO@2@PEAM11@Z = @ILT+5780(?OutputStats@LSTMRecognizer@tesseract@@QEAAXAEBVNetworkIO@2@PEAM11@Z)
       1421  58C 0001D00C ?OverlapSplitBlob@ColPartition@tesseract@@QEAAPEAVBLOBNBOX@2@AEBVTBOX@2@@Z = @ILT+114695(?OverlapSplitBlob@ColPartition@tesseract@@QEAAPEAVBLOBNBOX@2@AEBVTBOX@2@@Z)
       1422  58D 00014C4A ?OverwriteComponents@TessdataManager@tesseract@@QEAA_NPEBDPEAPEADH@Z = @ILT+80965(?OverwriteComponents@TessdataManager@tesseract@@QEAA_NPEBDPEAPEADH@Z)
       1423  58E 0001AFDC ?OverwriteEntry@TessdataManager@tesseract@@QEAAXW4TessdataType@2@PEBDH@Z = @ILT+106455(?OverwriteEntry@TessdataManager@tesseract@@QEAAXW4TessdataType@2@PEBDH@Z)
       1424  58F 0001999D ?PadBlobBox@TextlineProjection@tesseract@@AEAA_NPEAVBLOBNBOX@2@PEAVTBOX@2@@Z = @ILT+100760(?PadBlobBox@TextlineProjection@tesseract@@AEAA_NPEAVBLOBNBOX@2@PEAVTBOX@2@@Z)
       1425  590 0001966E ?PageResIt@MutableIterator@tesseract@@QEBAPEBVPAGE_RES_IT@2@XZ = @ILT+99945(?PageResIt@MutableIterator@tesseract@@QEBAPEBVPAGE_RES_IT@2@XZ)
       1426  591 0001200D ?PaintColParts@EquationDetect@tesseract@@IEBAXAEBV?$basic_string@DU?$char_traits@D@std@@V?$allocator@D@2@@std@@@Z = @ILT+69640(?PaintColParts@EquationDetect@tesseract@@IEBAXAEBV?$basic_string@DU?$char_traits@D@std@@V?$allocator@D@2@@std@@@Z)
       1427  592 00011B62 ?PaintSpecialTexts@EquationDetect@tesseract@@IEBAXAEBV?$basic_string@DU?$char_traits@D@std@@V?$allocator@D@2@@std@@@Z = @ILT+68445(?PaintSpecialTexts@EquationDetect@tesseract@@IEBAXAEBV?$basic_string@DU?$char_traits@D@std@@V?$allocator@D@2@@std@@@Z)
       1428  593 0000FBE1 ?ParagraphInfo@PageIterator@tesseract@@QEBAXPEAW4ParagraphJustification@2@PEA_N1PEAH@Z = @ILT+60380(?ParagraphInfo@PageIterator@tesseract@@QEBAXPEAW4ParagraphJustification@2@PEA_N1PEAH@Z)
       1429  594 00018232 ?ParagraphIsLtr@ResultIterator@tesseract@@QEBA_NXZ = @ILT+94765(?ParagraphIsLtr@ResultIterator@tesseract@@QEBA_NXZ)
       1430  595 00016DBF ?ParseBoxFileStr@tesseract@@YA_NPEBDPEAHAEAV?$basic_string@DU?$char_traits@D@std@@V?$allocator@D@2@@std@@PEAVTBOX@1@@Z = @ILT+89530(?ParseBoxFileStr@tesseract@@YA_NPEBDPEAHAEAV?$basic_string@DU?$char_traits@D@std@@V?$allocator@D@2@@std@@PEAVTBOX@1@@Z)
       1431  596 000188A9 ?ParseLanguageString@Tesseract@tesseract@@QEAAXAEBV?$basic_string@DU?$char_traits@D@std@@V?$allocator@D@2@@std@@PEAV?$vector@V?$basic_string@DU?$char_traits@D@std@@V?$allocator@D@2@@std@@V?$allocator@V?$basic_string@DU?$char_traits@D@std@@V?$allocator@D@2@@std@@@2@@4@1@Z = @ILT+96420(?ParseLanguageString@Tesseract@tesseract@@QEAAXAEBV?$basic_string@DU?$char_traits@D@std@@V?$allocator@D@2@@std@@PEAV?$vector@V?$basic_string@DU?$char_traits@D@std@@V?$allocator@D@2@@std@@V?$allocator@V?$basic_string@DU?$char_traits@D@std@@V?$allocator@D@2@@std@@@2@@4@1@Z)
       1432  597 00007BD0 ?ParseLine@ParamsModel@tesseract@@AEAA_NPEADPEAPEADPEAM@Z = @ILT+27595(?ParseLine@ParamsModel@tesseract@@AEAA_NPEADPEAPEADPEAM@Z)
       1433  598 000071BC ?PartialSetPropertiesFromOther@UNICHARSET@tesseract@@QEAAXHAEBV12@@Z = @ILT+25015(?PartialSetPropertiesFromOther@UNICHARSET@tesseract@@QEAAXHAEBV12@@Z)
       1434  599 0001CA44 ?PartitionType@ColPartition@tesseract@@QEBA?AW4PolyBlockType@2@W4ColumnSpanningType@2@@Z = @ILT+113215(?PartitionType@ColPartition@tesseract@@QEBA?AW4PolyBlockType@2@W4ColumnSpanningType@2@@Z)
       1435  59A 0000EBD8 ?Pen@ScrollView@tesseract@@QEAAXHHH@Z = @ILT+56275(?Pen@ScrollView@tesseract@@QEAAXHHH@Z)
       1436  59B 000125DA ?Pen@ScrollView@tesseract@@QEAAXHHHH@Z = @ILT+71125(?Pen@ScrollView@tesseract@@QEAAXHHHH@Z)
       1437  59C 000075E0 ?Pen@ScrollView@tesseract@@QEAAXW4Color@12@@Z = @ILT+26075(?Pen@ScrollView@tesseract@@QEAAXW4Color@12@@Z)
       1438  59D 00ABAE00 ?PicoFeatDesc@tesseract@@3UFEATURE_DESC_STRUCT@1@B = ?PicoFeatDesc@tesseract@@3UFEATURE_DESC_STRUCT@1@B (struct tesseract::FEATURE_DESC_STRUCT const tesseract::PicoFeatDesc)
       1439  59E 00C84250 ?PicoFeatureLength@tesseract@@3MA = ?PicoFeatureLength@tesseract@@3MA (float tesseract::PicoFeatureLength)
       1440  59F 00012206 ?PiecesAllNatural@WERD_RES@tesseract@@QEBA_NHH@Z = @ILT+70145(?PiecesAllNatural@WERD_RES@tesseract@@QEBA_NHH@Z)
       1441  5A0 00008F80 ?PlotGradedBlobs@TextlineProjection@tesseract@@QEAAXPEAVBLOBNBOX_LIST@2@PEAVScrollView@2@@Z = @ILT+32635(?PlotGradedBlobs@TextlineProjection@tesseract@@QEAAXPEAVBLOBNBOX_LIST@2@PEAVScrollView@2@@Z)
       1442  5A1 00009DCC ?PopupItem@ScrollView@tesseract@@QEAAXPEBD0@Z = @ILT+36295(?PopupItem@ScrollView@tesseract@@QEAAXPEBD0@Z)
       1443  5A2 00005079 ?PopupItem@ScrollView@tesseract@@QEAAXPEBD0H00@Z = @ILT+16500(?PopupItem@ScrollView@tesseract@@QEAAXPEBD0H00@Z)
       1444  5A3 00003C15 ?PositionFromBuckets@IntFeatureSpace@tesseract@@IEBA?AUINT_FEATURE_STRUCT@2@HHH@Z = @ILT+11280(?PositionFromBuckets@IntFeatureSpace@tesseract@@IEBA?AUINT_FEATURE_STRUCT@2@HHH@Z)
       1445  5A4 00017968 ?PositionFromIndex@IntFeatureSpace@tesseract@@QEBA?AUINT_FEATURE_STRUCT@2@H@Z = @ILT+92515(?PositionFromIndex@IntFeatureSpace@tesseract@@QEBA?AUINT_FEATURE_STRUCT@2@H@Z)
       1446  5A5 0001CD3C ?PositionOfBestMatch@NetworkIO@tesseract@@QEBAHAEBV?$vector@HV?$allocator@H@std@@@std@@HH@Z = @ILT+113975(?PositionOfBestMatch@NetworkIO@tesseract@@QEBAHAEBV?$vector@HV?$allocator@H@std@@@std@@HH@Z)
       1447  5A6 00015299 ?PositionedAtSameWord@PageIterator@tesseract@@QEBA_NPEBVPAGE_RES_IT@2@@Z = @ILT+82580(?PositionedAtSameWord@PageIterator@tesseract@@QEBA_NPEBVPAGE_RES_IT@2@@Z)
       1448  5A7 00015159 ?PreScale@ImageData@tesseract@@QEBA?AVImage@2@HHPEAMPEAH1PEAV?$vector@VTBOX@tesseract@@V?$allocator@VTBOX@tesseract@@@std@@@std@@@Z = @ILT+82260(?PreScale@ImageData@tesseract@@QEBA?AVImage@2@HHPEAMPEAH1PEAV?$vector@VTBOX@tesseract@@V?$allocator@VTBOX@tesseract@@@std@@@std@@@Z)
       1449  5A8 00016CC5 ?PreenXHeights@Tesseract@tesseract@@QEAAXPEAVBLOCK_LIST@2@@Z = @ILT+89280(?PreenXHeights@Tesseract@tesseract@@QEAAXPEAVBLOCK_LIST@2@@Z)
       1450  5A9 00004A98 ?PrepareForPageseg@Tesseract@tesseract@@QEAAXXZ = @ILT+14995(?PrepareForPageseg@Tesseract@tesseract@@QEAAXXZ)
       1451  5AA 000170AD ?PrepareForTessOCR@Tesseract@tesseract@@QEAAXPEAVBLOCK_LIST@2@PEAV12@PEAUOSResults@2@@Z = @ILT+90280(?PrepareForTessOCR@Tesseract@tesseract@@QEAAXPEAVBLOCK_LIST@2@PEAV12@PEAUOSResults@2@@Z)
       1452  5AB 00001A7D ?PrerecAllWordsPar@Tesseract@tesseract@@QEAAXAEBV?$vector@UWordData@tesseract@@V?$allocator@UWordData@tesseract@@@std@@@std@@@Z = @ILT+2680(?PrerecAllWordsPar@Tesseract@tesseract@@QEAAXAEBV?$vector@UWordData@tesseract@@V?$allocator@UWordData@tesseract@@@std@@@std@@@Z)
       1453  5AC 0001CF08 ?Print@ColPartition@tesseract@@QEBAXXZ = @ILT+114435(?Print@ColPartition@tesseract@@QEBAXXZ)
       1454  5AD 00010CC1 ?Print@DENORM@tesseract@@QEBAXXZ = @ILT+64700(?Print@DENORM@tesseract@@QEBAXXZ)
       1455  5AE 0000326F ?Print@NetworkIO@tesseract@@QEBAXH@Z = @ILT+8810(?Print@NetworkIO@tesseract@@QEBAXH@Z)
       1456  5AF 00015776 ?Print@ParamsModel@tesseract@@QEAAXXZ = @ILT+83825(?Print@ParamsModel@tesseract@@QEAAXXZ)
       1457  5B0 000107E4 ?PrintAdaptedTemplates@Classify@tesseract@@QEAAXPEAU_iobuf@@PEAVADAPT_TEMPLATES_STRUCT@2@@Z = @ILT+63455(?PrintAdaptedTemplates@Classify@tesseract@@QEAAXPEAU_iobuf@@PEAVADAPT_TEMPLATES_STRUCT@2@@Z)
       1458  5B1 0001BB53 ?PrintAdaptiveMatchResults@Classify@tesseract@@QEAAXAEBUADAPT_RESULTS@2@@Z = @ILT+109390(?PrintAdaptiveMatchResults@Classify@tesseract@@QEAAXAEBUADAPT_RESULTS@2@@Z)
       1459  5B2 0001B85B ?PrintBeam2@RecodeBeamSearch@tesseract@@QEBAX_NHPEBVUNICHARSET@2@0@Z = @ILT+108630(?PrintBeam2@RecodeBeamSearch@tesseract@@QEBAX_NHPEBVUNICHARSET@2@0@Z)
       1460  5B3 00001DAC ?PrintBestChoices@WERD_RES@tesseract@@QEBAXXZ = @ILT+3495(?PrintBestChoices@WERD_RES@tesseract@@QEBAXXZ)
       1461  5B4 0000FECF ?PrintColors@ColPartition@tesseract@@QEAAXXZ = @ILT+61130(?PrintColors@ColPartition@tesseract@@QEAAXXZ)
       1462  5B5 00014DA3 ?PrintColumnCandidates@ColumnFinder@tesseract@@AEAAXPEBD@Z = @ILT+81310(?PrintColumnCandidates@ColumnFinder@tesseract@@AEAAXPEBD@Z)
       1463  5B6 0000D846 ?PrintFontsTable@TessBaseAPI@tesseract@@QEBAXPEAU_iobuf@@@Z = @ILT+51265(?PrintFontsTable@TessBaseAPI@tesseract@@QEBAXPEAU_iobuf@@@Z)
       1464  5B7 0000D490 ?PrintParams@ParamUtils@tesseract@@SAXPEAU_iobuf@@PEBUParamsVectors@2@@Z = @ILT+50315(?PrintParams@ParamUtils@tesseract@@SAXPEAU_iobuf@@PEBUParamsVectors@2@@Z)
       1465  5B8 0001413C ?PrintResults@ShapeClassifier@tesseract@@UEBAXPEBDAEBV?$vector@UShapeRating@tesseract@@V?$allocator@UShapeRating@tesseract@@@std@@@std@@@Z = @ILT+78135(?PrintResults@ShapeClassifier@tesseract@@UEBAXPEBDAEBV?$vector@UShapeRating@tesseract@@V?$allocator@UShapeRating@tesseract@@@std@@@std@@@Z)
       1466  5B9 0001309D ?PrintSpecialBlobsDensity@EquationDetect@tesseract@@IEBAXPEBVColPartition@2@@Z = @ILT+73880(?PrintSpecialBlobsDensity@EquationDetect@tesseract@@IEBAXPEBVColPartition@2@@Z)
       1467  5BA 0000A9C5 ?PrintVariables@TessBaseAPI@tesseract@@QEBAXPEAU_iobuf@@@Z = @ILT+39360(?PrintVariables@TessBaseAPI@tesseract@@QEBAXPEAU_iobuf@@@Z)
       1468  5BB 000145B5 ?ProbToCertainty@NetworkIO@tesseract@@SAMM@Z = @ILT+79280(?ProbToCertainty@NetworkIO@tesseract@@SAMM@Z)
       1469  5BC 00011A2C ?ProbabilityInContext@Dict@tesseract@@QEAANPEBDH0H@Z = @ILT+68135(?ProbabilityInContext@Dict@tesseract@@QEAANPEBDH0H@Z)
       1470  5BD 0001D1DD ?ProcessMathBlockSatelliteParts@EquationDetect@tesseract@@IEAAXXZ = @ILT+115160(?ProcessMathBlockSatelliteParts@EquationDetect@tesseract@@IEAAXXZ)
       1471  5BE 00002225 ?ProcessPage@TessBaseAPI@tesseract@@QEAA_NPEAUPix@@HPEBD1HPEAVTessResultRenderer@2@@Z = @ILT+4640(?ProcessPage@TessBaseAPI@tesseract@@QEAA_NPEAUPix@@HPEBD1HPEAVTessResultRenderer@2@@Z)
       1472  5BF 0000D062 ?ProcessPages@TessBaseAPI@tesseract@@QEAA_NPEBD0HPEAVTessResultRenderer@2@@Z = @ILT+49245(?ProcessPages@TessBaseAPI@tesseract@@QEAA_NPEBD0HPEAVTessResultRenderer@2@@Z)
       1473  5C0 0001C33C ?ProcessPagesFileList@TessBaseAPI@tesseract@@AEAA_NPEAU_iobuf@@PEAV?$basic_string@DU?$char_traits@D@std@@V?$allocator@D@2@@std@@PEBDHPEAVTessResultRenderer@2@H@Z = @ILT+111415(?ProcessPagesFileList@TessBaseAPI@tesseract@@AEAA_NPEAU_iobuf@@PEAV?$basic_string@DU?$char_traits@D@std@@V?$allocator@D@2@@std@@PEBDHPEAVTessResultRenderer@2@H@Z)
       1474  5C1 0001A8E8 ?ProcessPagesInternal@TessBaseAPI@tesseract@@QEAA_NPEBD0HPEAVTessResultRenderer@2@@Z = @ILT+104675(?ProcessPagesInternal@TessBaseAPI@tesseract@@QEAA_NPEBD0HPEAVTessResultRenderer@2@@Z)
       1475  5C2 000131CE ?ProcessPagesMultipageTiff@TessBaseAPI@tesseract@@AEAA_NPEBE_KPEBD2HPEAVTessResultRenderer@2@H@Z = @ILT+74185(?ProcessPagesMultipageTiff@TessBaseAPI@tesseract@@AEAA_NPEBE_KPEBD2HPEAVTessResultRenderer@2@H@Z)
       1476  5C3 0000FDB7 ?ProcessPatternEdges@Dict@tesseract@@QEBAXPEBVDawg@2@AEBUDawgPosition@2@H_NPEAUDawgArgs@2@PEAW4PermuterType@2@@Z = @ILT+60850(?ProcessPatternEdges@Dict@tesseract@@QEBAXPEBVDawg@2@AEBUDawgPosition@2@H_NPEAUDawgArgs@2@PEAW4PermuterType@2@@Z)
       1477  5C4 00013557 ?ProcessSegSearchPainPoint@Wordrec@tesseract@@IEAAXMAEBUMATRIX_COORD@2@PEBDPEAV?$vector@VSegSearchPending@tesseract@@V?$allocator@VSegSearchPending@tesseract@@@std@@@std@@PEAVWERD_RES@2@PEAVLMPainPoints@2@PEAUBlamerBundle@2@@Z = @ILT+75090(?ProcessSegSearchPainPoint@Wordrec@tesseract@@IEAAXMAEBUMATRIX_COORD@2@PEBDPEAV?$vector@VSegSearchPending@tesseract@@V?$allocator@VSegSearchPending@tesseract@@@std@@@std@@PEAVWERD_RES@2@PEAVLMPainPoints@2@PEAUBlamerBundle@2@@Z)
       1478  5C5 00010C44 ?ProcessTargetWord@Tesseract@tesseract@@QEAA_NAEBVTBOX@2@0PEBDH@Z = @ILT+64575(?ProcessTargetWord@Tesseract@tesseract@@QEAA_NAEBVTBOX@2@0PEBDH@Z)
       1479  5C6 0000F8D0 ?ProjectBlobs@TextlineProjection@tesseract@@AEAAXPEAVBLOBNBOX_LIST@2@AEBVFCOORD@2@AEBVTBOX@2@VImage@2@@Z = @ILT+59595(?ProjectBlobs@TextlineProjection@tesseract@@AEAAXPEAVBLOBNBOX_LIST@2@AEBVFCOORD@2@AEBVTBOX@2@VImage@2@@Z)
       1480  5C7 00010A9B ?PropertiesIncomplete@UNICHARSET@tesseract@@QEBA_NH@Z = @ILT+64150(?PropertiesIncomplete@UNICHARSET@tesseract@@QEBA_NH@Z)
       1481  5C8 00006A55 ?PruneClasses@Classify@tesseract@@QEAAHPEBUINT_TEMPLATES_STRUCT@2@HHPEBUINT_FEATURE_STRUCT@2@PEBEPEBGPEAV?$vector@UCP_RESULT_STRUCT@tesseract@@V?$allocator@UCP_RESULT_STRUCT@tesseract@@@std@@@std@@@Z = @ILT+23120(?PruneClasses@Classify@tesseract@@QEAAHPEBUINT_TEMPLATES_STRUCT@2@HHPEBUINT_FEATURE_STRUCT@2@PEBEPEBGPEAV?$vector@UCP_RESULT_STRUCT@tesseract@@V?$allocator@UCP_RESULT_STRUCT@tesseract@@@std@@@std@@@Z)
       1482  5C9 0000B9BA ?PushDupOrNoDawgIfBetter@RecodeBeamSearch@tesseract@@AEAAXH_NHHMMM0W4NodeContinuation@2@PEBURecodeNode@2@PEAURecodeBeam@12@@Z = @ILT+43445(?PushDupOrNoDawgIfBetter@RecodeBeamSearch@tesseract@@AEAAXH_NHHMMM0W4NodeContinuation@2@PEBURecodeNode@2@PEAURecodeBeam@12@@Z)
       1483  5CA 00013EC1 ?PushHeapIfBetter@RecodeBeamSearch@tesseract@@AEAAXHHHW4PermuterType@2@_N111MPEBURecodeNode@2@PEAVDawgPositionVector@2@PEAV?$GenericHeap@U?$KDPairInc@NURecodeNode@tesseract@@@tesseract@@@2@@Z = @ILT+77500(?PushHeapIfBetter@RecodeBeamSearch@tesseract@@AEAAXHHHW4PermuterType@2@_N111MPEBURecodeNode@2@PEAVDawgPositionVector@2@PEAV?$GenericHeap@U?$KDPairInc@NURecodeNode@tesseract@@@tesseract@@@2@@Z)
       1484  5CB 0001BE14 ?PushHeapIfBetter@RecodeBeamSearch@tesseract@@AEAAXHPEAURecodeNode@2@PEAV?$GenericHeap@U?$KDPairInc@NURecodeNode@tesseract@@@tesseract@@@2@@Z = @ILT+110095(?PushHeapIfBetter@RecodeBeamSearch@tesseract@@AEAAXHPEAURecodeNode@2@PEAV?$GenericHeap@U?$KDPairInc@NURecodeNode@tesseract@@@tesseract@@@2@@Z)
       1485  5CC 0000E9F8 ?PushInitialDawgIfBetter@RecodeBeamSearch@tesseract@@AEAAXHHW4PermuterType@2@_N1MW4NodeContinuation@2@PEBURecodeNode@2@PEAURecodeBeam@12@@Z = @ILT+55795(?PushInitialDawgIfBetter@RecodeBeamSearch@tesseract@@AEAAXHHW4PermuterType@2@_N1MW4NodeContinuation@2@PEBURecodeNode@2@PEAURecodeBeam@12@@Z)
       1486  5CD 00018E49 ?Random@Network@tesseract@@IEAANN@Z = @ILT+97860(?Random@Network@tesseract@@IEAANN@Z)
       1487  5CE 0001ADC0 ?Randomize@NetworkIO@tesseract@@QEAAXHHHPEAVTRand@2@@Z = @ILT+105915(?Randomize@NetworkIO@tesseract@@QEAAXHHHPEAVTRand@2@@Z)
       1488  5CF 0001776F ?RandomizedCopy@TrainingSample@tesseract@@QEBAPEAV12@H@Z = @ILT+92010(?RandomizedCopy@TrainingSample@tesseract@@QEBAPEAV12@H@Z)
       1489  5D0 0000D9E0 ?RangeModalColumnSet@ColumnFinder@tesseract@@AEAAHPEAPEAHPEBHHH@Z = @ILT+51675(?RangeModalColumnSet@ColumnFinder@tesseract@@AEAAHPEAPEAHPEBHHH@Z)
       1490  5D1 0001B6AD ?RawUTF8@WERD_RES@tesseract@@QEBAPEBDH@Z = @ILT+108200(?RawUTF8@WERD_RES@tesseract@@QEBAPEBDH@Z)
       1491  5D2 00012931 ?ReMapClassIds@ShapeTable@tesseract@@QEAAXAEBV?$vector@HV?$allocator@H@std@@@std@@@Z = @ILT+71980(?ReMapClassIds@ShapeTable@tesseract@@QEAAXAEBV?$vector@HV?$allocator@H@std@@@std@@@Z)
       1492  5D3 00008328 ?ReSegmentByClassification@Tesseract@tesseract@@QEAAXPEAVPAGE_RES@2@@Z = @ILT+29475(?ReSegmentByClassification@Tesseract@tesseract@@QEAAXPEAVPAGE_RES@2@@Z)
       1493  5D4 00019EB1 ?ReSetAndReFilterBlobs@TO_BLOCK@tesseract@@QEAAXXZ = @ILT+102060(?ReSetAndReFilterBlobs@TO_BLOCK@tesseract@@QEAAXXZ)
       1494  5D5 00006BF9 ?ReTypeBlobs@ColPartitionGrid@tesseract@@QEAAXPEAVBLOBNBOX_LIST@2@@Z = @ILT+23540(?ReTypeBlobs@ColPartitionGrid@tesseract@@QEAAXPEAVBLOBNBOX_LIST@2@@Z)
       1495  5D6 000183FE ?ReadAdaptedTemplates@Classify@tesseract@@QEAAPEAVADAPT_TEMPLATES_STRUCT@2@PEAVTFile@2@@Z = @ILT+95225(?ReadAdaptedTemplates@Classify@tesseract@@QEAAPEAVADAPT_TEMPLATES_STRUCT@2@PEAVTFile@2@@Z)
       1496  5D7 00017918 ?ReadCharDescription@tesseract@@YAPEAUCHAR_DESC_STRUCT@1@AEBUFEATURE_DEFS_STRUCT@1@PEAU_iobuf@@@Z = @ILT+92435(?ReadCharDescription@tesseract@@YAPEAUCHAR_DESC_STRUCT@1@AEBUFEATURE_DEFS_STRUCT@1@PEAU_iobuf@@@Z)
       1497  5D8 000134B2 ?ReadConfigFile@TessBaseAPI@tesseract@@QEAAXPEBD@Z = @ILT+74925(?ReadConfigFile@TessBaseAPI@tesseract@@QEAAXPEBD@Z)
       1498  5D9 00017B39 ?ReadDebugConfigFile@TessBaseAPI@tesseract@@QEAAXPEBD@Z = @ILT+92980(?ReadDebugConfigFile@TessBaseAPI@tesseract@@QEAAXPEBD@Z)
       1499  5DA 0001C026 ?ReadIntTemplates@Classify@tesseract@@QEAAPEAUINT_TEMPLATES_STRUCT@2@PEAVTFile@2@@Z = @ILT+110625(?ReadIntTemplates@Classify@tesseract@@QEAAPEAUINT_TEMPLATES_STRUCT@2@PEAVTFile@2@@Z)
       1500  5DB 0000E8FE ?ReadMemBoxes@tesseract@@YA_NH_NPEBD0PEAV?$vector@VTBOX@tesseract@@V?$allocator@VTBOX@tesseract@@@std@@@std@@PEAV?$vector@V?$basic_string@DU?$char_traits@D@std@@V?$allocator@D@2@@std@@V?$allocator@V?$basic_string@DU?$char_traits@D@std@@V?$allocator@D@2@@std@@@2@@3@3PEAV?$vector@HV?$allocator@H@std@@@3@@Z = @ILT+55545(?ReadMemBoxes@tesseract@@YA_NH_NPEBD0PEAV?$vector@VTBOX@tesseract@@V?$allocator@VTBOX@tesseract@@@std@@@std@@PEAV?$vector@V?$basic_string@DU?$char_traits@D@std@@V?$allocator@D@2@@std@@V?$allocator@V?$basic_string@DU?$char_traits@D@std@@V?$allocator@D@2@@std@@@2@@3@3PEAV?$vector@HV?$allocator@H@std@@@3@@Z)
       1501  5DC 0001898A ?ReadNewCutoffs@Classify@tesseract@@QEAAXPEAVTFile@2@PEAG@Z = @ILT+96645(?ReadNewCutoffs@Classify@tesseract@@QEAAXPEAVTFile@2@PEAG@Z)
       1502  5DD 000082BF ?ReadNextBox@tesseract@@YA_NHPEAHPEAU_iobuf@@AEAV?$basic_string@DU?$char_traits@D@std@@V?$allocator@D@2@@std@@PEAVTBOX@1@@Z = @ILT+29370(?ReadNextBox@tesseract@@YA_NHPEAHPEAU_iobuf@@AEAV?$basic_string@DU?$char_traits@D@std@@V?$allocator@D@2@@std@@PEAVTBOX@1@@Z)
       1503  5DE 00005EF7 ?ReadNextBox@tesseract@@YA_NPEAHPEAU_iobuf@@AEAV?$basic_string@DU?$char_traits@D@std@@V?$allocator@D@2@@std@@PEAVTBOX@1@@Z = @ILT+20210(?ReadNextBox@tesseract@@YA_NPEAHPEAU_iobuf@@AEAV?$basic_string@DU?$char_traits@D@std@@V?$allocator@D@2@@std@@PEAVTBOX@1@@Z)
       1504  5DF 0001CE6D ?ReadNormProtos@Classify@tesseract@@QEAAPEAUNORM_PROTOS@2@PEAVTFile@2@@Z = @ILT+114280(?ReadNormProtos@Classify@tesseract@@QEAAPEAUNORM_PROTOS@2@PEAVTFile@2@@Z)
       1505  5E0 0001A0D2 ?ReadParamsFile@ParamUtils@tesseract@@SA_NPEBDW4SetParamConstraint@2@PEAUParamsVectors@2@@Z = @ILT+102605(?ReadParamsFile@ParamUtils@tesseract@@SA_NPEBDW4SetParamConstraint@2@PEAUParamsVectors@2@@Z)
       1506  5E1 0001A339 ?ReadParamsFromFp@ParamUtils@tesseract@@SA_NW4SetParamConstraint@2@PEAVTFile@2@PEAUParamsVectors@2@@Z = @ILT+103220(?ReadParamsFromFp@ParamUtils@tesseract@@SA_NW4SetParamConstraint@2@PEAVTFile@2@PEAUParamsVectors@2@@Z)
       1507  5E2 00017459 ?ReadTimeStep@NetworkIO@tesseract@@QEBAXHPEAN@Z = @ILT+91220(?ReadTimeStep@NetworkIO@tesseract@@QEBAXHPEAN@Z)
       1508  5E3 0000C6F8 ?ReassignDiacritics@Tesseract@tesseract@@QEAA_NHPEAVPAGE_RES_IT@2@PEA_N@Z = @ILT+46835(?ReassignDiacritics@Tesseract@tesseract@@QEAA_NHPEAVPAGE_RES_IT@2@PEA_N@Z)
       1509  5E4 000162BB ?RebuildBestState@WERD_RES@tesseract@@QEAAXXZ = @ILT+86710(?RebuildBestState@WERD_RES@tesseract@@QEAAXXZ)
       1510  5E5 000074C3 ?RecogAllWordsPassN@Tesseract@tesseract@@QEAA_NHPEAVETEXT_DESC@2@PEAVPAGE_RES_IT@2@PEAV?$vector@UWordData@tesseract@@V?$allocator@UWordData@tesseract@@@std@@@std@@@Z = @ILT+25790(?RecogAllWordsPassN@Tesseract@tesseract@@QEAA_NHPEAVETEXT_DESC@2@PEAVPAGE_RES_IT@2@PEAV?$vector@UWordData@tesseract@@V?$allocator@UWordData@tesseract@@@std@@@std@@@Z)
       1511  5E6 000126DE ?Recognize@TessBaseAPI@tesseract@@QEAAHPEAVETEXT_DESC@2@@Z = @ILT+71385(?Recognize@TessBaseAPI@tesseract@@QEAAHPEAVETEXT_DESC@2@@Z)
       1512  5E7 0000987C ?RecognizeLine@LSTMRecognizer@tesseract@@QEAAXAEBVImageData@2@_N1NAEBVTBOX@2@PEAV?$PointerVector@VWERD_RES@tesseract@@@2@HH@Z = @ILT+34935(?RecognizeLine@LSTMRecognizer@tesseract@@QEAAXAEBVImageData@2@_N1NAEBVTBOX@2@PEAV?$PointerVector@VWERD_RES@tesseract@@@2@HH@Z)
       1513  5E8 00001F2D ?RecognizeLine@LSTMRecognizer@tesseract@@QEAA_NAEBVImageData@2@_N111PEAMPEAVNetworkIO@2@3@Z = @ILT+3880(?RecognizeLine@LSTMRecognizer@tesseract@@QEAA_NAEBVImageData@2@_N111PEAMPEAVNetworkIO@2@3@Z)
       1514  5E9 0000F45C ?RecognizeLinedTable@TableRecognizer@tesseract@@IEAA_NAEBVTBOX@2@PEAVStructuredTable@2@@Z = @ILT+58455(?RecognizeLinedTable@TableRecognizer@tesseract@@IEAA_NAEBVTBOX@2@PEAVStructuredTable@2@@Z)
       1515  5EA 0000B915 ?RecognizeTable@TableRecognizer@tesseract@@QEAAPEAVStructuredTable@2@AEBVTBOX@2@@Z = @ILT+43280(?RecognizeTable@TableRecognizer@tesseract@@QEAAPEAVStructuredTable@2@AEBVTBOX@2@@Z)
       1516  5EB 0000C761 ?RecognizeTables@TableFinder@tesseract@@IEAAXXZ = @ILT+46940(?RecognizeTables@TableFinder@tesseract@@IEAAXXZ)
       1517  5EC 000115A4 ?RecognizeWhitespacedTable@TableRecognizer@tesseract@@IEAA_NAEBVTBOX@2@PEAVStructuredTable@2@@Z = @ILT+66975(?RecognizeWhitespacedTable@TableRecognizer@tesseract@@IEAA_NAEBVTBOX@2@PEAVStructuredTable@2@@Z)
       1518  5ED 00016423 ?RecomputeBounds@ColPartitionGrid@tesseract@@QEAAXHAEBVICOORD@2@00@Z = @ILT+87070(?RecomputeBounds@ColPartitionGrid@tesseract@@QEAAXHAEBVICOORD@2@00@Z)
       1519  5EE 00009962 ?Rectangle@ScrollView@tesseract@@QEAAXHHHH@Z = @ILT+35165(?Rectangle@ScrollView@tesseract@@QEAAXHHHH@Z)
       1520  5EF 0001C6D4 ?RectangleEmpty@?$BBGrid@VBLOBNBOX@tesseract@@VBLOBNBOX_CLIST@2@VBLOBNBOX_C_IT@2@@tesseract@@QEAA_NAEBVTBOX@2@@Z = @ILT+112335(?RectangleEmpty@?$BBGrid@VBLOBNBOX@tesseract@@VBLOBNBOX_CLIST@2@VBLOBNBOX_C_IT@2@@tesseract@@QEAA_NAEBVTBOX@2@@Z)
       1521  5F0 0001D4D0 ?RectangleEmpty@?$BBGrid@VColPartition@tesseract@@VColPartition_CLIST@2@VColPartition_C_IT@2@@tesseract@@QEAA_NAEBVTBOX@2@@Z = @ILT+115915(?RectangleEmpty@?$BBGrid@VColPartition@tesseract@@VColPartition_CLIST@2@VColPartition_C_IT@2@@tesseract@@QEAA_NAEBVTBOX@2@@Z)
       1522  5F1 0001CEE0 ?RefinePartitionPartners@ColPartitionGrid@tesseract@@QEAAX_N@Z = @ILT+114395(?RefinePartitionPartners@ColPartitionGrid@tesseract@@QEAAX_N@Z)
       1523  5F2 0000D36E ?RefinePartnerShortcuts@ColPartition@tesseract@@AEAAX_NPEAVColPartition_CLIST@2@@Z = @ILT+50025(?RefinePartnerShortcuts@ColPartition@tesseract@@AEAAX_NPEAVColPartition_CLIST@2@@Z)
       1524  5F3 000176ED ?RefinePartners@ColPartition@tesseract@@QEAAXW4PolyBlockType@2@_NPEAVColPartitionGrid@2@@Z = @ILT+91880(?RefinePartners@ColPartition@tesseract@@QEAAXW4PolyBlockType@2@_NPEAVColPartitionGrid@2@@Z)
       1525  5F4 000087B0 ?RefinePartnersByOverlap@ColPartition@tesseract@@AEAAX_NPEAVColPartition_CLIST@2@@Z = @ILT+30635(?RefinePartnersByOverlap@ColPartition@tesseract@@AEAAX_NPEAVColPartition_CLIST@2@@Z)
       1526  5F5 00015CE9 ?RefinePartnersByType@ColPartition@tesseract@@AEAAX_NPEAVColPartition_CLIST@2@@Z = @ILT+85220(?RefinePartnersByType@ColPartition@tesseract@@AEAAX_NPEAVColPartition_CLIST@2@@Z)
       1527  5F6 0001609F ?RefinePartnersInternal@ColPartition@tesseract@@AEAAX_N0PEAVColPartitionGrid@2@@Z = @ILT+86170(?RefinePartnersInternal@ColPartition@tesseract@@AEAAX_N0PEAVColPartitionGrid@2@@Z)
       1528  5F7 000039DB ?RefineTextPartnersByMerge@ColPartition@tesseract@@AEAAX_N0PEAVColPartition_CLIST@2@PEAVColPartitionGrid@2@@Z = @ILT+10710(?RefineTextPartnersByMerge@ColPartition@tesseract@@AEAAX_N0PEAVColPartition_CLIST@2@PEAVColPartitionGrid@2@@Z)
       1529  5F8 00016757 ?ReflectForRtl@ColumnFinder@tesseract@@AEAAXPEAVTO_BLOCK@2@PEAVBLOBNBOX_LIST@2@@Z = @ILT+87890(?ReflectForRtl@ColumnFinder@tesseract@@AEAAXPEAVTO_BLOCK@2@PEAVBLOBNBOX_LIST@2@@Z)
       1530  5F9 0000C2A2 ?ReflectInYAxis@ColPartition@tesseract@@QEAAXXZ = @ILT+45725(?ReflectInYAxis@ColPartition@tesseract@@QEAAXXZ)
       1531  5FA 0000DBE8 ?ReflectInYAxis@ColPartitionGrid@tesseract@@QEAAXXZ = @ILT+52195(?ReflectInYAxis@ColPartitionGrid@tesseract@@QEAAXXZ)
       1532  5FB 00007879 ?ReflectInYAxis@TabFind@tesseract@@IEAAXXZ = @ILT+26740(?ReflectInYAxis@TabFind@tesseract@@IEAAXXZ)
       1533  5FC 00005308 ?RefreshDebugWindow@Classify@tesseract@@QEAAXPEAPEAVScrollView@2@PEBDHAEBVTBOX@2@@Z = @ILT+17155(?RefreshDebugWindow@Classify@tesseract@@QEAAXPEAPEAVScrollView@2@PEBDHAEBVTBOX@2@@Z)
       1534  5FD 000016F4 ?ReleaseBlobsAndCleanupUnused@ColumnFinder@tesseract@@AEAAXPEAVTO_BLOCK@2@@Z = @ILT+1775(?ReleaseBlobsAndCleanupUnused@ColumnFinder@tesseract@@AEAAXPEAVTO_BLOCK@2@@Z)
       1535  5FE 0001A0B4 ?ReleaseNonLeaderBoxes@ColPartition@tesseract@@QEAA_NXZ = @ILT+102575(?ReleaseNonLeaderBoxes@ColPartition@tesseract@@QEAA_NXZ)
       1536  5FF 00003F12 ?RemapOutputs@Network@tesseract@@UEAAHHAEBV?$vector@HV?$allocator@H@std@@@std@@@Z = @ILT+12045(?RemapOutputs@Network@tesseract@@UEAAHHAEBV?$vector@HV?$allocator@H@std@@@std@@@Z)
       1537  600 00010B59 ?RemoveBBox@?$BBGrid@VBLOBNBOX@tesseract@@VBLOBNBOX_CLIST@2@VBLOBNBOX_C_IT@2@@tesseract@@QEAAXPEAVBLOBNBOX@2@@Z = @ILT+64340(?RemoveBBox@?$BBGrid@VBLOBNBOX@tesseract@@VBLOBNBOX_CLIST@2@VBLOBNBOX_C_IT@2@@tesseract@@QEAAXPEAVBLOBNBOX@2@@Z)
       1538  601 0000421E ?RemoveBBox@?$BBGrid@VColPartition@tesseract@@VColPartition_CLIST@2@VColPartition_C_IT@2@@tesseract@@QEAAXPEAVColPartition@2@@Z = @ILT+12825(?RemoveBBox@?$BBGrid@VColPartition@tesseract@@VColPartition_CLIST@2@VColPartition_C_IT@2@@tesseract@@QEAAXPEAVColPartition@2@@Z)
       1539  602 0000EAD9 ?RemoveBadMatches@Classify@tesseract@@QEAAXPEAUADAPT_RESULTS@2@@Z = @ILT+56020(?RemoveBadMatches@Classify@tesseract@@QEAAXPEAUADAPT_RESULTS@2@@Z)
       1540  603 000013CF ?RemoveBox@ColPartition@tesseract@@QEAAXPEAVBLOBNBOX@2@@Z = @ILT+970(?RemoveBox@ColPartition@tesseract@@QEAAXPEAVBLOBNBOX@2@@Z)
       1541  604 0001D421 ?RemoveExtraPuncs@Classify@tesseract@@QEAAXPEAUADAPT_RESULTS@2@@Z = @ILT+115740(?RemoveExtraPuncs@Classify@tesseract@@QEAAXPEAUADAPT_RESULTS@2@@Z)
       1542  605 0001ADBB ?RemovePartner@ColPartition@tesseract@@QEAAX_NPEAV12@@Z = @ILT+105910(?RemovePartner@ColPartition@tesseract@@QEAAX_NPEAV12@@Z)
       1543  606 0001B743 ?RenderIntFeature@tesseract@@YAXPEAVScrollView@1@PEBUINT_FEATURE_STRUCT@1@W4Color@21@@Z = @ILT+108350(?RenderIntFeature@tesseract@@YAXPEAVScrollView@1@PEBUINT_FEATURE_STRUCT@1@W4Color@21@@Z)
       1544  607 000053FD ?RenderSpecialText@EquationDetectBase@tesseract@@SAXVImage@2@PEAVBLOBNBOX@2@@Z = @ILT+17400(?RenderSpecialText@EquationDetectBase@tesseract@@SAXVImage@2@PEAVBLOBNBOX@2@@Z)
       1545  608 0001BC11 ?RenderToPix@TrainingSample@tesseract@@QEBA?AVImage@2@PEBVUNICHARSET@2@@Z = @ILT+109580(?RenderToPix@TrainingSample@tesseract@@QEBA?AVImage@2@PEBVUNICHARSET@2@@Z)
       1546  609 0000D8F0 ?ReplaceAmbig@Dict@tesseract@@QEAAXHHHPEAVWERD_CHOICE@2@PEAVMATRIX@2@@Z = @ILT+51435(?ReplaceAmbig@Dict@tesseract@@QEAAXHHHPEAVWERD_CHOICE@2@PEAVMATRIX@2@@Z)
       1547  60A 0000A894 ?ReplaceBestChoice@WERD_RES@tesseract@@QEAAXPEAVWERD_CHOICE@2@@Z = @ILT+39055(?ReplaceBestChoice@WERD_RES@tesseract@@QEAAXPEAVWERD_CHOICE@2@@Z)
       1548  60B 00008D73 ?ReplaceCurrentWord@PAGE_RES_IT@tesseract@@QEAAXPEAV?$PointerVector@VWERD_RES@tesseract@@@2@@Z = @ILT+32110(?ReplaceCurrentWord@PAGE_RES_IT@tesseract@@QEAAXPEAV?$PointerVector@VWERD_RES@tesseract@@@2@@Z)
       1549  60C 00007685 ?ReportFailedBox@Tesseract@tesseract@@QEAAXHVTBOX@2@PEBD1@Z = @ILT+26240(?ReportFailedBox@Tesseract@tesseract@@QEAAXHVTBOX@2@PEBD1@Z)
       1550  60D 000056AA ?ReportXhtFixResult@Tesseract@tesseract@@QEAAX_NMPEAVWERD_RES@2@1@Z = @ILT+18085(?ReportXhtFixResult@Tesseract@tesseract@@QEAAX_NMPEAVWERD_RES@2@1@Z)
       1551  60E 00002BF8 ?ResegmentCharBox@Tesseract@tesseract@@QEAA_NPEAVPAGE_RES@2@PEBVTBOX@2@AEBV42@1PEBD@Z = @ILT+7155(?ResegmentCharBox@Tesseract@tesseract@@QEAA_NPEAVPAGE_RES@2@PEBVTBOX@2@AEBV42@1PEBD@Z)
       1552  60F 000081BB ?ResegmentWordBox@Tesseract@tesseract@@QEAA_NPEAVBLOCK_LIST@2@AEBVTBOX@2@PEBV42@PEBD@Z = @ILT+29110(?ResegmentWordBox@Tesseract@tesseract@@QEAA_NPEAVBLOCK_LIST@2@AEBVTBOX@2@PEBV42@PEBD@Z)
       1553  610 00016455 ?Reset@TabFind@tesseract@@IEAAXXZ = @ILT+87120(?Reset@TabFind@tesseract@@IEAAXXZ)
       1554  611 0000E6DD ?ResetAdaptiveClassifier@Tesseract@tesseract@@QEAAXXZ = @ILT+55000(?ResetAdaptiveClassifier@Tesseract@tesseract@@QEAAXXZ)
       1555  612 0000CA1D ?ResetAdaptiveClassifierInternal@Classify@tesseract@@QEAAXXZ = @ILT+47640(?ResetAdaptiveClassifierInternal@Classify@tesseract@@QEAAXXZ)
       1556  613 0000F6C8 ?ResetBit@BitVector@tesseract@@QEAAXH@Z = @ILT+59075(?ResetBit@BitVector@tesseract@@QEAAXH@Z)
       1557  614 00004C05 ?ResetDocumentDictionary@Dict@tesseract@@QEAAXXZ = @ILT+15360(?ResetDocumentDictionary@Dict@tesseract@@QEAAXXZ)
       1558  615 00013570 ?ResetDocumentDictionary@Tesseract@tesseract@@QEAAXXZ = @ILT+75115(?ResetDocumentDictionary@Tesseract@tesseract@@QEAAXXZ)
       1559  616 0000CD51 ?ResetForVerticalText@TabFind@tesseract@@IEAAXAEBVFCOORD@2@0PEAVTabVector_LIST@2@PEAH@Z = @ILT+48460(?ResetForVerticalText@TabFind@tesseract@@IEAAXAEBVFCOORD@2@0PEAVTabVector_LIST@2@PEAH@Z)
       1560  617 0000E1C9 ?ResetNGramSearch@Wordrec@tesseract@@IEAAXPEAVWERD_RES@2@PEAUBestChoiceBundle@2@AEAV?$vector@VSegSearchPending@tesseract@@V?$allocator@VSegSearchPending@tesseract@@@std@@@std@@@Z = @ILT+53700(?ResetNGramSearch@Wordrec@tesseract@@IEAAXPEAVWERD_RES@2@PEAUBestChoiceBundle@2@AEAV?$vector@VSegSearchPending@tesseract@@V?$allocator@VSegSearchPending@tesseract@@@std@@@std@@@Z)
       1561  618 00002DA1 ?ResetToDefaults@ParamUtils@tesseract@@SAXPEAUParamsVectors@2@@Z = @ILT+7580(?ResetToDefaults@ParamUtils@tesseract@@SAXPEAUParamsVectors@2@@Z)
       1562  619 0000A7EA ?ResetWordIterator@PAGE_RES_IT@tesseract@@QEAAXXZ = @ILT+38885(?ResetWordIterator@PAGE_RES_IT@tesseract@@QEAAXXZ)
       1563  61A 00018962 ?Resize2d@NetworkIO@tesseract@@QEAAX_NHH@Z = @ILT+96605(?Resize2d@NetworkIO@tesseract@@QEAAX_NHH@Z)
       1564  61B 00006B72 ?Resize@NetworkIO@tesseract@@QEAAXAEBV12@H@Z = @ILT+23405(?Resize@NetworkIO@tesseract@@QEAAXAEBV12@H@Z)
       1565  61C 0000FF88 ?ResizeFloat@NetworkIO@tesseract@@QEAAXAEBV12@H@Z = @ILT+61315(?ResizeFloat@NetworkIO@tesseract@@QEAAXAEBV12@H@Z)
       1566  61D 0000196F ?ResizeScaled@NetworkIO@tesseract@@QEAAXAEBV12@HHH@Z = @ILT+2410(?ResizeScaled@NetworkIO@tesseract@@QEAAXAEBV12@HHH@Z)
       1567  61E 000165A4 ?ResizeToMap@NetworkIO@tesseract@@QEAAX_NAEBVStrideMap@2@H@Z = @ILT+87455(?ResizeToMap@NetworkIO@tesseract@@QEAAX_NAEBVStrideMap@2@H@Z)
       1568  61F 0000D107 ?ResizeXTo1@NetworkIO@tesseract@@QEAAXAEBV12@H@Z = @ILT+49410(?ResizeXTo1@NetworkIO@tesseract@@QEAAXAEBV12@H@Z)
       1569  620 0000D382 ?RestartParagraph@PageIterator@tesseract@@UEAAXXZ = @ILT+50045(?RestartParagraph@PageIterator@tesseract@@UEAAXXZ)
       1570  621 0000ED95 ?RestartRow@PageIterator@tesseract@@UEAAXXZ = @ILT+56720(?RestartRow@PageIterator@tesseract@@UEAAXXZ)
       1571  622 00016C2F ?RetryWithLanguage@Tesseract@tesseract@@QEAAHAEBUWordData@2@P812@EAAX0PEAPEAVWERD_RES@2@PEAV?$PointerVector@VWERD_RES@tesseract@@@2@@Z_N12@Z = @ILT+89130(?RetryWithLanguage@Tesseract@tesseract@@QEAAHAEBUWordData@2@P812@EAAX0PEAPEAVWERD_RES@2@PEAV?$PointerVector@VWERD_RES@tesseract@@@2@@Z_N12@Z)
       1572  623 00016162 ?Rewind@TFile@tesseract@@QEAAXXZ = @ILT+86365(?Rewind@TFile@tesseract@@QEAAXXZ)
       1573  624 00019B91 ?RightAtY@ColPartition@tesseract@@QEBAHH@Z = @ILT+101260(?RightAtY@ColPartition@tesseract@@QEBAHH@Z)
       1574  625 0000234C ?RightBlobRule@ColPartition@tesseract@@QEBAHXZ = @ILT+4935(?RightBlobRule@ColPartition@tesseract@@QEBAHXZ)
       1575  626 0000D75B ?RightEdgeForBox@TabFind@tesseract@@QEAAHAEBVTBOX@2@_N1@Z = @ILT+51030(?RightEdgeForBox@TabFind@tesseract@@QEAAHAEBVTBOX@2@_N1@Z)
       1576  627 00002AE5 ?RightEdgeRun@ColPartition@tesseract@@CAXPEAVColPartition_IT@2@PEAVICOORD@2@1@Z = @ILT+6880(?RightEdgeRun@ColPartition@tesseract@@CAXPEAVColPartition_IT@2@PEAVICOORD@2@1@Z)
       1577  628 00004F6B ?RightTabForBox@TabFind@tesseract@@QEAAPEAVTabVector@2@AEBVTBOX@2@_N1@Z = @ILT+16230(?RightTabForBox@TabFind@tesseract@@QEAAPEAVTabVector@2@AEBVTBOX@2@_N1@Z)
       1578  629 00003D41 ?RightWordAttributes@tesseract@@YAXPEBVUNICHARSET@1@PEBVWERD_CHOICE@1@AEBV?$basic_string@DU?$char_traits@D@std@@V?$allocator@D@2@@std@@PEA_N33@Z = @ILT+11580(?RightWordAttributes@tesseract@@YAXPEBVUNICHARSET@1@PEBVWERD_CHOICE@1@AEBV?$basic_string@DU?$char_traits@D@std@@V?$allocator@D@2@@std@@PEA_N33@Z)
       1579  62A 00009D9F ?RootDenorm@DENORM@tesseract@@QEBAPEBV12@XZ = @ILT+36250(?RootDenorm@DENORM@tesseract@@QEBAPEBV12@XZ)
       1580  62B 000150A5 ?RotateAndReskewBlocks@ColumnFinder@tesseract@@AEAAX_NPEAVTO_BLOCK_LIST@2@@Z = @ILT+82080(?RotateAndReskewBlocks@ColumnFinder@tesseract@@AEAAX_NPEAVTO_BLOCK_LIST@2@@Z)
       1581  62C 00001EE2 ?RotateBlobList@TabFind@tesseract@@KAXAEBVFCOORD@2@PEAVBLOBNBOX_LIST@2@@Z = @ILT+3805(?RotateBlobList@TabFind@tesseract@@KAXAEBVFCOORD@2@PEAVBLOBNBOX_LIST@2@@Z)
       1582  62D 000166BC ?RoundInputs@IntSimdMatrix@tesseract@@QEBAHH@Z = @ILT+87735(?RoundInputs@IntSimdMatrix@tesseract@@QEBAHH@Z)
       1583  62E 000154C9 ?RoundOutputs@IntSimdMatrix@tesseract@@QEBAHH@Z = @ILT+83140(?RoundOutputs@IntSimdMatrix@tesseract@@QEBAHH@Z)
       1584  62F 000104A1 ?Roundup@IntSimdMatrix@tesseract@@SAHHH@Z = @ILT+62620(?Roundup@IntSimdMatrix@tesseract@@SAHHH@Z)
       1585  630 0001A744 ?RowAttributes@LTRResultIterator@tesseract@@QEBAXPEAM00@Z = @ILT+104255(?RowAttributes@LTRResultIterator@tesseract@@QEBAXPEAM00@Z)
       1586  631 0000A628 ?SaveDataToFile@tesseract@@YA_NAEBV?$vector@DV?$allocator@D@std@@@std@@PEBD@Z = @ILT+38435(?SaveDataToFile@tesseract@@YA_NAEBV?$vector@DV?$allocator@D@std@@@std@@PEBD@Z)
       1587  632 000196F0 ?SaveDocument@DocumentData@tesseract@@QEAA_NPEBDP6A_NAEBV?$vector@DV?$allocator@D@std@@@std@@0@Z@Z = @ILT+100075(?SaveDocument@DocumentData@tesseract@@QEAA_NPEBDP6A_NAEBV?$vector@DV?$allocator@D@std@@@std@@0@Z@Z)
       1588  633 000177E2 ?SaveFile@TessdataManager@tesseract@@QEBA_NPEBDP6A_NAEBV?$vector@DV?$allocator@D@std@@@std@@0@Z@Z = @ILT+92125(?SaveFile@TessdataManager@tesseract@@QEBA_NPEBDP6A_NAEBV?$vector@DV?$allocator@D@std@@@std@@0@Z@Z)
       1589  634 00013A9D ?SaveMostCertainChoices@RecodeBeamSearch@tesseract@@AEAAXPEBMHPEBVUNICHARSET@2@H@Z = @ILT+76440(?SaveMostCertainChoices@RecodeBeamSearch@tesseract@@AEAAXPEBMHPEBVUNICHARSET@2@H@Z)
       1590  635 0000EC5F ?SaveToFile@ParamsModel@tesseract@@QEBA_NPEBD@Z = @ILT+56410(?SaveToFile@ParamsModel@tesseract@@QEBA_NPEBD@Z)
       1591  636 00006EB5 ?ScaleFloatBy@NetworkIO@tesseract@@QEAAXM@Z = @ILT+24240(?ScaleFloatBy@NetworkIO@tesseract@@QEAAXM@Z)
       1592  637 00015528 ?ScaleLayerLearningRate@LSTMRecognizer@tesseract@@QEAAXAEBV?$basic_string@DU?$char_traits@D@std@@V?$allocator@D@2@@std@@N@Z = @ILT+83235(?ScaleLayerLearningRate@LSTMRecognizer@tesseract@@QEAAXAEBV?$basic_string@DU?$char_traits@D@std@@V?$allocator@D@2@@std@@N@Z)
       1593  638 0000A5A1 ?ScaleLearningRate@LSTMRecognizer@tesseract@@QEAAXN@Z = @ILT+38300(?ScaleLearningRate@LSTMRecognizer@tesseract@@QEAAXN@Z)
       1594  639 0000FDAD ?ScoreOfLabels@NetworkIO@tesseract@@QEBANAEBV?$vector@HV?$allocator@H@std@@@std@@H@Z = @ILT+60840(?ScoreOfLabels@NetworkIO@tesseract@@QEBANAEBV?$vector@HV?$allocator@H@std@@@std@@H@Z)
       1595  63A 0000E8CC ?ScoresOverRange@NetworkIO@tesseract@@QEBAXHHHHPEAM0@Z = @ILT+55495(?ScoresOverRange@NetworkIO@tesseract@@QEBAXHHHHPEAM0@Z)
       1596  63B 0000ABCD ?ScriptPositionOf@WERD_CHOICE@tesseract@@SA?AW4ScriptPos@2@_NAEBVUNICHARSET@2@AEBVTBOX@2@H@Z = @ILT+39880(?ScriptPositionOf@WERD_CHOICE@tesseract@@SA?AW4ScriptPos@2@_NAEBVUNICHARSET@2@AEBVTBOX@2@H@Z)
       1597  63C 0000F376 ?SearchByOverlap@EquationDetect@tesseract@@IEAAXPEAVColPartition@2@PEAV?$vector@PEAVColPartition@tesseract@@V?$allocator@PEAVColPartition@tesseract@@@std@@@std@@@Z = @ILT+58225(?SearchByOverlap@EquationDetect@tesseract@@IEAAXPEAVColPartition@2@PEAV?$vector@PEAVColPartition@tesseract@@V?$allocator@PEAVColPartition@tesseract@@@std@@@std@@@Z)
       1598  63D 00005AC4 ?SearchForText@Tesseract@tesseract@@QEAAXPEBV?$vector@PEAVBLOB_CHOICE_LIST@tesseract@@V?$allocator@PEAVBLOB_CHOICE_LIST@tesseract@@@std@@@std@@HHAEBV?$vector@HV?$allocator@H@std@@@4@HMPEAV54@PEAM2@Z = @ILT+19135(?SearchForText@Tesseract@tesseract@@QEAAXPEBV?$vector@PEAVBLOB_CHOICE_LIST@tesseract@@V?$allocator@PEAVBLOB_CHOICE_LIST@tesseract@@@std@@@std@@HHAEBV?$vector@HV?$allocator@H@std@@@4@HMPEAV54@PEAM2@Z)
       1599  63E 0000EDE5 ?SearchNNVertical@EquationDetect@tesseract@@IEAAPEAVColPartition@2@_NPEBV32@@Z = @ILT+56800(?SearchNNVertical@EquationDetect@tesseract@@IEAAPEAVColPartition@2@_NPEBV32@@Z)
       1600  63F 00002603 ?SearchWords@Tesseract@tesseract@@QEAAXPEAV?$PointerVector@VWERD_RES@tesseract@@@2@@Z = @ILT+5630(?SearchWords@Tesseract@tesseract@@QEAAXPEAV?$PointerVector@VWERD_RES@tesseract@@@2@@Z)
       1601  640 00005A51 ?SegSearch@Wordrec@tesseract@@QEAAXPEAVWERD_RES@2@PEAUBestChoiceBundle@2@PEAUBlamerBundle@2@@Z = @ILT+19020(?SegSearch@Wordrec@tesseract@@QEAAXPEAVWERD_RES@2@PEAUBestChoiceBundle@2@PEAUBlamerBundle@2@@Z)
       1602  641 00012CBA ?SegSearchDone@Wordrec@tesseract@@IEAA_NH@Z = @ILT+72885(?SegSearchDone@Wordrec@tesseract@@IEAA_NH@Z)
       1603  642 000033C3 ?SegmentPage@Tesseract@tesseract@@QEAAHPEBDPEAVBLOCK_LIST@2@PEAV12@PEAUOSResults@2@@Z = @ILT+9150(?SegmentPage@Tesseract@tesseract@@QEAAHPEBDPEAVBLOCK_LIST@2@PEAV12@PEAUOSResults@2@@Z)
       1604  643 0001CC6A ?SelectGoodDiacriticOutlines@Tesseract@tesseract@@QEAA_NHMPEAVPAGE_RES_IT@2@PEAVC_BLOB@2@AEBV?$vector@PEAVC_OUTLINE@tesseract@@V?$allocator@PEAVC_OUTLINE@tesseract@@@std@@@std@@HPEAV?$vector@_NV?$allocator@_N@std@@@6@@Z = @ILT+113765(?SelectGoodDiacriticOutlines@Tesseract@tesseract@@QEAA_NHMPEAVPAGE_RES_IT@2@PEAVC_BLOB@2@AEBV?$vector@PEAVC_OUTLINE@tesseract@@V?$allocator@PEAVC_OUTLINE@tesseract@@@std@@@std@@HPEAV?$vector@_NV?$allocator@_N@std@@@6@@Z)
       1605  644 000182CD ?SendMsg@ScrollView@tesseract@@QEAAXPEBDZZ = @ILT+94920(?SendMsg@ScrollView@tesseract@@QEAAXPEBDZZ)
       1606  645 000142D1 ?SendPolygon@ScrollView@tesseract@@AEAAXXZ = @ILT+78540(?SendPolygon@ScrollView@tesseract@@AEAAXXZ)
       1607  646 00010C2B ?SendRawMessage@ScrollView@tesseract@@SAXPEBD@Z = @ILT+64550(?SendRawMessage@ScrollView@tesseract@@SAXPEBD@Z)
       1608  647 0000A556 ?Serialize@BitVector@tesseract@@QEBA_NPEAU_iobuf@@@Z = @ILT+38225(?Serialize@BitVector@tesseract@@QEBA_NPEAU_iobuf@@@Z)
       1609  648 00009714 ?Serialize@FontInfoTable@tesseract@@QEBA_NPEAU_iobuf@@@Z = @ILT+34575(?Serialize@FontInfoTable@tesseract@@QEBA_NPEAU_iobuf@@@Z)
       1610  649 00001988 ?Serialize@ImageData@tesseract@@QEBA_NPEAVTFile@2@@Z = @ILT+2435(?Serialize@ImageData@tesseract@@QEBA_NPEAVTFile@2@@Z)
       1611  64A 0001048D ?Serialize@IndexMap@tesseract@@QEBA_NPEAU_iobuf@@@Z = @ILT+62600(?Serialize@IndexMap@tesseract@@QEBA_NPEAU_iobuf@@@Z)
       1612  64B 00007004 ?Serialize@IndexMapBiDi@tesseract@@QEBA_NPEAU_iobuf@@@Z = @ILT+24575(?Serialize@IndexMapBiDi@tesseract@@QEBA_NPEAU_iobuf@@@Z)
       1613  64C 0001C6CA ?Serialize@IntFeatureSpace@tesseract@@QEBA_NPEAU_iobuf@@@Z = @ILT+112325(?Serialize@IntFeatureSpace@tesseract@@QEBA_NPEAU_iobuf@@@Z)
       1614  64D 0000535D ?Serialize@LSTMRecognizer@tesseract@@QEBA_NPEBVTessdataManager@2@PEAVTFile@2@@Z = @ILT+17240(?Serialize@LSTMRecognizer@tesseract@@QEBA_NPEBVTessdataManager@2@PEAVTFile@2@@Z)
       1615  64E 0001C92C ?Serialize@Network@tesseract@@UEBA_NPEAVTFile@2@@Z = @ILT+112935(?Serialize@Network@tesseract@@UEBA_NPEAVTFile@2@@Z)
       1616  64F 00019529 ?Serialize@Shape@tesseract@@QEBA_NPEAU_iobuf@@@Z = @ILT+99620(?Serialize@Shape@tesseract@@QEBA_NPEAU_iobuf@@@Z)
       1617  650 0000A2AE ?Serialize@ShapeTable@tesseract@@QEBA_NPEAU_iobuf@@@Z = @ILT+37545(?Serialize@ShapeTable@tesseract@@QEBA_NPEAU_iobuf@@@Z)
       1618  651 00004DA4 ?Serialize@TBOX@tesseract@@QEBA_NPEAU_iobuf@@@Z = @ILT+15775(?Serialize@TBOX@tesseract@@QEBA_NPEAU_iobuf@@@Z)
       1619  652 0001CC15 ?Serialize@TBOX@tesseract@@QEBA_NPEAVTFile@2@@Z = @ILT+113680(?Serialize@TBOX@tesseract@@QEBA_NPEAVTFile@2@@Z)
       1620  653 00017BCF ?Serialize@TFile@tesseract@@QEAA_NAEBV?$basic_string@DU?$char_traits@D@std@@V?$allocator@D@2@@std@@@Z = @ILT+93130(?Serialize@TFile@tesseract@@QEAA_NAEBV?$basic_string@DU?$char_traits@D@std@@V?$allocator@D@2@@std@@@Z)
       1621  654 000176BB ?Serialize@TFile@tesseract@@QEAA_NAEBV?$vector@DV?$allocator@D@std@@@std@@@Z = @ILT+91830(?Serialize@TFile@tesseract@@QEAA_NAEBV?$vector@DV?$allocator@D@std@@@std@@@Z)
       1622  655 00009FD9 ?Serialize@TessdataManager@tesseract@@QEBAXPEAV?$vector@DV?$allocator@D@std@@@std@@@Z = @ILT+36820(?Serialize@TessdataManager@tesseract@@QEBAXPEAV?$vector@DV?$allocator@D@std@@@std@@@Z)
       1623  656 00005F47 ?Serialize@TrainingSample@tesseract@@QEBA_NPEAU_iobuf@@@Z = @ILT+20290(?Serialize@TrainingSample@tesseract@@QEBA_NPEAU_iobuf@@@Z)
       1624  657 00003643 ?Serialize@UnicharCompress@tesseract@@QEBA_NPEAVTFile@2@@Z = @ILT+9790(?Serialize@UnicharCompress@tesseract@@QEBA_NPEAVTFile@2@@Z)
       1625  658 0001C0B2 ?SetActivations@NetworkIO@tesseract@@QEAAXHHM@Z = @ILT+110765(?SetActivations@NetworkIO@tesseract@@QEAAXHHM@Z)
       1626  659 00013DF4 ?SetAdaptiveThreshold@Classify@tesseract@@QEAAXM@Z = @ILT+77295(?SetAdaptiveThreshold@Classify@tesseract@@QEAAXM@Z)
       1627  65A 00017F44 ?SetAllFalse@BitVector@tesseract@@QEAAXXZ = @ILT+94015(?SetAllFalse@BitVector@tesseract@@QEAAXXZ)
       1628  65B 0000848B ?SetAllScriptPositions@WERD_CHOICE@tesseract@@QEAAXW4ScriptPos@2@@Z = @ILT+29830(?SetAllScriptPositions@WERD_CHOICE@tesseract@@QEAAXW4ScriptPos@2@@Z)
       1629  65C 00005A01 ?SetAllScriptPositions@WERD_RES@tesseract@@QEAAXW4ScriptPos@2@@Z = @ILT+18940(?SetAllScriptPositions@WERD_RES@tesseract@@QEAAXW4ScriptPos@2@@Z)
       1630  65D 0000EA52 ?SetAllTrue@BitVector@tesseract@@QEAAXXZ = @ILT+55885(?SetAllTrue@BitVector@tesseract@@QEAAXXZ)
       1631  65E 0001B536 ?SetBit@BitVector@tesseract@@QEAAXH@Z = @ILT+107825(?SetBit@BitVector@tesseract@@QEAAXH@Z)
       1632  65F 0000DE09 ?SetBlackAndWhitelist@Tesseract@tesseract@@QEAAXXZ = @ILT+52740(?SetBlackAndWhitelist@Tesseract@tesseract@@QEAAXXZ)
       1633  660 0001C86E ?SetBlobRuleEdges@TabFind@tesseract@@QEAAXPEAVBLOBNBOX_LIST@2@@Z = @ILT+112745(?SetBlobRuleEdges@TabFind@tesseract@@QEAAXPEAVBLOBNBOX_LIST@2@@Z)
       1634  661 0001826E ?SetBlobTypes@ColPartition@tesseract@@QEAAXXZ = @ILT+94825(?SetBlobTypes@ColPartition@tesseract@@QEAAXXZ)
       1635  662 0000C090 ?SetBlockRuleEdges@TabFind@tesseract@@QEAAXPEAVTO_BLOCK@2@@Z = @ILT+45195(?SetBlockRuleEdges@TabFind@tesseract@@QEAAXPEAVTO_BLOCK@2@@Z)
       1636  663 00009179 ?SetBoundingBoxComponents@PageIterator@tesseract@@QEAAX_N0@Z = @ILT+33140(?SetBoundingBoxComponents@PageIterator@tesseract@@QEAAX_N0@Z)
       1637  664 0000F033 ?SetColumnGoodness@ColPartition@tesseract@@QEAAXV?$function@$$A6A_NH@Z@std@@@Z = @ILT+57390(?SetColumnGoodness@ColPartition@tesseract@@QEAAXV?$function@$$A6A_NH@Z@std@@@Z)
       1638  665 0001CB70 ?SetColumnsType@TableFinder@tesseract@@IEAAXPEAVColSegment_LIST@2@@Z = @ILT+113515(?SetColumnsType@TableFinder@tesseract@@IEAAXPEAVColSegment_LIST@2@@Z)
       1639  666 0000A998 ?SetContainsFontProperties@FontInfoTable@tesseract@@QEBA_NHAEBV?$vector@UScoredFont@tesseract@@V?$allocator@UScoredFont@tesseract@@@std@@@std@@@Z = @ILT+39315(?SetContainsFontProperties@FontInfoTable@tesseract@@QEBA_NHAEBV?$vector@UScoredFont@tesseract@@V?$allocator@UScoredFont@tesseract@@@std@@@std@@@Z)
       1640  667 00013327 ?SetContainsMultipleFontProperties@FontInfoTable@tesseract@@QEBA_NAEBV?$vector@UScoredFont@tesseract@@V?$allocator@UScoredFont@tesseract@@@std@@@std@@@Z = @ILT+74530(?SetContainsMultipleFontProperties@FontInfoTable@tesseract@@QEBA_NAEBV?$vector@UScoredFont@tesseract@@V?$allocator@UScoredFont@tesseract@@@std@@@std@@@Z)
       1641  668 0000EE8F ?SetCursor@ScrollView@tesseract@@QEAAXHH@Z = @ILT+56970(?SetCursor@ScrollView@tesseract@@QEAAXHH@Z)
       1642  669 0001BDCE ?SetDebugVariable@TessBaseAPI@tesseract@@QEAA_NPEBD0@Z = @ILT+110025(?SetDebugVariable@TessBaseAPI@tesseract@@QEAA_NPEBD0@Z)
       1643  66A 000089C2 ?SetDictFunc@TessBaseAPI@tesseract@@QEAAXP8Dict@2@EBAHPEAXAEBVUNICHARSET@2@H_N@Z@Z = @ILT+31165(?SetDictFunc@TessBaseAPI@tesseract@@QEAAXP8Dict@2@EBAHPEAXAEBVUNICHARSET@2@H_N@Z@Z)
       1644  66B 0000A088 ?SetEnableTraining@Network@tesseract@@UEAAXW4TrainingState@2@@Z = @ILT+36995(?SetEnableTraining@Network@tesseract@@UEAAXW4TrainingState@2@@Z)
       1645  66C 0000A22C ?SetEquationDetect@ColumnFinder@tesseract@@QEAAXPEAVEquationDetectBase@2@@Z = @ILT+37415(?SetEquationDetect@ColumnFinder@tesseract@@QEAAXPEAVEquationDetectBase@2@@Z)
       1646  66D 00011027 ?SetEquationDetect@Tesseract@tesseract@@QEAAXPEAVEquationDetect@2@@Z = @ILT+65570(?SetEquationDetect@Tesseract@tesseract@@QEAAXPEAVEquationDetect@2@@Z)
       1647  66E 00006A41 ?SetEstimatedResolution@ImageThresholder@tesseract@@QEAAXH@Z = @ILT+23100(?SetEstimatedResolution@ImageThresholder@tesseract@@QEAAXH@Z)
       1648  66F 000036F2 ?SetEvent@ScrollView@tesseract@@AEAAXPEAUSVEvent@2@@Z = @ILT+9965(?SetEvent@ScrollView@tesseract@@AEAAXPEAUSVEvent@2@@Z)
       1649  670 0000F2D1 ?SetGlobalSpacings@TableFinder@tesseract@@IEAAXPEAVColPartitionGrid@2@@Z = @ILT+58060(?SetGlobalSpacings@TableFinder@tesseract@@IEAAXPEAVColPartitionGrid@2@@Z)
       1650  671 00003C7E ?SetImage@ImageThresholder@tesseract@@QEAAXPEBEHHHH@Z = @ILT+11385(?SetImage@ImageThresholder@tesseract@@QEAAXPEBEHHHH@Z)
       1651  672 0001A1C7 ?SetImage@ImageThresholder@tesseract@@QEAAXVImage@2@@Z = @ILT+102850(?SetImage@ImageThresholder@tesseract@@QEAAXVImage@2@@Z)
       1652  673 0000B028 ?SetImage@TessBaseAPI@tesseract@@QEAAXPEAUPix@@@Z = @ILT+40995(?SetImage@TessBaseAPI@tesseract@@QEAAXPEAUPix@@@Z)
       1653  674 00010406 ?SetImage@TessBaseAPI@tesseract@@QEAAXPEBEHHHH@Z = @ILT+62465(?SetImage@TessBaseAPI@tesseract@@QEAAXPEBEHHHH@Z)
       1654  675 0001479F ?SetInputImage@TessBaseAPI@tesseract@@QEAAXPEAUPix@@@Z = @ILT+79770(?SetInputImage@TessBaseAPI@tesseract@@QEAAXPEAUPix@@@Z)
       1655  676 0000DC56 ?SetInputName@TessBaseAPI@tesseract@@QEAAXPEBD@Z = @ILT+52305(?SetInputName@TessBaseAPI@tesseract@@QEAAXPEBD@Z)
       1656  677 00015F0F ?SetIteration@LSTMRecognizer@tesseract@@QEAAXH@Z = @ILT+85770(?SetIteration@LSTMRecognizer@tesseract@@QEAAXH@Z)
       1657  678 00006AAF ?SetLangTesseract@EquationDetect@tesseract@@QEAAXPEAVTesseract@2@@Z = @ILT+23210(?SetLangTesseract@EquationDetect@tesseract@@QEAAXPEAVTesseract@2@@Z)
       1658  679 0001CC3D ?SetLeftTab@ColPartition@tesseract@@QEAAXPEBVTabVector@2@@Z = @ILT+113720(?SetLeftTab@ColPartition@tesseract@@QEAAXPEBVTabVector@2@@Z)
       1659  67A 00018192 ?SetLineSeparator@LTRResultIterator@tesseract@@QEAAXPEBD@Z = @ILT+94605(?SetLineSeparator@LTRResultIterator@tesseract@@QEAAXPEBD@Z)
       1660  67B 000059F7 ?SetMap@IndexMapBiDi@tesseract@@QEAAXH_N@Z = @ILT+18930(?SetMap@IndexMapBiDi@tesseract@@QEAAXH_N@Z)
       1661  67C 000145B0 ?SetNetwork@Reversed@tesseract@@QEAAXPEAVNetwork@2@@Z = @ILT+79275(?SetNetwork@Reversed@tesseract@@QEAAXPEAVNetwork@2@@Z)
       1662  67D 00016405 ?SetNetworkFlags@Network@tesseract@@UEAAXI@Z = @ILT+87040(?SetNetworkFlags@Network@tesseract@@UEAAXI@Z)
       1663  67E 000169A0 ?SetOutputName@TessBaseAPI@tesseract@@QEAAXPEBD@Z = @ILT+88475(?SetOutputName@TessBaseAPI@tesseract@@QEAAXPEBD@Z)
       1664  67F 000171ED ?SetPageSegMode@TessBaseAPI@tesseract@@QEAAXW4PageSegMode@2@@Z = @ILT+90600(?SetPageSegMode@TessBaseAPI@tesseract@@QEAAXW4PageSegMode@2@@Z)
       1665  680 00006A32 ?SetParagraphSeparator@LTRResultIterator@tesseract@@QEAAXPEBD@Z = @ILT+23085(?SetParagraphSeparator@LTRResultIterator@tesseract@@QEAAXPEBD@Z)
       1666  681 0001BC4D ?SetParam@ParamUtils@tesseract@@SA_NPEBD0W4SetParamConstraint@2@PEAUParamsVectors@2@@Z = @ILT+109640(?SetParam@ParamUtils@tesseract@@SA_NPEBD0W4SetParamConstraint@2@PEAUParamsVectors@2@@Z)
       1667  682 000167AC ?SetPartitionSpacings@TableFinder@tesseract@@KAXPEAVColPartitionGrid@2@PEAPEAVColPartitionSet@2@@Z = @ILT+87975(?SetPartitionSpacings@TableFinder@tesseract@@KAXPEAVColPartitionGrid@2@PEAPEAVColPartitionSet@2@@Z)
       1668  683 00012BC0 ?SetPartitionType@ColPartition@tesseract@@QEAAXHPEAVColPartitionSet@2@@Z = @ILT+72635(?SetPartitionType@ColPartition@tesseract@@QEAAXHPEAVColPartitionSet@2@@Z)
       1669  684 0000FA83 ?SetPartitionTypes@ColumnFinder@tesseract@@AEAAXXZ = @ILT+60030(?SetPartitionTypes@ColumnFinder@tesseract@@AEAAXXZ)
       1670  685 0000E87C ?SetPass@ParamsModel@tesseract@@QEAAXW4PassEnum@12@@Z = @ILT+55415(?SetPass@ParamsModel@tesseract@@QEAAXW4PassEnum@12@@Z)
       1671  686 0001B9AF ?SetPix@ImageData@tesseract@@QEAAXVImage@2@@Z = @ILT+108970(?SetPix@ImageData@tesseract@@QEAAXVImage@2@@Z)
       1672  687 0000EF57 ?SetPixInternal@ImageData@tesseract@@CAXVImage@2@PEAV?$vector@DV?$allocator@D@std@@@std@@@Z = @ILT+57170(?SetPixInternal@ImageData@tesseract@@CAXVImage@2@PEAV?$vector@DV?$allocator@D@std@@@std@@@Z)
       1673  688 00011EC8 ?SetPixel@NetworkIO@tesseract@@QEAAXHHHMM@Z = @ILT+69315(?SetPixel@NetworkIO@tesseract@@QEAAXHHHMM@Z)
       1674  689 00018732 ?SetProbabilityInContextFunc@TessBaseAPI@tesseract@@QEAAXP8Dict@2@EAANPEBD0H0H@Z@Z = @ILT+96045(?SetProbabilityInContextFunc@TessBaseAPI@tesseract@@QEAAXP8Dict@2@EAANPEBD0H0H@Z@Z)
       1675  68A 00013EA8 ?SetPropertiesFromOther@UNICHARSET@tesseract@@QEAAXAEBV12@@Z = @ILT+77475(?SetPropertiesFromOther@UNICHARSET@tesseract@@QEAAXAEBV12@@Z)
       1676  68B 0000D17A ?SetRandomSeed@LSTMRecognizer@tesseract@@IEAAXXZ = @ILT+49525(?SetRandomSeed@LSTMRecognizer@tesseract@@IEAAXXZ)
       1677  68C 00019051 ?SetRandomizer@Network@tesseract@@UEAAXPEAVTRand@2@@Z = @ILT+98380(?SetRandomizer@Network@tesseract@@UEAAXPEAVTRand@2@@Z)
       1678  68D 0000A9FC ?SetRangesEmpty@UNICHAR_PROPERTIES@UNICHARSET@tesseract@@QEAAXXZ = @ILT+39415(?SetRangesEmpty@UNICHAR_PROPERTIES@UNICHARSET@tesseract@@QEAAXXZ)
       1679  68E 000056DC ?SetRangesOpen@UNICHAR_PROPERTIES@UNICHARSET@tesseract@@QEAAXXZ = @ILT+18135(?SetRangesOpen@UNICHAR_PROPERTIES@UNICHARSET@tesseract@@QEAAXXZ)
       1680  68F 0001670C ?SetRectangle@ImageThresholder@tesseract@@QEAAXHHHH@Z = @ILT+87815(?SetRectangle@ImageThresholder@tesseract@@QEAAXHHHH@Z)
       1681  690 0001BD88 ?SetRectangle@TessBaseAPI@tesseract@@QEAAXHHHH@Z = @ILT+109955(?SetRectangle@TessBaseAPI@tesseract@@QEAAXHHHH@Z)
       1682  691 0001AF9B ?SetRegionAndFlowTypesFromProjectionValue@ColPartition@tesseract@@QEAAXH@Z = @ILT+106390(?SetRegionAndFlowTypesFromProjectionValue@ColPartition@tesseract@@QEAAXH@Z)
       1683  692 0000EF0C ?SetResolution@EquationDetect@tesseract@@QEAAXH@Z = @ILT+57095(?SetResolution@EquationDetect@tesseract@@QEAAXH@Z)
       1684  693 0001631A ?SetRightTab@ColPartition@tesseract@@QEAAXPEBVTabVector@2@@Z = @ILT+86805(?SetRightTab@ColPartition@tesseract@@QEAAXPEBVTabVector@2@@Z)
       1685  694 0001B12B ?SetScaledColor@Tesseract@tesseract@@QEAAXHVImage@2@@Z = @ILT+106790(?SetScaledColor@Tesseract@tesseract@@QEAAXHVImage@2@@Z)
       1686  695 000015FA ?SetScriptPositions@WERD_CHOICE@tesseract@@QEAAX_NPEAUTWERD@2@H@Z = @ILT+1525(?SetScriptPositions@WERD_CHOICE@tesseract@@QEAAX_NPEAUTWERD@2@H@Z)
       1687  696 00005484 ?SetScriptPositions@WERD_RES@tesseract@@QEAAXXZ = @ILT+17535(?SetScriptPositions@WERD_RES@tesseract@@QEAAXXZ)
       1688  697 000188C2 ?SetSourceResolution@TessBaseAPI@tesseract@@QEAAXH@Z = @ILT+96445(?SetSourceResolution@TessBaseAPI@tesseract@@QEAAXH@Z)
       1689  698 000037A1 ?SetSourceYResolution@ImageThresholder@tesseract@@QEAAXH@Z = @ILT+10140(?SetSourceYResolution@ImageThresholder@tesseract@@QEAAXH@Z)
       1690  699 00019371 ?SetSpecialBlobsDensity@ColPartition@tesseract@@QEAAXW4BlobSpecialTextType@2@M@Z = @ILT+99180(?SetSpecialBlobsDensity@ColPartition@tesseract@@QEAAXW4BlobSpecialTextType@2@M@Z)
       1691  69A 000102C6 ?SetStaticClassifier@Classify@tesseract@@QEAAXPEAVShapeClassifier@2@@Z = @ILT+62145(?SetStaticClassifier@Classify@tesseract@@QEAAXPEAVShapeClassifier@2@@Z)
       1692  69B 0000B172 ?SetSubtract@BitVector@tesseract@@QEAAXAEBV12@0@Z = @ILT+41325(?SetSubtract@BitVector@tesseract@@QEAAXAEBV12@0@Z)
       1693  69C 0000EDB8 ?SetTabStops@ColPartitionGrid@tesseract@@QEAAXPEAVTabFind@2@@Z = @ILT+56755(?SetTabStops@ColPartitionGrid@tesseract@@QEAAXPEAVTabFind@2@@Z)
       1694  69D 00006302 ?SetUnicharId@Shape@tesseract@@QEAAXHH@Z = @ILT+21245(?SetUnicharId@Shape@tesseract@@QEAAXHH@Z)
       1695  69E 00004287 ?SetValue@BitVector@tesseract@@QEAAXH_N@Z = @ILT+12930(?SetValue@BitVector@tesseract@@QEAAXH_N@Z)
       1696  69F 00006C62 ?SetVariable@TessBaseAPI@tesseract@@QEAA_NPEBD0@Z = @ILT+23645(?SetVariable@TessBaseAPI@tesseract@@QEAA_NPEBD0@Z)
       1697  6A0 0001BBA8 ?SetVersionString@TessdataManager@tesseract@@QEAAXAEBV?$basic_string@DU?$char_traits@D@std@@V?$allocator@D@2@@std@@@Z = @ILT+109475(?SetVersionString@TessdataManager@tesseract@@QEAAXAEBV?$basic_string@DU?$char_traits@D@std@@V?$allocator@D@2@@std@@@Z)
       1698  6A1 00006C4E ?SetVerticalSkewAndParallelize@TabFind@tesseract@@AEAAXHH@Z = @ILT+23625(?SetVerticalSkewAndParallelize@TabFind@tesseract@@AEAAXHH@Z)
       1699  6A2 000106A9 ?SetVerticalSpacing@TableFinder@tesseract@@IEAAXPEAVColPartition@2@@Z = @ILT+63140(?SetVerticalSpacing@TableFinder@tesseract@@IEAAXPEAVColPartition@2@@Z)
       1700  6A3 000028F1 ?SetVisible@ScrollView@tesseract@@QEAAX_N@Z = @ILT+6380(?SetVisible@ScrollView@tesseract@@QEAAX_N@Z)
       1701  6A4 000108FC ?SetWildcardID@Dict@tesseract@@QEAAXH@Z = @ILT+63735(?SetWildcardID@Dict@tesseract@@QEAAXH@Z)
       1702  6A5 0001BFE0 ?SetWordBlamerBundle@PageIterator@tesseract@@QEAA_NPEAUBlamerBundle@2@@Z = @ILT+110555(?SetWordBlamerBundle@PageIterator@tesseract@@QEAA_NPEAUBlamerBundle@2@@Z)
       1703  6A6 00002DF6 ?SetWordsegRatingAdjustFactor@Dict@tesseract@@QEAAXM@Z = @ILT+7665(?SetWordsegRatingAdjustFactor@Dict@tesseract@@QEAAXM@Z)
       1704  6A7 0000BE9C ?SettupPass1@Classify@tesseract@@QEAAXXZ = @ILT+44695(?SettupPass1@Classify@tesseract@@QEAAXXZ)
       1705  6A8 0000A7AE ?SettupPass2@Classify@tesseract@@QEAAXXZ = @ILT+38825(?SettupPass2@Classify@tesseract@@QEAAXXZ)
       1706  6A9 0001AC4E ?SettupStopperPass1@Dict@tesseract@@QEAAXXZ = @ILT+105545(?SettupStopperPass1@Dict@tesseract@@QEAAXXZ)
       1707  6AA 00015276 ?SettupStopperPass2@Dict@tesseract@@QEAAXXZ = @ILT+82545(?SettupStopperPass2@Dict@tesseract@@QEAAXXZ)
       1708  6AB 00019C1D ?Setup@IndexMapBiDi@tesseract@@QEAAXXZ = @ILT+101400(?Setup@IndexMapBiDi@tesseract@@QEAAXXZ)
       1709  6AC 00010E24 ?SetupAllWordsPassN@Tesseract@tesseract@@QEAAXHPEBVTBOX@2@PEBDPEAVPAGE_RES@2@PEAV?$vector@UWordData@tesseract@@V?$allocator@UWordData@tesseract@@@std@@@std@@@Z = @ILT+65055(?SetupAllWordsPassN@Tesseract@tesseract@@QEAAXHPEBVTBOX@2@PEBDPEAVPAGE_RES@2@PEAV?$vector@UWordData@tesseract@@V?$allocator@UWordData@tesseract@@@std@@@std@@@Z)
       1710  6AD 0000BBB3 ?SetupAndFilterNoise@ColumnFinder@tesseract@@QEAAXW4PageSegMode@2@VImage@2@PEAVTO_BLOCK@2@@Z = @ILT+43950(?SetupAndFilterNoise@ColumnFinder@tesseract@@QEAAXW4PageSegMode@2@VImage@2@PEAVTO_BLOCK@2@@Z)
       1711  6AE 0000254A ?SetupApplyBoxes@Tesseract@tesseract@@QEAAPEAVPAGE_RES@2@AEBV?$vector@VTBOX@tesseract@@V?$allocator@VTBOX@tesseract@@@std@@@std@@PEAVBLOCK_LIST@2@@Z = @ILT+5445(?SetupApplyBoxes@Tesseract@tesseract@@QEAAPEAVPAGE_RES@2@AEBV?$vector@VTBOX@tesseract@@V?$allocator@VTBOX@tesseract@@@std@@@std@@PEAVBLOCK_LIST@2@@Z)
       1712  6AF 00015FBE ?SetupBLCNDenorms@Classify@tesseract@@SAXAEBUTBLOB@2@_NPEAVDENORM@2@2PEAUINT_FX_RESULT_STRUCT@2@@Z = @ILT+85945(?SetupBLCNDenorms@Classify@tesseract@@SAXAEBUTBLOB@2@_NPEAVDENORM@2@2PEAUINT_FX_RESULT_STRUCT@2@@Z)
       1713  6B0 00015988 ?SetupBasicsFromChoppedWord@WERD_RES@tesseract@@QEAAXAEBVUNICHARSET@2@@Z = @ILT+84355(?SetupBasicsFromChoppedWord@WERD_RES@tesseract@@QEAAXAEBVUNICHARSET@2@@Z)
       1714  6B1 0001298B ?SetupBlamerBundle@WERD_RES@tesseract@@QEAAXXZ = @ILT+72070(?SetupBlamerBundle@WERD_RES@tesseract@@QEAAXXZ)
       1715  6B2 0000DA6C ?SetupBlobWidthsAndGaps@WERD_RES@tesseract@@QEAAXXZ = @ILT+51815(?SetupBlobWidthsAndGaps@WERD_RES@tesseract@@QEAAXXZ)
       1716  6B3 00005C4F ?SetupBoxWord@WERD_RES@tesseract@@QEAAXXZ = @ILT+19530(?SetupBoxWord@WERD_RES@tesseract@@QEAAXXZ)
       1717  6B4 0000CBFD ?SetupDecoder@UnicharCompress@tesseract@@AEAAXXZ = @ILT+48120(?SetupDecoder@UnicharCompress@tesseract@@AEAAXXZ)
       1718  6B5 00003F4E ?SetupDirect@UnicharCompress@tesseract@@QEAAXAEBV?$vector@VRecodedCharID@tesseract@@V?$allocator@VRecodedCharID@tesseract@@@std@@@std@@@Z = @ILT+12105(?SetupDirect@UnicharCompress@tesseract@@QEAAXAEBV?$vector@VRecodedCharID@tesseract@@V?$allocator@VRecodedCharID@tesseract@@@std@@@std@@@Z)
       1719  6B6 000038C3 ?SetupFake@WERD_RES@tesseract@@QEAAXAEBVUNICHARSET@2@@Z = @ILT+10430(?SetupFake@WERD_RES@tesseract@@QEAAXAEBVUNICHARSET@2@@Z)
       1720  6B7 0001BEF0 ?SetupForLoad@Dict@tesseract@@QEAAXPEAVDawgCache@2@@Z = @ILT+110315(?SetupForLoad@Dict@tesseract@@QEAAXPEAVDawgCache@2@@Z)
       1721  6B8 0001A1F9 ?SetupForRecognition@WERD_RES@tesseract@@QEAA_NAEBVUNICHARSET@2@PEAVTesseract@2@VImage@2@HPEBVTBOX@2@_N44PEAVROW@2@PEBVBLOCK@2@@Z = @ILT+102900(?SetupForRecognition@WERD_RES@tesseract@@QEAA_NAEBVUNICHARSET@2@PEAVTesseract@2@VImage@2@HPEBVTBOX@2@_N44PEAVROW@2@PEBVBLOCK@2@@Z)
       1722  6B9 00016A27 ?SetupNeedsBackprop@Network@tesseract@@UEAA_N_N@Z = @ILT+88610(?SetupNeedsBackprop@Network@tesseract@@UEAA_N_N@Z)
       1723  6BA 0000AD0D ?SetupNonLinear@DENORM@tesseract@@QEAAXPEBV12@AEBVTBOX@2@MMMMAEBV?$vector@V?$vector@HV?$allocator@H@std@@@std@@V?$allocator@V?$vector@HV?$allocator@H@std@@@std@@@2@@std@@2@Z = @ILT+40200(?SetupNonLinear@DENORM@tesseract@@QEAAXPEBV12@AEBVTBOX@2@MMMMAEBV?$vector@V?$vector@HV?$allocator@H@std@@@std@@V?$allocator@V?$vector@HV?$allocator@H@std@@@std@@@2@@std@@2@Z)
       1724  6BB 000116F3 ?SetupNormalization@DENORM@tesseract@@QEAAXPEBVBLOCK@2@PEBVFCOORD@2@PEBV12@MMMMMM@Z = @ILT+67310(?SetupNormalization@DENORM@tesseract@@QEAAXPEBVBLOCK@2@PEBVFCOORD@2@PEBV12@MMMMMM@Z)
       1725  6BC 0001ACB2 ?SetupPageSegAndDetectOrientation@Tesseract@tesseract@@QEAAPEAVColumnFinder@2@W4PageSegMode@2@PEAVBLOCK_LIST@2@PEAV12@PEAUOSResults@2@PEAVTO_BLOCK_LIST@2@PEAVImage@2@5@Z = @ILT+105645(?SetupPageSegAndDetectOrientation@Tesseract@tesseract@@QEAAPEAVColumnFinder@2@W4PageSegMode@2@PEAVBLOCK_LIST@2@PEAV12@PEAUOSResults@2@PEAVTO_BLOCK_LIST@2@PEAVImage@2@5@Z)
       1726  6BD 000191EB ?SetupPassThrough@UnicharCompress@tesseract@@QEAAXAEBVUNICHARSET@2@@Z = @ILT+98790(?SetupPassThrough@UnicharCompress@tesseract@@QEAAXAEBVUNICHARSET@2@@Z)
       1727  6BE 0000F2AE ?SetupTabSearch@TabFind@tesseract@@IEAAXHHPEAH0@Z = @ILT+58025(?SetupTabSearch@TabFind@tesseract@@IEAAXHHPEAH0@Z)
       1728  6BF 00012864 ?SetupUniversalFontIds@Tesseract@tesseract@@QEAAXXZ = @ILT+71775(?SetupUniversalFontIds@Tesseract@tesseract@@QEAAXXZ)
       1729  6C0 0001246D ?SetupWordPassN@Tesseract@tesseract@@QEAAXHPEAUWordData@2@@Z = @ILT+70760(?SetupWordPassN@Tesseract@tesseract@@QEAAXHPEAUWordData@2@@Z)
       1730  6C1 0001B48C ?SetupWordScript@WERD_RES@tesseract@@QEAAXAEBVUNICHARSET@2@@Z = @ILT+107655(?SetupWordScript@WERD_RES@tesseract@@QEAAXAEBVUNICHARSET@2@@Z)
       1731  6C2 0000A3EE ?ShallowCopy@ColPartition@tesseract@@QEBAPEAV12@XZ = @ILT+37865(?ShallowCopy@ColPartition@tesseract@@QEBAPEAV12@XZ)
       1732  6C3 00014C9A ?ShapeIDToClassID@Classify@tesseract@@QEBAHH@Z = @ILT+81045(?ShapeIDToClassID@Classify@tesseract@@QEBAHH@Z)
       1733  6C4 0000BA37 ?ShortNameToFeatureType@tesseract@@YAIAEBUFEATURE_DEFS_STRUCT@1@PEBD@Z = @ILT+43570(?ShortNameToFeatureType@tesseract@@YAIAEBUFEATURE_DEFS_STRUCT@1@PEBD@Z)
       1734  6C5 00003904 ?ShowBestMatchFor@Classify@tesseract@@QEAAXHPEBUINT_FEATURE_STRUCT@2@H@Z = @ILT+10495(?ShowBestMatchFor@Classify@tesseract@@QEAAXHPEBUINT_FEATURE_STRUCT@2@H@Z)
       1735  6C6 00014E89 ?ShowInputDialog@ScrollView@tesseract@@QEAAPEADPEBD@Z = @ILT+81540(?ShowInputDialog@ScrollView@tesseract@@QEAAPEADPEBD@Z)
       1736  6C7 000158FC ?ShowMatchDisplay@Classify@tesseract@@QEAAXXZ = @ILT+84215(?ShowMatchDisplay@Classify@tesseract@@QEAAXXZ)
       1737  6C8 00003779 ?ShowYesNoDialog@ScrollView@tesseract@@QEAAHPEBD@Z = @ILT+10100(?ShowYesNoDialog@ScrollView@tesseract@@QEAAHPEBD@Z)
       1738  6C9 00018FD4 ?ShrinkRangeToLongestRun@ColumnFinder@tesseract@@AEAAXPEAPEAHPEBHPEB_NHPEAH3@Z = @ILT+98255(?ShrinkRangeToLongestRun@ColumnFinder@tesseract@@AEAAXPEAPEAHPEBHPEB_NHPEAH3@Z)
       1739  6CA 000119FA ?Signal@ScrollView@tesseract@@AEAAXXZ = @ILT+68085(?Signal@ScrollView@tesseract@@AEAAXXZ)
       1740  6CB 0001177F ?SimpleTextOutput@LSTMRecognizer@tesseract@@QEBA_NXZ = @ILT+67450(?SimpleTextOutput@LSTMRecognizer@tesseract@@QEBA_NXZ)
       1741  6CC 00005664 ?SingletonPartner@ColPartition@tesseract@@QEAAPEAV12@_N@Z = @ILT+18015(?SingletonPartner@ColPartition@tesseract@@QEAAPEAV12@_N@Z)
       1742  6CD 00011617 ?Size@IntFeatureSpace@tesseract@@QEBAHXZ = @ILT+67090(?Size@IntFeatureSpace@tesseract@@QEBAHXZ)
       1743  6CE 000168E2 ?SizesDistinct@UNICHARSET@tesseract@@QEBA_NHH@Z = @ILT+88285(?SizesDistinct@UNICHARSET@tesseract@@QEBA_NHH@Z)
       1744  6CF 00009651 ?SizesSimilar@ColPartition@tesseract@@AEBA_NAEBV12@@Z = @ILT+34380(?SizesSimilar@ColPartition@tesseract@@AEBA_NAEBV12@@Z)
       1745  6D0 0001C5AD ?Skip@TFile@tesseract@@QEAA_N_K@Z = @ILT+112040(?Skip@TFile@tesseract@@QEAA_N_K@Z)
       1746  6D1 00018A48 ?SkipDeSerialize@ImageData@tesseract@@SA_NPEAVTFile@2@@Z = @ILT+96835(?SkipDeSerialize@ImageData@tesseract@@SA_NPEAVTFile@2@@Z)
       1747  6D2 00010DB6 ?SmoothInOneDirection@ColPartitionGrid@tesseract@@AEAA?AW4BlobRegionType@2@W4BlobNeighbourDir@2@VImage@2@AEBVTBOX@2@AEBVFCOORD@2@_NAEBVColPartition@2@PEAH@Z = @ILT+64945(?SmoothInOneDirection@ColPartitionGrid@tesseract@@AEAA?AW4BlobRegionType@2@W4BlobNeighbourDir@2@VImage@2@AEBVTBOX@2@AEBVFCOORD@2@_NAEBVColPartition@2@PEAH@Z)
       1748  6D3 00014ABF ?SmoothPartnerRun@ColPartition@tesseract@@QEAAXH@Z = @ILT+80570(?SmoothPartnerRun@ColPartition@tesseract@@QEAAXH@Z)
       1749  6D4 000164CD ?SmoothPartnerRuns@ColumnFinder@tesseract@@AEAAXXZ = @ILT+87240(?SmoothPartnerRuns@ColumnFinder@tesseract@@AEAAXXZ)
       1750  6D5 00017DB4 ?SmoothRegionType@ColPartitionGrid@tesseract@@AEAA_NVImage@2@AEBVTBOX@2@AEBVFCOORD@2@_NPEAVColPartition@2@@Z = @ILT+93615(?SmoothRegionType@ColPartitionGrid@tesseract@@AEAA_NVImage@2@AEBVTBOX@2@AEBVFCOORD@2@_NPEAVColPartition@2@@Z)
       1751  6D6 0001D502 ?SmoothSpacings@ColPartition@tesseract@@CAXHHPEAVColPartition_LIST@2@@Z = @ILT+115965(?SmoothSpacings@ColPartition@tesseract@@CAXHHPEAVColPartition_LIST@2@@Z)
       1752  6D7 0000FE7A ?SmoothTablePartitionRuns@TableFinder@tesseract@@IEAAXXZ = @ILT+61045(?SmoothTablePartitionRuns@TableFinder@tesseract@@IEAAXXZ)
       1753  6D8 00003A67 ?SortByBBox@ColPartition@tesseract@@SAHPEBX0@Z = @ILT+10850(?SortByBBox@ColPartition@tesseract@@SAHPEBX0@Z)
       1754  6D9 00015181 ?SortByXMiddle@C_BLOB@tesseract@@SAHPEBX0@Z = @ILT+82300(?SortByXMiddle@C_BLOB@tesseract@@SAHPEBX0@Z)
       1755  6DA 0001172A ?SortKey@ColPartition@tesseract@@QEBAHHH@Z = @ILT+67365(?SortKey@ColPartition@tesseract@@QEBAHHH@Z)
       1756  6DB 000137AF ?SortUnichars@Shape@tesseract@@AEAAXXZ = @ILT+75690(?SortUnichars@Shape@tesseract@@AEAAXXZ)
       1757  6DC 00014BF5 ?SortVectors@TabFind@tesseract@@AEAAXXZ = @ILT+80880(?SortVectors@TabFind@tesseract@@AEAAXXZ)
       1758  6DD 00002FC7 ?SpacingEqual@ColPartition@tesseract@@AEBA_NHH@Z = @ILT+8130(?SpacingEqual@ColPartition@tesseract@@AEBA_NHH@Z)
       1759  6DE 000061DB ?SpacingsEqual@ColPartition@tesseract@@AEBA_NAEBV12@H@Z = @ILT+20950(?SpacingsEqual@ColPartition@tesseract@@AEBA_NAEBV12@H@Z)
       1760  6DF 00016941 ?SparseSize@IndexMap@tesseract@@UEBAHXZ = @ILT+88380(?SparseSize@IndexMap@tesseract@@UEBAHXZ)
       1761  6E0 0000B05A ?SparseSize@IndexMapBiDi@tesseract@@UEBAHXZ = @ILT+41045(?SparseSize@IndexMapBiDi@tesseract@@UEBAHXZ)
       1762  6E1 0000FE66 ?SparseToCompact@IndexMap@tesseract@@UEBAHH@Z = @ILT+61025(?SparseToCompact@IndexMap@tesseract@@UEBAHH@Z)
       1763  6E2 00015109 ?SparseToCompact@IndexMapBiDi@tesseract@@UEBAHH@Z = @ILT+82180(?SparseToCompact@IndexMapBiDi@tesseract@@UEBAHH@Z)
       1764  6E3 000016CC ?SpecialBlobsCount@ColPartition@tesseract@@QEAAHW4BlobSpecialTextType@2@@Z = @ILT+1735(?SpecialBlobsCount@ColPartition@tesseract@@QEAAHW4BlobSpecialTextType@2@@Z)
       1765  6E4 0000ED54 ?SpecialBlobsDensity@ColPartition@tesseract@@QEBAMW4BlobSpecialTextType@2@@Z = @ILT+56655(?SpecialBlobsDensity@ColPartition@tesseract@@QEBAMW4BlobSpecialTextType@2@@Z)
       1766  6E5 00002B3A ?SplitAndInsertFragmentedTextPartition@TableFinder@tesseract@@IEAAXPEAVColPartition@2@@Z = @ILT+6965(?SplitAndInsertFragmentedTextPartition@TableFinder@tesseract@@IEAAXPEAVColPartition@2@@Z)
       1767  6E6 00014588 ?SplitAt@ColPartition@tesseract@@QEAAPEAV12@H@Z = @ILT+79235(?SplitAt@ColPartition@tesseract@@QEAAPEAV12@H@Z)
       1768  6E7 0000F911 ?SplitAt@Series@tesseract@@QEAAXHPEAPEAV12@0@Z = @ILT+59660(?SplitAt@Series@tesseract@@QEAAXHPEAPEAV12@0@Z)
       1769  6E8 0001D3E0 ?SplitAtBlob@ColPartition@tesseract@@QEAAPEAV12@PEAVBLOBNBOX@2@@Z = @ILT+115675(?SplitAtBlob@ColPartition@tesseract@@QEAAPEAV12@PEAVBLOBNBOX@2@@Z)
       1770  6E9 00005A88 ?SplitCPHor@EquationDetect@tesseract@@IEAAXPEAVColPartition@2@PEAV?$vector@PEAVColPartition@tesseract@@V?$allocator@PEAVColPartition@tesseract@@@std@@@std@@@Z = @ILT+19075(?SplitCPHor@EquationDetect@tesseract@@IEAAXPEAVColPartition@2@PEAV?$vector@PEAVColPartition@tesseract@@V?$allocator@PEAVColPartition@tesseract@@@std@@@std@@@Z)
       1771  6EA 0001686F ?SplitCPHorLite@EquationDetect@tesseract@@IEAAXPEAVColPartition@2@PEAV?$vector@VTBOX@tesseract@@V?$allocator@VTBOX@tesseract@@@std@@@std@@@Z = @ILT+88170(?SplitCPHorLite@EquationDetect@tesseract@@IEAAXPEAVColPartition@2@PEAV?$vector@VTBOX@tesseract@@V?$allocator@VTBOX@tesseract@@@std@@@std@@@Z)
       1772  6EB 00012837 ?SplitOverlappingPartitions@ColPartitionGrid@tesseract@@QEAAXPEAVColPartition_LIST@2@@Z = @ILT+71730(?SplitOverlappingPartitions@ColPartitionGrid@tesseract@@QEAAXPEAVColPartition_LIST@2@@Z)
       1773  6EC 0000A376 ?StartBackupAdaptiveClassifier@Classify@tesseract@@QEAAXXZ = @ILT+37745(?StartBackupAdaptiveClassifier@Classify@tesseract@@QEAAXXZ)
       1774  6ED 0000E075 ?StartEventHandler@ScrollView@tesseract@@AEAAXXZ = @ILT+53360(?StartEventHandler@ScrollView@tesseract@@AEAAXXZ)
       1775  6EE 00001DDE ?StartOfParagraph@ResultIterator@tesseract@@SAPEAV12@AEBVLTRResultIterator@2@@Z = @ILT+3545(?StartOfParagraph@ResultIterator@tesseract@@SAPEAV12@AEBVLTRResultIterator@2@@Z)
       1776  6EF 00004F0C ?StatesAllValid@WERD_RES@tesseract@@QEAA_NXZ = @ILT+16135(?StatesAllValid@WERD_RES@tesseract@@QEAA_NXZ)
       1777  6F0 00011847 ?Stroke@ScrollView@tesseract@@QEAAXM@Z = @ILT+67650(?Stroke@ScrollView@tesseract@@QEAAXM@Z)
       1778  6F1 0000F04C ?SubAndSuperscriptFix@Tesseract@tesseract@@QEAA_NPEAVWERD_RES@2@@Z = @ILT+57415(?SubAndSuperscriptFix@Tesseract@tesseract@@QEAA_NPEAVWERD_RES@2@@Z)
       1779  6F2 000029F0 ?SubsetUnichar@ShapeTable@tesseract@@QEBA_NHH@Z = @ILT+6635(?SubsetUnichar@ShapeTable@tesseract@@QEBA_NHH@Z)
       1780  6F3 0000B91F ?SubtractAllFromFloat@NetworkIO@tesseract@@QEAAXAEBV12@@Z = @ILT+43290(?SubtractAllFromFloat@NetworkIO@tesseract@@QEAAXAEBV12@@Z)
       1781  6F4 00019CE0 ?SummaryStr@ShapeTable@tesseract@@QEBA?AV?$basic_string@DU?$char_traits@D@std@@V?$allocator@D@2@@std@@XZ = @ILT+101595(?SummaryStr@ShapeTable@tesseract@@QEBA?AV?$basic_string@DU?$char_traits@D@std@@V?$allocator@D@2@@std@@XZ)
       1782  6F5 000030D0 ?SummedSpacingOK@ColPartition@tesseract@@AEBA_NAEBV12@HH@Z = @ILT+8395(?SummedSpacingOK@ColPartition@tesseract@@AEBA_NAEBV12@HH@Z)
       1783  6F6 000183C7 ?SwapShapes@ShapeTable@tesseract@@QEAAXHH@Z = @ILT+95170(?SwapShapes@ShapeTable@tesseract@@QEAAXHH@Z)
       1784  6F7 0000CBDA ?SwitchAdaptiveClassifier@Classify@tesseract@@QEAAXXZ = @ILT+48085(?SwitchAdaptiveClassifier@Classify@tesseract@@QEAAXXZ)
       1785  6F8 00015361 ?SymbolDirection@WERD_RES@tesseract@@QEBA?AW4Direction@UNICHARSET@2@H@Z = @ILT+82780(?SymbolDirection@WERD_RES@tesseract@@QEBA?AW4Direction@UNICHARSET@2@H@Z)
       1786  6F9 0001A717 ?SymbolIsDropcap@LTRResultIterator@tesseract@@QEBA_NXZ = @ILT+104210(?SymbolIsDropcap@LTRResultIterator@tesseract@@QEBA_NXZ)
       1787  6FA 00019FBA ?SymbolIsSubscript@LTRResultIterator@tesseract@@QEBA_NXZ = @ILT+102325(?SymbolIsSubscript@LTRResultIterator@tesseract@@QEBA_NXZ)
       1788  6FB 0000776B ?SymbolIsSuperscript@LTRResultIterator@tesseract@@QEBA_NXZ = @ILT+26470(?SymbolIsSuperscript@LTRResultIterator@tesseract@@QEBA_NXZ)
       1789  6FC 0000D54E ?TempConfigReliable@Classify@tesseract@@QEAA_NHPEBUTEMP_CONFIG_STRUCT@2@@Z = @ILT+50505(?TempConfigReliable@Classify@tesseract@@QEAA_NHPEBUTEMP_CONFIG_STRUCT@2@@Z)
       1790  6FD 00018859 ?TessdataTypeFromFileName@TessdataManager@tesseract@@CA_NPEBDPEAW4TessdataType@2@@Z = @ILT+96340(?TessdataTypeFromFileName@TessdataManager@tesseract@@CA_NPEBDPEAW4TessdataType@2@@Z)
       1791  6FE 000106BD ?TessdataTypeFromFileSuffix@TessdataManager@tesseract@@CA_NPEBDPEAW4TessdataType@2@@Z = @ILT+63160(?TessdataTypeFromFileSuffix@TessdataManager@tesseract@@CA_NPEBDPEAW4TessdataType@2@@Z)
       1792  6FF 0001D5C5 ?TesseractRect@TessBaseAPI@tesseract@@QEAAPEADPEBEHHHHHH@Z = @ILT+116160(?TesseractRect@TessBaseAPI@tesseract@@QEAAPEADPEBEHHHHHH@Z)
       1793  700 00016662 ?TestBoxForTabs@TabFind@tesseract@@AEAA_NPEAVBLOBNBOX@2@HN@Z = @ILT+87645(?TestBoxForTabs@TabFind@tesseract@@AEAA_NPEAVBLOBNBOX@2@HN@Z)
       1794  701 0000AB82 ?TestFlag@Network@tesseract@@QEBA_NW4NetworkFlags@2@@Z = @ILT+39805(?TestFlag@Network@tesseract@@QEBA_NW4NetworkFlags@2@@Z)
       1795  702 000080AD ?TestNewNormalization@Tesseract@tesseract@@QEAA_NHMMPEAVWERD_RES@2@PEAVBLOCK@2@PEAVROW@2@@Z = @ILT+28840(?TestNewNormalization@Tesseract@tesseract@@QEAA_NHMMPEAVWERD_RES@2@PEAVBLOCK@2@PEAVROW@2@@Z)
       1796  703 000170B2 ?Text@ScrollView@tesseract@@QEAAXHHPEBD@Z = @ILT+90285(?Text@ScrollView@tesseract@@QEAAXHHPEBD@Z)
       1797  704 0000B384 ?TextAttributes@ScrollView@tesseract@@QEAAXPEBDH_N11@Z = @ILT+41855(?TextAttributes@ScrollView@tesseract@@QEAAXPEBDH_N11@Z)
       1798  705 0001622A ?TextLength@TessBaseAPI@tesseract@@IEBAHPEAH@Z = @ILT+86565(?TextLength@TessBaseAPI@tesseract@@IEBAHPEAH@Z)
       1799  706 00002126 ?ThetaBucket@IntFeatureSpace@tesseract@@IEBAHH@Z = @ILT+4385(?ThetaBucket@IntFeatureSpace@tesseract@@IEBAHH@Z)
       1800  707 0001B79D ?ThisPartitionBetter@ColPartition@tesseract@@AEAA_NPEAVBLOBNBOX@2@AEBV12@@Z = @ILT+108440(?ThisPartitionBetter@ColPartition@tesseract@@AEAA_NPEAVBLOBNBOX@2@AEBV12@@Z)
       1801  708 000109BA ?Threshold@ImageThresholder@tesseract@@UEAA?AV?$tuple@_NVImage@tesseract@@V12@V12@@std@@W4ThresholdMethod@2@@Z = @ILT+63925(?Threshold@ImageThresholder@tesseract@@UEAA?AV?$tuple@_NVImage@tesseract@@V12@V12@@std@@W4ThresholdMethod@2@@Z)
       1802  709 0000C342 ?Threshold@TessBaseAPI@tesseract@@MEAA_NPEAPEAUPix@@@Z = @ILT+45885(?Threshold@TessBaseAPI@tesseract@@MEAA_NPEAPEAUPix@@@Z)
       1803  70A 00002EAA ?ThresholdRectToPix@ImageThresholder@tesseract@@IEBAXVImage@2@HAEBV?$vector@HV?$allocator@H@std@@@std@@1PEAV32@@Z = @ILT+7845(?ThresholdRectToPix@ImageThresholder@tesseract@@IEBAXVImage@2@HAEBV?$vector@HV?$allocator@H@std@@@std@@1PEAV32@@Z)
       1804  70B 00005777 ?ThresholdToPix@ImageThresholder@tesseract@@UEAA_NPEAVImage@2@@Z = @ILT+18290(?ThresholdToPix@ImageThresholder@tesseract@@UEAA_NPEAVImage@2@@Z)
       1805  70C 00002A31 ?TidyBlobs@TabFind@tesseract@@IEAAXPEAVTO_BLOCK@2@@Z = @ILT+6700(?TidyBlobs@TabFind@tesseract@@IEAAXPEAVTO_BLOCK@2@@Z)
       1806  70D 0000DDDC ?TidyUp@Tesseract@tesseract@@QEAAXPEAVPAGE_RES@2@@Z = @ILT+52695(?TidyUp@Tesseract@tesseract@@QEAAXPEAVPAGE_RES@2@@Z)
       1807  70E 0001036B ?Timesteps@ChoiceIterator@tesseract@@QEBAPEAV?$vector@V?$vector@U?$pair@PEBDM@std@@V?$allocator@U?$pair@PEBDM@std@@@2@@std@@V?$allocator@V?$vector@U?$pair@PEBDM@std@@V?$allocator@U?$pair@PEBDM@std@@@2@@std@@@2@@std@@XZ = @ILT+62310(?Timesteps@ChoiceIterator@tesseract@@QEBAPEAV?$vector@V?$vector@U?$pair@PEBDM@std@@V?$allocator@U?$pair@PEBDM@std@@@2@@std@@V?$allocator@V?$vector@U?$pair@PEBDM@std@@V?$allocator@U?$pair@PEBDM@std@@@2@@std@@@2@@std@@XZ)
       1808  70F 00002991 ?ToPix@NetworkIO@tesseract@@QEBA?AVImage@2@XZ = @ILT+6540(?ToPix@NetworkIO@tesseract@@QEBA?AVImage@2@XZ)
       1809  710 0000A3FD ?ToString@ParagraphModel@tesseract@@QEBA?AV?$basic_string@DU?$char_traits@D@std@@V?$allocator@D@2@@std@@XZ = @ILT+37880(?ToString@ParagraphModel@tesseract@@QEBA?AV?$basic_string@DU?$char_traits@D@std@@V?$allocator@D@2@@std@@XZ)
       1810  711 00014024 ?TopSpacingMargin@ColPartition@tesseract@@AEBAHH@Z = @ILT+77855(?TopSpacingMargin@ColPartition@tesseract@@AEBAHH@Z)
       1811  712 000058DF ?TotalOfStates@WERD_CHOICE@tesseract@@QEBAHXZ = @ILT+18650(?TotalOfStates@WERD_CHOICE@tesseract@@QEBAHXZ)
       1812  713 000103C0 ?TotalPages@DocumentCache@tesseract@@QEAAHXZ = @ILT+62395(?TotalPages@DocumentCache@tesseract@@QEAAHXZ)
       1813  714 0000BBD6 ?TrainFromBoxes@Tesseract@tesseract@@QEAAXAEBV?$vector@VTBOX@tesseract@@V?$allocator@VTBOX@tesseract@@@std@@@std@@AEBV?$vector@V?$basic_string@DU?$char_traits@D@std@@V?$allocator@D@2@@std@@V?$allocator@V?$basic_string@DU?$char_traits@D@std@@V?$allocator@D@2@@std@@@2@@4@PEAVBLOCK_LIST@2@PEAVDocumentData@2@@Z = @ILT+43985(?TrainFromBoxes@Tesseract@tesseract@@QEAAXAEBV?$vector@VTBOX@tesseract@@V?$allocator@VTBOX@tesseract@@@std@@@std@@AEBV?$vector@V?$basic_string@DU?$char_traits@D@std@@V?$allocator@D@2@@std@@V?$allocator@V?$basic_string@DU?$char_traits@D@std@@V?$allocator@D@2@@std@@@2@@4@PEAVBLOCK_LIST@2@PEAVDocumentData@2@@Z)
       1814  715 0001B2C5 ?TrainLineRecognizer@Tesseract@tesseract@@QEAA_NPEBDAEBV?$basic_string@DU?$char_traits@D@std@@V?$allocator@D@2@@std@@PEAVBLOCK_LIST@2@@Z = @ILT+107200(?TrainLineRecognizer@Tesseract@tesseract@@QEAA_NPEBDAEBV?$basic_string@DU?$char_traits@D@std@@V?$allocator@D@2@@std@@PEAVBLOCK_LIST@2@@Z)
       1815  716 00016365 ?TrainedXheightFix@Tesseract@tesseract@@QEAA_NPEAVWERD_RES@2@PEAVBLOCK@2@PEAVROW@2@@Z = @ILT+86880(?TrainedXheightFix@Tesseract@tesseract@@QEAA_NPEAVWERD_RES@2@PEAVBLOCK@2@PEAVROW@2@@Z)
       1816  717 000086A7 ?TransformToBlocks@ColumnFinder@tesseract@@AEAAXPEAVBLOCK_LIST@2@PEAVTO_BLOCK_LIST@2@@Z = @ILT+30370(?TransformToBlocks@ColumnFinder@tesseract@@AEAAXPEAVBLOCK_LIST@2@PEAVTO_BLOCK_LIST@2@@Z)
       1817  718 00001820 ?TransformToPixCoords@TextlineProjection@tesseract@@AEBAXPEBVDENORM@2@PEAUTPOINT@2@@Z = @ILT+2075(?TransformToPixCoords@TextlineProjection@tesseract@@AEBAXPEBVDENORM@2@PEAUTPOINT@2@@Z)
       1818  719 00005A65 ?TranslateYCoordinate@ScrollView@tesseract@@QEAAHH@Z = @ILT+19040(?TranslateYCoordinate@ScrollView@tesseract@@QEAAHH@Z)
       1819  71A 00012FD0 ?Transpose@NetworkIO@tesseract@@QEBAXPEAVTransposedArray@2@@Z = @ILT+73675(?Transpose@NetworkIO@tesseract@@QEBAXPEAVTransposedArray@2@@Z)
       1820  71B 00002757 ?TruncateToImageBounds@TextlineProjection@tesseract@@AEBAXPEAUTPOINT@2@@Z = @ILT+5970(?TruncateToImageBounds@TextlineProjection@tesseract@@AEBAXPEAUTPOINT@2@@Z)
       1821  71C 0000E1F6 ?TrySuperscriptSplits@Tesseract@tesseract@@QEAAPEAVWERD_RES@2@HMW4ScriptPos@2@HM0PEAV32@PEA_NPEAH3@Z = @ILT+53745(?TrySuperscriptSplits@Tesseract@tesseract@@QEAAPEAVWERD_RES@2@HMW4ScriptPos@2@HM0PEAV32@PEA_NPEAH3@Z)
       1822  71D 00011DD3 ?TypesMatch@ColPartition@tesseract@@QEBA_NAEBV12@@Z = @ILT+69070(?TypesMatch@ColPartition@tesseract@@QEBA_NAEBV12@@Z)
       1823  71E 000052A4 ?TypesMatch@ColPartition@tesseract@@SA_NW4BlobRegionType@2@0@Z = @ILT+17055(?TypesMatch@ColPartition@tesseract@@SA_NW4BlobRegionType@2@0@Z)
       1824  71F 00013246 ?TypesSimilar@ColPartition@tesseract@@SA_NW4PolyBlockType@2@0@Z = @ILT+74305(?TypesSimilar@ColPartition@tesseract@@SA_NW4PolyBlockType@2@0@Z)
       1825  720 0001AEDD ?UTF32ToUTF8@UNICHAR@tesseract@@SA?AV?$basic_string@DU?$char_traits@D@std@@V?$allocator@D@2@@std@@AEBV?$vector@HV?$allocator@H@std@@@4@@Z = @ILT+106200(?UTF32ToUTF8@UNICHAR@tesseract@@SA?AV?$basic_string@DU?$char_traits@D@std@@V?$allocator@D@2@@std@@AEBV?$vector@HV?$allocator@H@std@@@4@@Z)
       1826  721 00012373 ?UTF8ToUTF32@UNICHAR@tesseract@@SA?AV?$vector@HV?$allocator@H@std@@@std@@PEBD@Z = @ILT+70510(?UTF8ToUTF32@UNICHAR@tesseract@@SA?AV?$vector@HV?$allocator@H@std@@@std@@PEBD@Z)
       1827  722 000144ED ?UnicharClassifySample@ShapeClassifier@tesseract@@UEAAHAEBVTrainingSample@2@VImage@2@HHPEAV?$vector@UUnicharRating@tesseract@@V?$allocator@UUnicharRating@tesseract@@@std@@@std@@@Z = @ILT+79080(?UnicharClassifySample@ShapeClassifier@tesseract@@UEAAHAEBVTrainingSample@2@VImage@2@HHPEAV?$vector@UUnicharRating@tesseract@@V?$allocator@UUnicharRating@tesseract@@@std@@@std@@@Z)
       1828  723 00018D7C ?UnicharClassifySample@TessClassifier@tesseract@@UEAAHAEBVTrainingSample@2@VImage@2@HHPEAV?$vector@UUnicharRating@tesseract@@V?$allocator@UUnicharRating@tesseract@@@std@@@std@@@Z = @ILT+97655(?UnicharClassifySample@TessClassifier@tesseract@@UEAAHAEBVTrainingSample@2@VImage@2@HHPEAV?$vector@UUnicharRating@tesseract@@V?$allocator@UUnicharRating@tesseract@@@std@@@std@@@Z)
       1829  724 00008A62 ?UnicharPrintResults@ShapeClassifier@tesseract@@UEBAXPEBDAEBV?$vector@UUnicharRating@tesseract@@V?$allocator@UUnicharRating@tesseract@@@std@@@std@@@Z = @ILT+31325(?UnicharPrintResults@ShapeClassifier@tesseract@@UEBAXPEBDAEBV?$vector@UUnicharRating@tesseract@@V?$allocator@UUnicharRating@tesseract@@@std@@@std@@@Z)
       1830  725 00002734 ?UnicharsInReadingOrder@WERD_RES@tesseract@@QEBA_NXZ = @ILT+5935(?UnicharsInReadingOrder@WERD_RES@tesseract@@QEBA_NXZ)
       1831  726 00008297 ?UniformCertainties@Dict@tesseract@@QEAAHAEBVWERD_CHOICE@2@@Z = @ILT+29330(?UniformCertainties@Dict@tesseract@@QEAAHAEBVWERD_CHOICE@2@@Z)
       1832  727 0001044C ?Update@Network@tesseract@@UEAAXMMMH@Z = @ILT+62535(?Update@Network@tesseract@@UEAAXMMMH@Z)
       1833  728 00003873 ?Update@SIMDDetect@tesseract@@SAXXZ = @ILT+10350(?Update@SIMDDetect@tesseract@@SAXXZ)
       1834  729 00017C5B ?Update@ScrollView@tesseract@@SAXXZ = @ILT+93270(?Update@ScrollView@tesseract@@SAXXZ)
       1835  72A 00010195 ?UpdateAmbigsGroup@Classify@tesseract@@QEAAXHPEAUTBLOB@2@@Z = @ILT+61840(?UpdateAmbigsGroup@Classify@tesseract@@QEAAXHPEAUTBLOB@2@@Z)
       1836  72B 00019CA4 ?UpdateHeapIfMatched@RecodeBeamSearch@tesseract@@AEAA_NPEAURecodeNode@2@PEAV?$GenericHeap@U?$KDPairInc@NURecodeNode@tesseract@@@tesseract@@@2@@Z = @ILT+101535(?UpdateHeapIfMatched@RecodeBeamSearch@tesseract@@AEAA_NPEAURecodeNode@2@PEAV?$GenericHeap@U?$KDPairInc@NURecodeNode@tesseract@@@tesseract@@@2@@Z)
       1837  72C 00012FA3 ?UpdateMargins@StructuredTable@tesseract@@IEAAXPEAVColPartitionGrid@2@@Z = @ILT+73630(?UpdateMargins@StructuredTable@tesseract@@IEAAXPEAVColPartitionGrid@2@@Z)
       1838  72D 0000295A ?UpdateSegSearchNodes@Wordrec@tesseract@@IEAAXMHPEAV?$vector@VSegSearchPending@tesseract@@V?$allocator@VSegSearchPending@tesseract@@@std@@@std@@PEAVWERD_RES@2@PEAVLMPainPoints@2@PEAUBestChoiceBundle@2@PEAUBlamerBundle@2@@Z = @ILT+6485(?UpdateSegSearchNodes@Wordrec@tesseract@@IEAAXMHPEAV?$vector@VSegSearchPending@tesseract@@V?$allocator@VSegSearchPending@tesseract@@@std@@@std@@PEAVWERD_RES@2@PEAVLMPainPoints@2@PEAUBestChoiceBundle@2@PEAUBlamerBundle@2@@Z)
       1839  72E 00009E49 ?UpdateStateForSplit@WERD_CHOICE@tesseract@@QEAAXH@Z = @ILT+36420(?UpdateStateForSplit@WERD_CHOICE@tesseract@@QEAAXH@Z)
       1840  72F 00004FB6 ?UpdateWindow@ScrollView@tesseract@@QEAAXXZ = @ILT+16305(?UpdateWindow@ScrollView@tesseract@@QEAAXXZ)
       1841  730 00001609 ?VCoreOverlap@ColPartition@tesseract@@QEBAHAEBV12@@Z = @ILT+1540(?VCoreOverlap@ColPartition@tesseract@@QEBAHAEBV12@@Z)
       1842  731 00008EF9 ?VOverlaps@ColPartition@tesseract@@QEBA_NAEBV12@@Z = @ILT+32500(?VOverlaps@ColPartition@tesseract@@QEBA_NAEBV12@@Z)
       1843  732 0000ABAA ?VSignificantCoreOverlap@ColPartition@tesseract@@QEBA_NAEBV12@@Z = @ILT+39845(?VSignificantCoreOverlap@ColPartition@tesseract@@QEBA_NAEBV12@@Z)
       1844  733 0000D675 ?ValidBodyLine@ParagraphModel@tesseract@@QEBA_NHHHH@Z = @ILT+50800(?ValidBodyLine@ParagraphModel@tesseract@@QEBA_NHHHH@Z)
       1845  734 0001A712 ?ValidFirstLine@ParagraphModel@tesseract@@QEBA_NHHHH@Z = @ILT+104205(?ValidFirstLine@ParagraphModel@tesseract@@QEBA_NHHHH@Z)
       1846  735 00016D9C ?VerifyLinedTableCells@StructuredTable@tesseract@@IEAA_NXZ = @ILT+89495(?VerifyLinedTableCells@StructuredTable@tesseract@@IEAA_NXZ)
       1847  736 00006DDE ?VerifyRowFilled@StructuredTable@tesseract@@QEAA_NH@Z = @ILT+24025(?VerifyRowFilled@StructuredTable@tesseract@@QEAA_NH@Z)
       1848  737 00011C89 ?VerifyWhitespacedTable@StructuredTable@tesseract@@IEAA_NXZ = @ILT+68740(?VerifyWhitespacedTable@StructuredTable@tesseract@@IEAA_NXZ)
       1849  738 0000556A ?Version@TessBaseAPI@tesseract@@SAPEBDXZ = @ILT+17765(?Version@TessBaseAPI@tesseract@@SAPEBDXZ)
       1850  739 0001099C ?VersionString@TessdataManager@tesseract@@QEBA?AV?$basic_string@DU?$char_traits@D@std@@V?$allocator@D@2@@std@@XZ = @ILT+63895(?VersionString@TessdataManager@tesseract@@QEBA?AV?$basic_string@DU?$char_traits@D@std@@V?$allocator@D@2@@std@@XZ)
       1851  73A 00009DBD ?VerticalDistance@TextlineProjection@tesseract@@QEBAH_NHHH@Z = @ILT+36280(?VerticalDistance@TextlineProjection@tesseract@@QEBAH_NHHH@Z)
       1852  73B 0000777A ?VeryDifferentSizes@TabFind@tesseract@@SA_NHH@Z = @ILT+26485(?VeryDifferentSizes@TabFind@tesseract@@SA_NHH@Z)
       1853  73C 0001238C ?Wait@ScrollView@tesseract@@QEAADXZ = @ILT+70535(?Wait@ScrollView@tesseract@@QEAADXZ)
       1854  73D 00002946 ?Width@NetworkIO@tesseract@@QEBAHXZ = @ILT+6465(?Width@NetworkIO@tesseract@@QEBAHXZ)
       1855  73E 0001C6BB ?WidthCB@TabFind@tesseract@@QEAA?AV?$function@$$A6A_NH@Z@std@@XZ = @ILT+112310(?WidthCB@TabFind@tesseract@@QEAA?AV?$function@$$A6A_NH@Z@std@@XZ)
       1856  73F 00014BA5 ?WildcardID@Dict@tesseract@@QEBAHXZ = @ILT+80800(?WildcardID@Dict@tesseract@@QEBAHXZ)
       1857  740 0000C446 ?WithinSameMargins@ColPartition@tesseract@@QEBA_NAEBV12@@Z = @ILT+46145(?WithinSameMargins@ColPartition@tesseract@@QEBA_NAEBV12@@Z)
       1858  741 00003620 ?WithinTestRegion@AlignedBlob@tesseract@@SA_NHHH@Z = @ILT+9755(?WithinTestRegion@AlignedBlob@tesseract@@SA_NHHH@Z)
       1859  742 0000E5DE ?WordDirection@LTRResultIterator@tesseract@@QEBA?AW4StrongScriptDirection@2@XZ = @ILT+54745(?WordDirection@LTRResultIterator@tesseract@@QEBA?AW4StrongScriptDirection@2@XZ)
       1860  743 00009B47 ?WordFontAttributes@LTRResultIterator@tesseract@@QEBAPEBDPEA_N00000PEAH1@Z = @ILT+35650(?WordFontAttributes@LTRResultIterator@tesseract@@QEBAPEBDPEA_N00000PEAH1@Z)
       1861  744 0001BEB9 ?WordIndex@BitVector@tesseract@@AEBAHH@Z = @ILT+110260(?WordIndex@BitVector@tesseract@@AEBAHH@Z)
       1862  745 00005F01 ?WordIsFromDictionary@LTRResultIterator@tesseract@@QEBA_NXZ = @ILT+20220(?WordIsFromDictionary@LTRResultIterator@tesseract@@QEBA_NXZ)
       1863  746 0000AB05 ?WordIsNumeric@LTRResultIterator@tesseract@@QEBA_NXZ = @ILT+39680(?WordIsNumeric@LTRResultIterator@tesseract@@QEBA_NXZ)
       1864  747 0001934E ?WordLattice@LTRResultIterator@tesseract@@QEBAPEBDPEAH@Z = @ILT+99145(?WordLattice@LTRResultIterator@tesseract@@QEBAPEBDPEAH@Z)
       1865  748 00001893 ?WordLength@BitVector@tesseract@@AEBAHXZ = @ILT+2190(?WordLength@BitVector@tesseract@@AEBAHXZ)
       1866  749 000137C8 ?WordNormedUTF8Text@LTRResultIterator@tesseract@@QEBAPEADXZ = @ILT+75715(?WordNormedUTF8Text@LTRResultIterator@tesseract@@QEBAPEADXZ)
       1867  74A 00002CB6 ?WordRecognitionLanguage@LTRResultIterator@tesseract@@QEBAPEBDXZ = @ILT+7345(?WordRecognitionLanguage@LTRResultIterator@tesseract@@QEBAPEBDXZ)
       1868  74B 000082E7 ?WordTruthUTF8Text@LTRResultIterator@tesseract@@QEBAPEADXZ = @ILT+29410(?WordTruthUTF8Text@LTRResultIterator@tesseract@@QEBAPEADXZ)
       1869  74C 0000F3D5 ?WriteAdaptedTemplates@Classify@tesseract@@QEAAXPEAU_iobuf@@PEAVADAPT_TEMPLATES_STRUCT@2@@Z = @ILT+58320(?WriteAdaptedTemplates@Classify@tesseract@@QEAAXPEAU_iobuf@@PEAVADAPT_TEMPLATES_STRUCT@2@@Z)
       1870  74D 00017EEF ?WriteIntTemplates@Classify@tesseract@@QEAAXPEAU_iobuf@@PEAUINT_TEMPLATES_STRUCT@2@AEBVUNICHARSET@2@@Z = @ILT+93930(?WriteIntTemplates@Classify@tesseract@@QEAAXPEAU_iobuf@@PEAUINT_TEMPLATES_STRUCT@2@AEBVUNICHARSET@2@@Z)
       1871  74E 00010BDB ?WriteParamDesc@tesseract@@YAXPEAU_iobuf@@GQEBUPARAM_DESC@1@@Z = @ILT+64470(?WriteParamDesc@tesseract@@YAXPEAU_iobuf@@GQEBUPARAM_DESC@1@@Z)
       1872  74F 00005718 ?WritePrototype@tesseract@@YAXPEAU_iobuf@@GPEAUPROTOTYPE@1@@Z = @ILT+18195(?WritePrototype@tesseract@@YAXPEAU_iobuf@@GPEAUPROTOTYPE@1@@Z)
       1873  750 000084C7 ?WriteTRFile@Classify@tesseract@@QEAA_NPEBD@Z = @ILT+29890(?WriteTRFile@Classify@tesseract@@QEAA_NPEBD@Z)
       1874  751 0001B7E8 ?WriteTimeStep@NetworkIO@tesseract@@QEAAXHPEBN@Z = @ILT+108515(?WriteTimeStep@NetworkIO@tesseract@@QEAAXHPEBN@Z)
       1875  752 00015587 ?WriteTimeStepPart@NetworkIO@tesseract@@QEAAXHHHPEBN@Z = @ILT+83330(?WriteTimeStepPart@NetworkIO@tesseract@@QEAAXHHHPEBN@Z)
       1876  753 000128D2 ?XAtY@ColPartition@tesseract@@QEBAHHH@Z = @ILT+71885(?XAtY@ColPartition@tesseract@@QEBAHHH@Z)
       1877  754 0001C84B ?XBucket@IntFeatureSpace@tesseract@@IEBAHH@Z = @ILT+112710(?XBucket@IntFeatureSpace@tesseract@@IEBAHH@Z)
       1878  755 0000431D ?XHeightRange@DENORM@tesseract@@QEBAXHAEBVUNICHARSET@2@AEBVTBOX@2@PEAM22@Z = @ILT+13080(?XHeightRange@DENORM@tesseract@@QEBAXHAEBVUNICHARSET@2@AEBVTBOX@2@PEAM22@Z)
       1879  756 00016473 ?XScaleFactor@Network@tesseract@@UEBAHXZ = @ILT+87150(?XScaleFactor@Network@tesseract@@UEBAHXZ)
       1880  757 0000AD21 ?XYToFeatureIndex@IntFeatureSpace@tesseract@@QEBAHHH@Z = @ILT+40220(?XYToFeatureIndex@IntFeatureSpace@tesseract@@QEBAHHH@Z)
       1881  758 000132BE ?YBucket@IntFeatureSpace@tesseract@@IEBAHH@Z = @ILT+74425(?YBucket@IntFeatureSpace@tesseract@@IEBAHH@Z)
       1882  759 00018746 ?Zero@NetworkIO@tesseract@@QEAAXXZ = @ILT+96065(?Zero@NetworkIO@tesseract@@QEAAXXZ)
       1883  75A 0001A190 ?ZeroInvalidElements@NetworkIO@tesseract@@QEAAXXZ = @ILT+102795(?ZeroInvalidElements@NetworkIO@tesseract@@QEAAXXZ)
       1884  75B 00007EA0 ?ZeroTimeStep@NetworkIO@tesseract@@QEAAXH@Z = @ILT+28315(?ZeroTimeStep@NetworkIO@tesseract@@QEAAXH@Z)
       1885  75C 0000E9DA ?ZeroTimeStepGeneral@NetworkIO@tesseract@@QEAAXHHH@Z = @ILT+55765(?ZeroTimeStepGeneral@NetworkIO@tesseract@@QEAAXHHH@Z)
       1886  75D 00009868 ?ZoomToRectangle@ScrollView@tesseract@@QEAAXHHHH@Z = @ILT+34915(?ZoomToRectangle@ScrollView@tesseract@@QEAAXHHHH@Z)
       1887  75E 000127D3 ?absolute_garbage@Dict@tesseract@@QEAA_NAEBVWERD_CHOICE@2@AEBVUNICHARSET@2@@Z = @ILT+71630(?absolute_garbage@Dict@tesseract@@QEAA_NAEBVWERD_CHOICE@2@AEBVUNICHARSET@2@@Z)
       1888  75F 0001C44A ?acceptable_number_string@Tesseract@tesseract@@QEAA_NPEBD0@Z = @ILT+111685(?acceptable_number_string@Tesseract@tesseract@@QEAA_NPEBD0@Z)
       1889  760 00018D13 ?acceptable_word_string@Tesseract@tesseract@@QEAA?AW4ACCEPTABLE_WERD_TYPE@@AEBVUNICHARSET@2@PEBD1@Z = @ILT+97550(?acceptable_word_string@Tesseract@tesseract@@QEAA?AW4ACCEPTABLE_WERD_TYPE@@AEBVUNICHARSET@2@PEBD1@Z)
       1890  761 00002900 ?add@LLSQ@tesseract@@QEAAXAEBV12@@Z = @ILT+6395(?add@LLSQ@tesseract@@QEAAXAEBV12@@Z)
       1891  762 00002095 ?add@LLSQ@tesseract@@QEAAXNN@Z = @ILT+4240(?add@LLSQ@tesseract@@QEAAXNN@Z)
       1892  763 0001A500 ?add@LLSQ@tesseract@@QEAAXNNN@Z = @ILT+103675(?add@LLSQ@tesseract@@QEAAXNNN@Z)
       1893  764 0001C936 ?add@STATS@tesseract@@QEAAXHH@Z = @ILT+112945(?add@STATS@tesseract@@QEAAXHH@Z)
       1894  765 0001364C ?add_after_stay_put@CLIST_ITERATOR@tesseract@@QEAAXPEAX@Z = @ILT+75335(?add_after_stay_put@CLIST_ITERATOR@tesseract@@QEAAXPEAX@Z)
       1895  766 0000F849 ?add_after_stay_put@ELIST2_ITERATOR@tesseract@@QEAAXPEAVELIST2_LINK@2@@Z = @ILT+59460(?add_after_stay_put@ELIST2_ITERATOR@tesseract@@QEAAXPEAVELIST2_LINK@2@@Z)
       1896  767 000185CF ?add_after_stay_put@ELIST_ITERATOR@tesseract@@QEAAXPEAVELIST_LINK@2@@Z = @ILT+95690(?add_after_stay_put@ELIST_ITERATOR@tesseract@@QEAAXPEAVELIST_LINK@2@@Z)
       1897  768 00005786 ?add_after_then_move@CLIST_ITERATOR@tesseract@@QEAAXPEAX@Z = @ILT+18305(?add_after_then_move@CLIST_ITERATOR@tesseract@@QEAAXPEAX@Z)
       1898  769 0000209F ?add_after_then_move@ELIST2_ITERATOR@tesseract@@QEAAXPEAVELIST2_LINK@2@@Z = @ILT+4250(?add_after_then_move@ELIST2_ITERATOR@tesseract@@QEAAXPEAVELIST2_LINK@2@@Z)
       1899  76A 00013854 ?add_after_then_move@ELIST_ITERATOR@tesseract@@QEAAXPEAVELIST_LINK@2@@Z = @ILT+75855(?add_after_then_move@ELIST_ITERATOR@tesseract@@QEAAXPEAVELIST_LINK@2@@Z)
       1900  76B 00008616 ?add_before_stay_put@CLIST_ITERATOR@tesseract@@QEAAXPEAX@Z = @ILT+30225(?add_before_stay_put@CLIST_ITERATOR@tesseract@@QEAAXPEAX@Z)
       1901  76C 00008B7F ?add_before_stay_put@ELIST2_ITERATOR@tesseract@@QEAAXPEAVELIST2_LINK@2@@Z = @ILT+31610(?add_before_stay_put@ELIST2_ITERATOR@tesseract@@QEAAXPEAVELIST2_LINK@2@@Z)
       1902  76D 00016CB1 ?add_before_stay_put@ELIST_ITERATOR@tesseract@@QEAAXPEAVELIST_LINK@2@@Z = @ILT+89260(?add_before_stay_put@ELIST_ITERATOR@tesseract@@QEAAXPEAVELIST_LINK@2@@Z)
       1903  76E 00001258 ?add_before_then_move@CLIST_ITERATOR@tesseract@@QEAAXPEAX@Z = @ILT+595(?add_before_then_move@CLIST_ITERATOR@tesseract@@QEAAXPEAX@Z)
       1904  76F 000036A2 ?add_before_then_move@ELIST2_ITERATOR@tesseract@@QEAAXPEAVELIST2_LINK@2@@Z = @ILT+9885(?add_before_then_move@ELIST2_ITERATOR@tesseract@@QEAAXPEAVELIST2_LINK@2@@Z)
       1905  770 000117AC ?add_before_then_move@ELIST_ITERATOR@tesseract@@QEAAXPEAVELIST_LINK@2@@Z = @ILT+67495(?add_before_then_move@ELIST_ITERATOR@tesseract@@QEAAXPEAVELIST_LINK@2@@Z)
       1906  771 00015591 ?add_document_word@Dict@tesseract@@QEAAXAEBVWERD_CHOICE@2@@Z = @ILT+83340(?add_document_word@Dict@tesseract@@QEAAXAEBVWERD_CHOICE@2@@Z)
       1907  772 0001115D ?add_edge_linkage@Trie@tesseract@@IEAA_N_J0_NH1H@Z = @ILT+65880(?add_edge_linkage@Trie@tesseract@@IEAA_N_J0_NH1H@Z)
       1908  773 00008256 ?add_list_after@CLIST_ITERATOR@tesseract@@QEAAXPEAVCLIST@2@@Z = @ILT+29265(?add_list_after@CLIST_ITERATOR@tesseract@@QEAAXPEAVCLIST@2@@Z)
       1909  774 0001640F ?add_list_after@ELIST2_ITERATOR@tesseract@@QEAAXPEAVELIST2@2@@Z = @ILT+87050(?add_list_after@ELIST2_ITERATOR@tesseract@@QEAAXPEAVELIST2@2@@Z)
       1910  775 00013F75 ?add_list_after@ELIST_ITERATOR@tesseract@@QEAAXPEAVELIST@2@@Z = @ILT+77680(?add_list_after@ELIST_ITERATOR@tesseract@@QEAAXPEAVELIST@2@@Z)
       1911  776 00005565 ?add_list_before@CLIST_ITERATOR@tesseract@@QEAAXPEAVCLIST@2@@Z = @ILT+17760(?add_list_before@CLIST_ITERATOR@tesseract@@QEAAXPEAVCLIST@2@@Z)
       1912  777 00006631 ?add_list_before@ELIST2_ITERATOR@tesseract@@QEAAXPEAVELIST2@2@@Z = @ILT+22060(?add_list_before@ELIST2_ITERATOR@tesseract@@QEAAXPEAVELIST2@2@@Z)
       1913  778 0001BEF5 ?add_list_before@ELIST_ITERATOR@tesseract@@QEAAXPEAVELIST@2@@Z = @ILT+110320(?add_list_before@ELIST_ITERATOR@tesseract@@QEAAXPEAVELIST@2@@Z)
       1914  779 0001C120 ?add_new_edge@Trie@tesseract@@IEAA_N_J0_N1H@Z = @ILT+110875(?add_new_edge@Trie@tesseract@@IEAA_N_J0_N1H@Z)
       1915  77A 0001BA6D ?add_point_to_list@Wordrec@tesseract@@QEAAXPEAV?$GenericHeap@U?$KDPairInc@MPEAUEDGEPT@tesseract@@@tesseract@@@2@PEAUEDGEPT@2@@Z = @ILT+109160(?add_point_to_list@Wordrec@tesseract@@QEAAXPEAV?$GenericHeap@U?$KDPairInc@MPEAUEDGEPT@tesseract@@@tesseract@@@2@PEAUEDGEPT@2@@Z)
       1916  77B 00002EB9 ?add_script@UNICHARSET@tesseract@@QEAAHPEBD@Z = @ILT+7860(?add_script@UNICHARSET@tesseract@@QEAAHPEBD@Z)
       1917  77C 0000E4DA ?add_seam_to_queue@Wordrec@tesseract@@QEAAXMPEAVSEAM@2@PEAV?$GenericHeap@U?$KDPtrPairInc@MVSEAM@tesseract@@@tesseract@@@2@@Z = @ILT+54485(?add_seam_to_queue@Wordrec@tesseract@@QEAAXMPEAVSEAM@2@PEAV?$GenericHeap@U?$KDPtrPairInc@MVSEAM@tesseract@@@tesseract@@@2@@Z)
       1918  77D 00002EF0 ?add_sorted@CLIST@tesseract@@QEAA_NP6AHPEBX0@Z_NPEAX@Z = @ILT+7915(?add_sorted@CLIST@tesseract@@QEAA_NP6AHPEBX0@Z_NPEAX@Z)
       1919  77E 00014A2E ?add_sorted@ELIST2@tesseract@@QEAAXP6AHPEBX0@ZPEAVELIST2_LINK@2@@Z = @ILT+80425(?add_sorted@ELIST2@tesseract@@QEAAXP6AHPEBX0@ZPEAVELIST2_LINK@2@@Z)
       1920  77F 00019993 ?add_sorted@ELIST@tesseract@@QEAA_NP6AHPEBX0@Z_NPEAVELIST_LINK@2@@Z = @ILT+100750(?add_sorted@ELIST@tesseract@@QEAA_NP6AHPEBX0@Z_NPEAVELIST_LINK@2@@Z)
       1921  780 000037E2 ?add_sorted_and_find@ELIST@tesseract@@QEAAPEAVELIST_LINK@2@P6AHPEBX0@Z_NPEAV32@@Z = @ILT+10205(?add_sorted_and_find@ELIST@tesseract@@QEAAPEAVELIST_LINK@2@P6AHPEBX0@Z_NPEAV32@@Z)
       1922  781 0001817E ?add_to_end@CLIST_ITERATOR@tesseract@@QEAAXPEAX@Z = @ILT+94585(?add_to_end@CLIST_ITERATOR@tesseract@@QEAAXPEAX@Z)
       1923  782 00007941 ?add_to_end@ELIST2_ITERATOR@tesseract@@QEAAXPEAVELIST2_LINK@2@@Z = @ILT+26940(?add_to_end@ELIST2_ITERATOR@tesseract@@QEAAXPEAVELIST2_LINK@2@@Z)
       1924  783 00002BFD ?add_to_end@ELIST_ITERATOR@tesseract@@QEAAXPEAVELIST_LINK@2@@Z = @ILT+7160(?add_to_end@ELIST_ITERATOR@tesseract@@QEAAXPEAVELIST_LINK@2@@Z)
       1925  784 000188F4 ?add_word_ending@Trie@tesseract@@IEAAXPEA_K_J_NH@Z = @ILT+96495(?add_word_ending@Trie@tesseract@@IEAAXPEA_K_J_NH@Z)
       1926  785 000161F8 ?add_word_list@Trie@tesseract@@QEAA_NAEBV?$vector@V?$basic_string@DU?$char_traits@D@std@@V?$allocator@D@2@@std@@V?$allocator@V?$basic_string@DU?$char_traits@D@std@@V?$allocator@D@2@@std@@@2@@std@@AEBVUNICHARSET@2@W4RTLReversePolicy@12@@Z = @ILT+86515(?add_word_list@Trie@tesseract@@QEAA_NAEBV?$vector@V?$basic_string@DU?$char_traits@D@std@@V?$allocator@D@2@@std@@V?$allocator@V?$basic_string@DU?$char_traits@D@std@@V?$allocator@D@2@@std@@@2@@std@@AEBVUNICHARSET@2@W4RTLReversePolicy@12@@Z)
       1927  786 0000ED45 ?add_word_to_dawg@Trie@tesseract@@QEAA_NAEBVWERD_CHOICE@2@@Z = @ILT+56640(?add_word_to_dawg@Trie@tesseract@@QEAA_NAEBVWERD_CHOICE@2@@Z)
       1928  787 000133C7 ?add_word_to_dawg@Trie@tesseract@@QEAA_NAEBVWERD_CHOICE@2@PEBV?$vector@_NV?$allocator@_N@std@@@std@@@Z = @ILT+74690(?add_word_to_dawg@Trie@tesseract@@QEAA_NAEBVWERD_CHOICE@2@PEBV?$vector@_NV?$allocator@_N@std@@@std@@@Z)
       1929  788 0000A902 ?adjust_factor@WERD_CHOICE@tesseract@@QEBAMXZ = @ILT+39165(?adjust_factor@WERD_CHOICE@tesseract@@QEBAMXZ)
       1930  789 000058B7 ?adjust_word@Dict@tesseract@@QEAAXPEAVWERD_CHOICE@2@_NW4XHeightConsistencyEnum@2@M11@Z = @ILT+18610(?adjust_word@Dict@tesseract@@QEAAXPEAVWERD_CHOICE@2@_NW4XHeightConsistencyEnum@2@M11@Z)
       1931  78A 000136F1 ?almost_equal@TBOX@tesseract@@QEBA_NAEBV12@H@Z = @ILT+75500(?almost_equal@TBOX@tesseract@@QEBA_NAEBV12@H@Z)
       1932  78B 00008607 ?alpha_count@Tesseract@tesseract@@QEAAFPEBD0@Z = @ILT+30210(?alpha_count@Tesseract@tesseract@@QEAAFPEBD0@Z)
       1933  78C 00007AB8 ?ambigs_classify_and_output@Tesseract@tesseract@@QEAAXPEBDPEAVPAGE_RES_IT@2@PEAU_iobuf@@@Z = @ILT+27315(?ambigs_classify_and_output@Tesseract@tesseract@@QEAAXPEBDPEAVPAGE_RES_IT@2@PEAU_iobuf@@@Z)
       1934  78D 00015041 ?angle@FCOORD@tesseract@@QEBAMXZ = @ILT+81980(?angle@FCOORD@tesseract@@QEBAMXZ)
       1935  78E 00017DDC ?angle_change@Wordrec@tesseract@@QEAAHPEAUEDGEPT@2@00@Z = @ILT+93655(?angle_change@Wordrec@tesseract@@QEAAHPEAUEDGEPT@2@00@Z)
       1936  78F 0000BDE8 ?angle_from_direction@FCOORD@tesseract@@SANE@Z = @ILT+44515(?angle_from_direction@FCOORD@tesseract@@SANE@Z)
       1937  790 0000CF13 ?append_choices@Dict@tesseract@@QEAAXPEBDAEBV?$vector@PEAVBLOB_CHOICE_LIST@tesseract@@V?$allocator@PEAVBLOB_CHOICE_LIST@tesseract@@@std@@@std@@AEBVBLOB_CHOICE@2@HPEBUCHAR_FRAGMENT_INFO@2@PEAVWERD_CHOICE@2@QEAMPEAM4PEAHPEAX@Z = @ILT+48910(?append_choices@Dict@tesseract@@QEAAXPEBDAEBV?$vector@PEAVBLOB_CHOICE_LIST@tesseract@@V?$allocator@PEAVBLOB_CHOICE_LIST@tesseract@@@std@@@std@@AEBVBLOB_CHOICE@2@HPEBUCHAR_FRAGMENT_INFO@2@PEAVWERD_CHOICE@2@QEAMPEAM4PEAHPEAX@Z)
       1938  791 0001A325 ?append_unichar_id@WERD_CHOICE@tesseract@@QEAAXHHMM@Z = @ILT+103200(?append_unichar_id@WERD_CHOICE@tesseract@@QEAAXHHMM@Z)
       1939  792 0001B3B0 ?append_unichar_id_space_allocated@WERD_CHOICE@tesseract@@QEAAXHHMM@Z = @ILT+107435(?append_unichar_id_space_allocated@WERD_CHOICE@tesseract@@QEAAXHHMM@Z)
       1940  793 000035E9 ?area@C_BLOB@tesseract@@QEAAHXZ = @ILT+9700(?area@C_BLOB@tesseract@@QEAAHXZ)
       1941  794 00008F8A ?area@TBOX@tesseract@@QEBAHXZ = @ILT+32645(?area@TBOX@tesseract@@QEBAHXZ)
       1942  795 0001BA90 ?assign_to_sublist@CLIST@tesseract@@QEAAXPEAVCLIST_ITERATOR@2@0@Z = @ILT+109195(?assign_to_sublist@CLIST@tesseract@@QEAAXPEAVCLIST_ITERATOR@2@0@Z)
       1943  796 0000E1A1 ?assign_to_sublist@ELIST2@tesseract@@QEAAXPEAVELIST2_ITERATOR@2@0@Z = @ILT+53660(?assign_to_sublist@ELIST2@tesseract@@QEAAXPEAVELIST2_ITERATOR@2@0@Z)
       1944  797 00018DE5 ?assign_to_sublist@ELIST@tesseract@@QEAAXPEAVELIST_ITERATOR@2@0@Z = @ILT+97760(?assign_to_sublist@ELIST@tesseract@@QEAAXPEAVELIST_ITERATOR@2@0@Z)
       1945  798 000093EA ?at_first@CLIST_ITERATOR@tesseract@@QEBA_NXZ = @ILT+33765(?at_first@CLIST_ITERATOR@tesseract@@QEBA_NXZ)
       1946  799 00015866 ?at_first@ELIST2_ITERATOR@tesseract@@QEBA_NXZ = @ILT+84065(?at_first@ELIST2_ITERATOR@tesseract@@QEBA_NXZ)
       1947  79A 0001B1E4 ?at_first@ELIST_ITERATOR@tesseract@@QEBA_NXZ = @ILT+106975(?at_first@ELIST_ITERATOR@tesseract@@QEBA_NXZ)
       1948  79B 00013EAD ?at_last@CLIST_ITERATOR@tesseract@@QEBA_NXZ = @ILT+77480(?at_last@CLIST_ITERATOR@tesseract@@QEBA_NXZ)
       1949  79C 0001B068 ?at_last@ELIST2_ITERATOR@tesseract@@QEBA_NXZ = @ILT+106595(?at_last@ELIST2_ITERATOR@tesseract@@QEBA_NXZ)
       1950  79D 000164AA ?at_last@ELIST_ITERATOR@tesseract@@QEBA_NXZ = @ILT+87205(?at_last@ELIST_ITERATOR@tesseract@@QEBA_NXZ)
       1951  79E 000042AA ?attempt_blob_chop@Wordrec@tesseract@@QEAAPEAVSEAM@2@PEAUTWERD@2@PEAUTBLOB@2@H_NAEBV?$vector@PEAVSEAM@tesseract@@V?$allocator@PEAVSEAM@tesseract@@@std@@@std@@@Z = @ILT+12965(?attempt_blob_chop@Wordrec@tesseract@@QEAAPEAVSEAM@2@PEAUTWERD@2@PEAUTBLOB@2@H_NAEBV?$vector@PEAVSEAM@tesseract@@V?$allocator@PEAVSEAM@tesseract@@@std@@@std@@@Z)
       1952  79F 00D59D29 ?avx2_available_@SIMDDetect@tesseract@@0_NA = ?avx2_available_@SIMDDetect@tesseract@@0_NA (private: static bool tesseract::SIMDDetect::avx2_available_)
       1953  7A0 00D59D2B ?avx512BW_available_@SIMDDetect@tesseract@@0_NA = ?avx512BW_available_@SIMDDetect@tesseract@@0_NA (private: static bool tesseract::SIMDDetect::avx512BW_available_)
       1954  7A1 00D59D2A ?avx512F_available_@SIMDDetect@tesseract@@0_NA = ?avx512F_available_@SIMDDetect@tesseract@@0_NA (private: static bool tesseract::SIMDDetect::avx512F_available_)
       1955  7A2 00D59D28 ?avx_available_@SIMDDetect@tesseract@@0_NA = ?avx_available_@SIMDDetect@tesseract@@0_NA (private: static bool tesseract::SIMDDetect::avx_available_)
       1956  7A3 0000530D ?backward@ELIST2_ITERATOR@tesseract@@QEAAPEAVELIST2_LINK@2@XZ = @ILT+17160(?backward@ELIST2_ITERATOR@tesseract@@QEAAPEAVELIST2_LINK@2@XZ)
       1957  7A4 0000BFA5 ?backward_edge@SquishedDawg@tesseract@@AEBA_N_J@Z = @ILT+44960(?backward_edge@SquishedDawg@tesseract@@AEBA_N_J@Z)
       1958  7A5 0000F83F ?begin@UNICHAR@tesseract@@SA?AVconst_iterator@12@PEBDH@Z = @ILT+59450(?begin@UNICHAR@tesseract@@SA?AVconst_iterator@12@PEBDH@Z)
       1959  7A6 0000CEFA ?bigram_correction_pass@Tesseract@tesseract@@QEAAXPEAVPAGE_RES@2@@Z = @ILT+48885(?bigram_correction_pass@Tesseract@tesseract@@QEAAXPEAVPAGE_RES@2@@Z)
       1960  7A7 0000EEA8 ?binary_angle_plus_pi@FCOORD@tesseract@@SAEN@Z = @ILT+56995(?binary_angle_plus_pi@FCOORD@tesseract@@SAEN@Z)
       1961  7A8 00009926 ?blamer_pass@Tesseract@tesseract@@QEAAXPEAVPAGE_RES@2@@Z = @ILT+35105(?blamer_pass@Tesseract@tesseract@@QEAAXPEAVPAGE_RES@2@@Z)
       1962  7A9 0001845D ?bleft@GridBase@tesseract@@QEBAAEBVICOORD@2@XZ = @ILT+95320(?bleft@GridBase@tesseract@@QEBAAEBVICOORD@2@XZ)
       1963  7AA 00016E73 ?bleft@TableFinder@tesseract@@IEBAAEBVICOORD@2@XZ = @ILT+89710(?bleft@TableFinder@tesseract@@IEBAAEBVICOORD@2@XZ)
       1964  7AB 0000BE6F ?blob_choices@WERD_CHOICE@tesseract@@QEBAPEAVBLOB_CHOICE_LIST@2@HPEAVMATRIX@2@@Z = @ILT+44650(?blob_choices@WERD_CHOICE@tesseract@@QEBAPEAVBLOB_CHOICE_LIST@2@HPEAVMATRIX@2@@Z)
       1965  7AC 0000AD4E ?blob_feature_display@Tesseract@tesseract@@QEAAXPEAVPAGE_RES@2@AEBVTBOX@2@@Z = @ILT+40265(?blob_feature_display@Tesseract@tesseract@@QEAAXPEAVPAGE_RES@2@AEBVTBOX@2@@Z)
       1966  7AD 000029AF ?blob_list@BLOCK@tesseract@@QEAAPEAVC_BLOB_LIST@2@XZ = @ILT+6570(?blob_list@BLOCK@tesseract@@QEAAPEAVC_BLOB_LIST@2@XZ)
       1967  7AE 00005344 ?blob_noise_score@Tesseract@tesseract@@QEAAMPEAUTBLOB@2@@Z = @ILT+17215(?blob_noise_score@Tesseract@tesseract@@QEAAMPEAUTBLOB@2@@Z)
       1968  7AF 0000FF01 ?blob_type@ColPartition@tesseract@@QEBA?AW4BlobRegionType@2@XZ = @ILT+61180(?blob_type@ColPartition@tesseract@@QEBA?AW4BlobRegionType@2@XZ)
       1969  7B0 0001520D ?block@DENORM@tesseract@@QEBAPEBVBLOCK@2@XZ = @ILT+82440(?block@DENORM@tesseract@@QEBAPEBVBLOCK@2@XZ)
       1970  7B1 0000451B ?block@PAGE_RES_IT@tesseract@@QEBAPEAVBLOCK_RES@2@XZ = @ILT+13590(?block@PAGE_RES_IT@tesseract@@QEBAPEAVBLOCK_RES@2@XZ)
       1971  7B2 00008B0C ?block_owned@ColPartition@tesseract@@QEBA_NXZ = @ILT+31495(?block_owned@ColPartition@tesseract@@QEBA_NXZ)
       1972  7B3 00D579C0 ?blocks_win_@ColumnFinder@tesseract@@0PEAVScrollView@2@EA = ?blocks_win_@ColumnFinder@tesseract@@0PEAVScrollView@2@EA (private: static class tesseract::ScrollView * tesseract::ColumnFinder::blocks_win_)
       1973  7B4 00004AE8 ?body_indent@ParagraphModel@tesseract@@QEBAHXZ = @ILT+15075(?body_indent@ParagraphModel@tesseract@@QEBAHXZ)
       1974  7B5 000078FB ?botleft@TBOX@tesseract@@QEBAAEBVICOORD@2@XZ = @ILT+26870(?botleft@TBOX@tesseract@@QEBAAEBVICOORD@2@XZ)
       1975  7B6 00007068 ?botright@TBOX@tesseract@@QEBA?AVICOORD@2@XZ = @ILT+24675(?botright@TBOX@tesseract@@QEBA?AVICOORD@2@XZ)
       1976  7B7 0000D454 ?bottom@TBOX@tesseract@@QEBAFXZ = @ILT+50255(?bottom@TBOX@tesseract@@QEBAFXZ)
       1977  7B8 00004043 ?bottom_spacing@ColPartition@tesseract@@QEBAHXZ = @ILT+12350(?bottom_spacing@ColPartition@tesseract@@QEBAHXZ)
       1978  7B9 000101B8 ?bounding_box@C_BLOB@tesseract@@QEBA?AVTBOX@2@XZ = @ILT+61875(?bounding_box@C_BLOB@tesseract@@QEBA?AVTBOX@2@XZ)
       1979  7BA 0001497A ?bounding_box@ColPartition@tesseract@@QEBAAEBVTBOX@2@XZ = @ILT+80245(?bounding_box@ColPartition@tesseract@@QEBAAEBVTBOX@2@XZ)
       1980  7BB 00010E3D ?bounding_box@POLY_BLOCK@tesseract@@QEAAPEAVTBOX@2@XZ = @ILT+65080(?bounding_box@POLY_BLOCK@tesseract@@QEAAPEAVTBOX@2@XZ)
       1981  7BC 000049E9 ?bounding_box@StructuredTable@tesseract@@QEBAAEBVTBOX@2@XZ = @ILT+14820(?bounding_box@StructuredTable@tesseract@@QEBAAEBVTBOX@2@XZ)
       1982  7BD 00015B2C ?bounding_box@TrainingSample@tesseract@@QEBAAEBVTBOX@2@XZ = @ILT+84775(?bounding_box@TrainingSample@tesseract@@QEBAAEBVTBOX@2@XZ)
       1983  7BE 00005FB5 ?bounding_box@WERD@tesseract@@QEBA?AVTBOX@2@XZ = @ILT+20400(?bounding_box@WERD@tesseract@@QEBA?AVTBOX@2@XZ)
       1984  7BF 0000F286 ?bounding_union@TBOX@tesseract@@QEBA?AV12@AEBV12@@Z = @ILT+57985(?bounding_union@TBOX@tesseract@@QEBA?AV12@AEBV12@@Z)
       1985  7C0 00017062 ?box_text@ImageData@tesseract@@QEBAAEBV?$basic_string@DU?$char_traits@D@std@@V?$allocator@D@2@@std@@H@Z = @ILT+90205(?box_text@ImageData@tesseract@@QEBAAEBV?$basic_string@DU?$char_traits@D@std@@V?$allocator@D@2@@std@@H@Z)
       1986  7C1 0000403E ?box_texts@ImageData@tesseract@@QEBAAEBV?$vector@V?$basic_string@DU?$char_traits@D@std@@V?$allocator@D@2@@std@@V?$allocator@V?$basic_string@DU?$char_traits@D@std@@V?$allocator@D@2@@std@@@2@@std@@XZ = @ILT+12345(?box_texts@ImageData@tesseract@@QEBAAEBV?$vector@V?$basic_string@DU?$char_traits@D@std@@V?$allocator@D@2@@std@@V?$allocator@V?$basic_string@DU?$char_traits@D@std@@V?$allocator@D@2@@std@@@2@@std@@XZ)
       1987  7C2 00009D68 ?boxes@ColPartition@tesseract@@QEAAPEAVBLOBNBOX_CLIST@2@XZ = @ILT+36195(?boxes@ColPartition@tesseract@@QEAAPEAVBLOBNBOX_CLIST@2@XZ)
       1988  7C3 00007617 ?boxes@ImageData@tesseract@@QEBAAEBV?$vector@VTBOX@tesseract@@V?$allocator@VTBOX@tesseract@@@std@@@std@@XZ = @ILT+26130(?boxes@ImageData@tesseract@@QEBAAEBV?$vector@VTBOX@tesseract@@V?$allocator@VTBOX@tesseract@@@std@@@std@@XZ)
       1989  7C4 000080CB ?boxes_count@ColPartition@tesseract@@QEBAHXZ = @ILT+28870(?boxes_count@ColPartition@tesseract@@QEBAHXZ)
       1990  7C5 0001BEBE ?break_noisiest_blob_word@Tesseract@tesseract@@QEAAXAEAVWERD_RES_LIST@2@@Z = @ILT+110265(?break_noisiest_blob_word@Tesseract@tesseract@@QEAAXAEAVWERD_RES_LIST@2@@Z)
       1991  7C6 00018679 ?build_menu_new@Tesseract@tesseract@@QEAAPEAVSVMenuNode@2@XZ = @ILT+95860(?build_menu_new@Tesseract@tesseract@@QEAAPEAVSVMenuNode@2@XZ)
       1992  7C7 00003625 ?build_node_map@SquishedDawg@tesseract@@AEBA?AV?$unique_ptr@$$BY0A@_JU?$default_delete@$$BY0A@_J@std@@@std@@PEAH@Z = @ILT+9760(?build_node_map@SquishedDawg@tesseract@@AEBA?AV?$unique_ptr@$$BY0A@_JU?$default_delete@$$BY0A@_J@std@@@std@@PEAH@Z)
       1993  7C8 0000D4A4 ?c@LLSQ@tesseract@@QEBANN@Z = @ILT+50335(?c@LLSQ@tesseract@@QEBANN@Z)
       1994  7C9 000112B6 ?calculateCharBoundaries@RecodeBeamSearch@tesseract@@CAXPEAV?$vector@HV?$allocator@H@std@@@std@@00H@Z = @ILT+66225(?calculateCharBoundaries@RecodeBeamSearch@tesseract@@CAXPEAV?$vector@HV?$allocator@H@std@@@std@@00H@Z)
       1995  7CA 00009C73 ?call_matcher@Wordrec@tesseract@@QEAAPEAVBLOB_CHOICE_LIST@2@PEAUTBLOB@2@@Z = @ILT+35950(?call_matcher@Wordrec@tesseract@@QEAAPEAVBLOB_CHOICE_LIST@2@PEAUTBLOB@2@@Z)
       1996  7CB 0001BD06 ?can_be_eliminated@Trie@tesseract@@IEAA_NAEB_K@Z = @ILT+109825(?can_be_eliminated@Trie@tesseract@@IEAA_NAEB_K@Z)
       1997  7CC 000122E7 ?case_ok@Dict@tesseract@@QEBAHAEBVWERD_CHOICE@2@@Z = @ILT+70370(?case_ok@Dict@tesseract@@QEBAHAEBVWERD_CHOICE@2@@Z)
       1998  7CD 0000FF6A ?cblob_list@WERD@tesseract@@QEAAPEAVC_BLOB_LIST@2@XZ = @ILT+61285(?cblob_list@WERD@tesseract@@QEAAPEAVC_BLOB_LIST@2@XZ)
       1999  7CE 00001898 ?cc_recog@Wordrec@tesseract@@QEAAXPEAVWERD_RES@2@@Z = @ILT+2195(?cc_recog@Wordrec@tesseract@@QEAAXPEAVWERD_RES@2@@Z)
       2000  7CF 00012A12 ?cell_count@StructuredTable@tesseract@@QEBAHXZ = @ILT+72205(?cell_count@StructuredTable@tesseract@@QEBAHXZ)
       2001  7D0 00017E59 ?cell_over_xheight@BLOCK@tesseract@@QEBAMXZ = @ILT+93780(?cell_over_xheight@BLOCK@tesseract@@QEBAMXZ)
       2002  7D1 000188B8 ?certainty@WERD_CHOICE@tesseract@@QEBAMH@Z = @ILT+96435(?certainty@WERD_CHOICE@tesseract@@QEBAMH@Z)
       2003  7D2 0001D22D ?certainty@WERD_CHOICE@tesseract@@QEBAMXZ = @ILT+115240(?certainty@WERD_CHOICE@tesseract@@QEBAMXZ)
       2004  7D3 000052DB ?char_for_dawg@Dict@tesseract@@QEBAHAEBVUNICHARSET@2@HPEBVDawg@2@@Z = @ILT+17110(?char_for_dawg@Dict@tesseract@@QEBAHAEBVUNICHARSET@2@HPEBVDawg@2@@Z)
       2005  7D4 000153AC ?character_class_to_pattern@Trie@tesseract@@IEAAHD@Z = @ILT+82855(?character_class_to_pattern@Trie@tesseract@@IEAAHD@Z)
       2006  7D5 00008148 ?check_debug_pt@Tesseract@tesseract@@QEAA_NPEAVWERD_RES@2@H@Z = @ILT+28995(?check_debug_pt@Tesseract@tesseract@@QEAA_NPEAVWERD_RES@2@H@Z)
       2007  7D6 00010D66 ?check_for_words@Dawg@tesseract@@QEBAHPEBDAEBVUNICHARSET@2@_N@Z = @ILT+64865(?check_for_words@Dawg@tesseract@@QEBAHPEBDAEBVUNICHARSET@2@_N@Z)
       2008  7D7 00014402 ?check_pitch@BLOCK@tesseract@@QEAAXXZ = @ILT+78845(?check_pitch@BLOCK@tesseract@@QEAAXXZ)
       2009  7D8 0001164E ?choose_best_seam@Wordrec@tesseract@@QEAAXPEAV?$GenericHeap@U?$KDPtrPairInc@MVSEAM@tesseract@@@tesseract@@@2@PEBUSPLIT@2@MPEAPEAVSEAM@2@PEAUTBLOB@2@PEAV?$GenericHeap@U?$KDPtrPairDec@MVSEAM@tesseract@@@tesseract@@@2@@Z = @ILT+67145(?choose_best_seam@Wordrec@tesseract@@QEAAXPEAV?$GenericHeap@U?$KDPtrPairInc@MVSEAM@tesseract@@@tesseract@@@2@PEBUSPLIT@2@MPEAPEAVSEAM@2@PEAUTBLOB@2@PEAV?$GenericHeap@U?$KDPtrPairDec@MVSEAM@tesseract@@@tesseract@@@2@@Z)
       2010  7D9 00019EED ?chop_numbered_blob@Wordrec@tesseract@@QEAAPEAVSEAM@2@PEAUTWERD@2@H_NAEBV?$vector@PEAVSEAM@tesseract@@V?$allocator@PEAVSEAM@tesseract@@@std@@@std@@@Z = @ILT+102120(?chop_numbered_blob@Wordrec@tesseract@@QEAAPEAVSEAM@2@PEAUTWERD@2@H_NAEBV?$vector@PEAVSEAM@tesseract@@V?$allocator@PEAVSEAM@tesseract@@@std@@@std@@@Z)
       2011  7DA 0000C676 ?chop_one_blob@Wordrec@tesseract@@QEAAPEAVSEAM@2@AEBV?$vector@VTBOX@tesseract@@V?$allocator@VTBOX@tesseract@@@std@@@std@@AEBV?$vector@PEAVBLOB_CHOICE@tesseract@@V?$allocator@PEAVBLOB_CHOICE@tesseract@@@std@@@5@PEAVWERD_RES@2@PEAH@Z = @ILT+46705(?chop_one_blob@Wordrec@tesseract@@QEAAPEAVSEAM@2@AEBV?$vector@VTBOX@tesseract@@V?$allocator@VTBOX@tesseract@@@std@@@std@@AEBV?$vector@PEAVBLOB_CHOICE@tesseract@@V?$allocator@PEAVBLOB_CHOICE@tesseract@@@std@@@5@PEAVWERD_RES@2@PEAH@Z)
       2012  7DB 00007261 ?chop_overlapping_blob@Wordrec@tesseract@@QEAAPEAVSEAM@2@AEBV?$vector@VTBOX@tesseract@@V?$allocator@VTBOX@tesseract@@@std@@@std@@_NPEAVWERD_RES@2@PEAH@Z = @ILT+25180(?chop_overlapping_blob@Wordrec@tesseract@@QEAAPEAVSEAM@2@AEBV?$vector@VTBOX@tesseract@@V?$allocator@VTBOX@tesseract@@@std@@@std@@_NPEAVWERD_RES@2@PEAH@Z)
       2013  7DC 00006258 ?chop_word_main@Wordrec@tesseract@@QEAAXPEAVWERD_RES@2@@Z = @ILT+21075(?chop_word_main@Wordrec@tesseract@@QEAAXPEAVWERD_RES@2@@Z)
       2014  7DD 00003161 ?class_id@TrainingSample@tesseract@@QEBAHXZ = @ILT+8540(?class_id@TrainingSample@tesseract@@QEBAHXZ)
       2015  7DE 000041EC ?classify_blob@Wordrec@tesseract@@QEAAPEAVBLOB_CHOICE_LIST@2@PEAUTBLOB@2@PEBDW4Color@ScrollView@2@PEAUBlamerBundle@2@@Z = @ILT+12775(?classify_blob@Wordrec@tesseract@@QEAAPEAVBLOB_CHOICE_LIST@2@PEAUTBLOB@2@PEBDW4Color@ScrollView@2@PEAUBlamerBundle@2@@Z)
       2016  7DF 000033A5 ?classify_piece@Wordrec@tesseract@@UEAAPEAVBLOB_CHOICE_LIST@2@AEBV?$vector@PEAVSEAM@tesseract@@V?$allocator@PEAVSEAM@tesseract@@@std@@@std@@FFPEBDPEAUTWERD@2@PEAUBlamerBundle@2@@Z = @ILT+9120(?classify_piece@Wordrec@tesseract@@UEAAPEAVBLOB_CHOICE_LIST@2@AEBV?$vector@PEAVSEAM@tesseract@@V?$allocator@PEAVSEAM@tesseract@@@std@@@std@@FFPEBDPEAUTWERD@2@PEAUBlamerBundle@2@@Z)
       2017  7E0 00007A1D ?classify_rotation@BLOCK@tesseract@@QEBA?AVFCOORD@2@XZ = @ILT+27160(?classify_rotation@BLOCK@tesseract@@QEBA?AVFCOORD@2@XZ)
       2018  7E1 0001CDB4 ?classify_word_and_language@Tesseract@tesseract@@QEAAXHPEAVPAGE_RES_IT@2@PEAUWordData@2@@Z = @ILT+114095(?classify_word_and_language@Tesseract@tesseract@@QEAAXHPEAVPAGE_RES_IT@2@PEAUWordData@2@@Z)
       2019  7E2 00011D9C ?classify_word_pass1@Tesseract@tesseract@@QEAAXAEBUWordData@2@PEAPEAVWERD_RES@2@PEAV?$PointerVector@VWERD_RES@tesseract@@@2@@Z = @ILT+69015(?classify_word_pass1@Tesseract@tesseract@@QEAAXAEBUWordData@2@PEAPEAVWERD_RES@2@PEAV?$PointerVector@VWERD_RES@tesseract@@@2@@Z)
       2020  7E3 0001781E ?classify_word_pass2@Tesseract@tesseract@@QEAAXAEBUWordData@2@PEAPEAVWERD_RES@2@PEAV?$PointerVector@VWERD_RES@tesseract@@@2@@Z = @ILT+92185(?classify_word_pass2@Tesseract@tesseract@@QEAAXAEBUWordData@2@PEAPEAVWERD_RES@2@PEAV?$PointerVector@VWERD_RES@tesseract@@@2@@Z)
       2021  7E4 0000A3B7 ?clear@LLSQ@tesseract@@QEAAXXZ = @ILT+37810(?clear@LLSQ@tesseract@@QEAAXXZ)
       2022  7E5 00002171 ?clear@STATS@tesseract@@QEAAXXZ = @ILT+4460(?clear@STATS@tesseract@@QEAAXXZ)
       2023  7E6 00008463 ?clear@TO_BLOCK@tesseract@@QEAAXXZ = @ILT+29790(?clear@TO_BLOCK@tesseract@@QEAAXXZ)
       2024  7E7 00014579 ?clear@Trie@tesseract@@QEAAXXZ = @ILT+79220(?clear@Trie@tesseract@@QEAAXXZ)
       2025  7E8 000011A9 ?clear@UNICHARMAP@tesseract@@QEAAXXZ = @ILT+420(?clear@UNICHARMAP@tesseract@@QEAAXXZ)
       2026  7E9 000136AB ?clear@UNICHARSET@tesseract@@QEAAXXZ = @ILT+75430(?clear@UNICHARSET@tesseract@@QEAAXXZ)
       2027  7EA 00015ED8 ?clear_all_edges@SquishedDawg@tesseract@@AEAAXXZ = @ILT+85715(?clear_all_edges@SquishedDawg@tesseract@@AEAAXXZ)
       2028  7EB 00006F3C ?clear_marker_flag@SquishedDawg@tesseract@@AEAAX_J@Z = @ILT+24375(?clear_marker_flag@SquishedDawg@tesseract@@AEAAX_J@Z)
       2029  7EC 00010A37 ?clear_table_type@ColPartition@tesseract@@QEAAXXZ = @ILT+64050(?clear_table_type@ColPartition@tesseract@@QEAAXXZ)
       2030  7ED 000045ED ?clone@Image@tesseract@@QEBA?AV12@XZ = @ILT+13800(?clone@Image@tesseract@@QEBA?AV12@XZ)
       2031  7EE 0000C996 ?cluster@STATS@tesseract@@QEAAHMMMHPEAV12@@Z = @ILT+47505(?cluster@STATS@tesseract@@QEAAHMMMHPEAV12@@Z)
       2032  7EF 00008288 ?cmp@PAGE_RES_IT@tesseract@@QEBAHAEBV12@@Z = @ILT+29315(?cmp@PAGE_RES_IT@tesseract@@QEBAHAEBV12@@Z)
       2033  7F0 000158D4 ?cn_feature@TrainingSample@tesseract@@QEBAMH@Z = @ILT+84175(?cn_feature@TrainingSample@tesseract@@QEBAMH@Z)
       2034  7F1 00011D01 ?code_range@UnicharCompress@tesseract@@QEBAHXZ = @ILT+68860(?code_range@UnicharCompress@tesseract@@QEBAHXZ)
       2035  7F2 0001959C ?color1@ColPartition@tesseract@@QEAAPEAEXZ = @ILT+99735(?color1@ColPartition@tesseract@@QEAAPEAEXZ)
       2036  7F3 000098BD ?color2@ColPartition@tesseract@@QEAAPEAEXZ = @ILT+35000(?color2@ColPartition@tesseract@@QEAAPEAEXZ)
       2037  7F4 000146D7 ?column_count@StructuredTable@tesseract@@QEBAHXZ = @ILT+79570(?column_count@StructuredTable@tesseract@@QEBAHXZ)
       2038  7F5 0001734B ?column_set@ColPartition@tesseract@@QEBAPEAVColPartitionSet@2@XZ = @ILT+90950(?column_set@ColPartition@tesseract@@QEBAPEAVColPartitionSet@2@XZ)
       2039  7F6 0000BB9A ?column_width@StructuredTable@tesseract@@QEBAHH@Z = @ILT+43925(?column_width@StructuredTable@tesseract@@QEBAHH@Z)
       2040  7F7 00008A49 ?combineSegmentedTimesteps@RecodeBeamSearch@tesseract@@QEAA?AV?$vector@V?$vector@U?$pair@PEBDM@std@@V?$allocator@U?$pair@PEBDM@std@@@2@@std@@V?$allocator@V?$vector@U?$pair@PEBDM@std@@V?$allocator@U?$pair@PEBDM@std@@@2@@std@@@2@@std@@PEAV?$vector@V?$vector@V?$vector@U?$pair@PEBDM@std@@V?$allocator@U?$pair@PEBDM@std@@@2@@std@@V?$allocator@V?$vector@U?$pair@PEBDM@std@@V?$allocator@U?$pair@PEBDM@std@@@2@@std@@@2@@std@@V?$allocator@V?$vector@V?$vector@U?$pair@PEBDM@std@@V?$allocator@U?$pair@PEBDM@std@@@2@@std@@V?$allocator@V?$vector@U?$pair@PEBDM@std@@V?$allocator@U?$pair@PEBDM@std@@@2@@std@@@2@@std@@@2@@4@@Z = @ILT+31300(?combineSegmentedTimesteps@RecodeBeamSearch@tesseract@@QEAA?AV?$vector@V?$vector@U?$pair@PEBDM@std@@V?$allocator@U?$pair@PEBDM@std@@@2@@std@@V?$allocator@V?$vector@U?$pair@PEBDM@std@@V?$allocator@U?$pair@PEBDM@std@@@2@@std@@@2@@std@@PEAV?$vector@V?$vector@V?$vector@U?$pair@PEBDM@std@@V?$allocator@U?$pair@PEBDM@std@@@2@@std@@V?$allocator@V?$vector@U?$pair@PEBDM@std@@V?$allocator@U?$pair@PEBDM@std@@@2@@std@@@2@@std@@V?$allocator@V?$vector@V?$vector@U?$pair@PEBDM@std@@V?$allocator@U?$pair@PEBDM@std@@@2@@std@@V?$allocator@V?$vector@U?$pair@PEBDM@std@@V?$allocator@U?$pair@PEBDM@std@@@2@@std@@@2@@std@@@2@@4@@Z)
       2041  7F8 00013A98 ?combine_seam@Wordrec@tesseract@@QEAAXAEBV?$GenericHeap@U?$KDPtrPairDec@MVSEAM@tesseract@@@tesseract@@@2@PEBVSEAM@2@PEAV?$GenericHeap@U?$KDPtrPairInc@MVSEAM@tesseract@@@tesseract@@@2@@Z = @ILT+76435(?combine_seam@Wordrec@tesseract@@QEAAXAEBV?$GenericHeap@U?$KDPtrPairDec@MVSEAM@tesseract@@@tesseract@@@2@PEBVSEAM@2@PEAV?$GenericHeap@U?$KDPtrPairInc@MVSEAM@tesseract@@@tesseract@@@2@@Z)
       2042  7F9 0000FFE2 ?common_sid@UNICHARSET@tesseract@@QEBAHXZ = @ILT+61405(?common_sid@UNICHARSET@tesseract@@QEBAHXZ)
       2043  7FA 0000BE4C ?compound_marker@Dict@tesseract@@QEAA_NH@Z = @ILT+44615(?compound_marker@Dict@tesseract@@QEAA_NH@Z)
       2044  7FB 0000D53F ?compress@BLOCK@tesseract@@QEAAXVICOORD@2@@Z = @ILT+50490(?compress@BLOCK@tesseract@@QEAAXVICOORD@2@@Z)
       2045  7FC 00016C02 ?compress@BLOCK@tesseract@@QEAAXXZ = @ILT+89085(?compress@BLOCK@tesseract@@QEAAXXZ)
       2046  7FD 000062C1 ?compute_bb@POLY_BLOCK@tesseract@@QEAAXXZ = @ILT+21180(?compute_bb@POLY_BLOCK@tesseract@@QEAAXXZ)
       2047  7FE 00006474 ?compute_row_margins@BLOCK@tesseract@@QEAAXXZ = @ILT+21615(?compute_row_margins@BLOCK@tesseract@@QEAAXXZ)
       2048  7FF 0001C90E ?contains@POLY_BLOCK@tesseract@@QEAA_NPEAV12@@Z = @ILT+112905(?contains@POLY_BLOCK@tesseract@@QEAA_NPEAV12@@Z)
       2049  800 0001B185 ?contains@TBOX@tesseract@@QEBA_NAEBV12@@Z = @ILT+106880(?contains@TBOX@tesseract@@QEBA_NAEBV12@@Z)
       2050  801 00010276 ?contains@TBOX@tesseract@@QEBA_NVFCOORD@2@@Z = @ILT+62065(?contains@TBOX@tesseract@@QEBA_NVFCOORD@2@@Z)
       2051  802 00019D12 ?contains@UNICHARMAP@tesseract@@QEBA_NQEBDH@Z = @ILT+101645(?contains@UNICHARMAP@tesseract@@QEBA_NQEBDH@Z)
       2052  803 0000EA57 ?contains_unichar@UNICHARSET@tesseract@@QEBA_NQEBD@Z = @ILT+55890(?contains_unichar@UNICHARSET@tesseract@@QEBA_NQEBD@Z)
       2053  804 0001A8BB ?contains_unichar@UNICHARSET@tesseract@@QEBA_NQEBDH@Z = @ILT+104630(?contains_unichar@UNICHARSET@tesseract@@QEBA_NQEBDH@Z)
       2054  805 0000C82E ?contains_unichar_id@UNICHARSET@tesseract@@QEBA_NH@Z = @ILT+47145(?contains_unichar_id@UNICHARSET@tesseract@@QEBA_NH@Z)
       2055  806 00015802 ?contains_unichar_id@WERD_CHOICE@tesseract@@QEBA_NH@Z = @ILT+83965(?contains_unichar_id@WERD_CHOICE@tesseract@@QEBA_NH@Z)
       2056  807 0000764E ?convert_bad_unlv_chs@Tesseract@tesseract@@QEAAXPEAVWERD_RES@2@@Z = @ILT+26185(?convert_bad_unlv_chs@Tesseract@tesseract@@QEAAXPEAVWERD_RES@2@@Z)
       2057  808 0000F9A7 ?copy@Image@tesseract@@QEBA?AV12@XZ = @ILT+59810(?copy@Image@tesseract@@QEBA?AV12@XZ)
       2058  809 00003198 ?copy_hyphen_info@Dict@tesseract@@QEBAXPEAVWERD_CHOICE@2@@Z = @ILT+8595(?copy_hyphen_info@Dict@tesseract@@QEBAXPEAVWERD_CHOICE@2@@Z)
       2059  80A 0001297C ?copy_on@WERD@tesseract@@QEAAXPEAV12@@Z = @ILT+72055(?copy_on@WERD@tesseract@@QEAAXPEAV12@@Z)
       2060  80B 0000B2A8 ?copy_on@WERD_RES@tesseract@@QEAAXPEAV12@@Z = @ILT+41635(?copy_on@WERD_RES@tesseract@@QEAAXPEAV12@@Z)
       2061  80C 0001221A ?count@LLSQ@tesseract@@QEBAHXZ = @ILT+70165(?count@LLSQ@tesseract@@QEBAHXZ)
       2062  80D 000072FC ?count_alphanums@Tesseract@tesseract@@QEAAFAEBVWERD_CHOICE@2@@Z = @ILT+25335(?count_alphanums@Tesseract@tesseract@@QEAAFAEBVWERD_CHOICE@2@@Z)
       2063  80E 0001A866 ?count_alphanums@Tesseract@tesseract@@QEAAFPEAVWERD_RES@2@@Z = @ILT+104545(?count_alphanums@Tesseract@tesseract@@QEAAFPEAVWERD_RES@2@@Z)
       2064  80F 0001886D ?count_alphas@Tesseract@tesseract@@QEAAFAEBVWERD_CHOICE@2@@Z = @ILT+96360(?count_alphas@Tesseract@tesseract@@QEAAFAEBVWERD_CHOICE@2@@Z)
       2065  810 00001BDB ?count_outline_errs@Tesseract@tesseract@@QEAAFDF@Z = @ILT+3030(?count_outline_errs@Tesseract@tesseract@@QEAAFDF@Z)
       2066  811 000172CE ?count_transitions@C_BLOB@tesseract@@QEAAHH@Z = @ILT+90825(?count_transitions@C_BLOB@tesseract@@QEAAHH@Z)
       2067  812 0000E3CC ?covariance@LLSQ@tesseract@@QEBANXZ = @ILT+54215(?covariance@LLSQ@tesseract@@QEBANXZ)
       2068  813 00011397 ?current_extracted@CLIST_ITERATOR@tesseract@@QEBA_NXZ = @ILT+66450(?current_extracted@CLIST_ITERATOR@tesseract@@QEBA_NXZ)
       2069  814 00018174 ?current_extracted@ELIST2_ITERATOR@tesseract@@QEBA_NXZ = @ILT+94575(?current_extracted@ELIST2_ITERATOR@tesseract@@QEBA_NXZ)
       2070  815 00001F46 ?current_extracted@ELIST_ITERATOR@tesseract@@QEBA_NXZ = @ILT+3905(?current_extracted@ELIST_ITERATOR@tesseract@@QEBA_NXZ)
       2071  816 0000EA07 ?cycled_list@CLIST_ITERATOR@tesseract@@QEBA_NXZ = @ILT+55810(?cycled_list@CLIST_ITERATOR@tesseract@@QEBA_NXZ)
       2072  817 0000D599 ?cycled_list@ELIST2_ITERATOR@tesseract@@QEBA_NXZ = @ILT+50580(?cycled_list@ELIST2_ITERATOR@tesseract@@QEBA_NXZ)
       2073  818 00008251 ?cycled_list@ELIST_ITERATOR@tesseract@@QEBA_NXZ = @ILT+29260(?cycled_list@ELIST_ITERATOR@tesseract@@QEBA_NXZ)
       2074  819 0000B947 ?cyrillic_sid@UNICHARSET@tesseract@@QEBAHXZ = @ILT+43330(?cyrillic_sid@UNICHARSET@tesseract@@QEBAHXZ)
       2075  81A 0000EDF4 ?dangerous_ambig_found@WERD_CHOICE@tesseract@@QEBA_NXZ = @ILT+56815(?dangerous_ambig_found@WERD_CHOICE@tesseract@@QEBA_NXZ)
       2076  81B 00014EAC ?data@CLIST_ITERATOR@tesseract@@QEAAPEAXXZ = @ILT+81575(?data@CLIST_ITERATOR@tesseract@@QEAAPEAXXZ)
       2077  81C 00005FF6 ?data@ELIST2_ITERATOR@tesseract@@QEAAPEAVELIST2_LINK@2@XZ = @ILT+20465(?data@ELIST2_ITERATOR@tesseract@@QEAAPEAVELIST2_LINK@2@XZ)
       2078  81D 0001C760 ?data@ELIST_ITERATOR@tesseract@@QEAAPEAVELIST_LINK@2@XZ = @ILT+112475(?data@ELIST_ITERATOR@tesseract@@QEAAPEAVELIST_LINK@2@XZ)
       2079  81E 00018214 ?data_relative@CLIST_ITERATOR@tesseract@@QEAAPEAXC@Z = @ILT+94735(?data_relative@CLIST_ITERATOR@tesseract@@QEAAPEAXC@Z)
       2080  81F 00006F78 ?data_relative@ELIST2_ITERATOR@tesseract@@QEAAPEAVELIST2_LINK@2@C@Z = @ILT+24435(?data_relative@ELIST2_ITERATOR@tesseract@@QEAAPEAVELIST2_LINK@2@C@Z)
       2081  820 0001BD1A ?data_relative@ELIST_ITERATOR@tesseract@@QEAAPEAVELIST_LINK@2@C@Z = @ILT+109845(?data_relative@ELIST_ITERATOR@tesseract@@QEAAPEAVELIST_LINK@2@C@Z)
       2082  821 0001A4F6 ?dawg_permute_and_select@Dict@tesseract@@QEAAPEAVWERD_CHOICE@2@AEBV?$vector@PEAVBLOB_CHOICE_LIST@tesseract@@V?$allocator@PEAVBLOB_CHOICE_LIST@tesseract@@@std@@@std@@M@Z = @ILT+103665(?dawg_permute_and_select@Dict@tesseract@@QEAAPEAVWERD_CHOICE@2@AEBV?$vector@PEAVBLOB_CHOICE_LIST@tesseract@@V?$allocator@PEAVBLOB_CHOICE_LIST@tesseract@@@std@@@std@@M@Z)
       2083  822 0001BD15 ?dead_vectors@TabFind@tesseract@@IEAAPEAVTabVector_LIST@2@XZ = @ILT+109840(?dead_vectors@TabFind@tesseract@@IEAAPEAVTabVector_LIST@2@XZ)
       2084  823 000171DE ?debug_str@UNICHARSET@tesseract@@QEBA?AV?$basic_string@DU?$char_traits@D@std@@V?$allocator@D@2@@std@@H@Z = @ILT+90585(?debug_str@UNICHARSET@tesseract@@QEBA?AV?$basic_string@DU?$char_traits@D@std@@V?$allocator@D@2@@std@@H@Z)
       2085  824 00019506 ?debug_str@UNICHARSET@tesseract@@QEBA?AV?$basic_string@DU?$char_traits@D@std@@V?$allocator@D@2@@std@@PEBD@Z = @ILT+99585(?debug_str@UNICHARSET@tesseract@@QEBA?AV?$basic_string@DU?$char_traits@D@std@@V?$allocator@D@2@@std@@PEBD@Z)
       2086  825 00013B88 ?debug_string@WERD_CHOICE@tesseract@@QEBA?AV?$basic_string@DU?$char_traits@D@std@@V?$allocator@D@2@@std@@XZ = @ILT+76675(?debug_string@WERD_CHOICE@tesseract@@QEBA?AV?$basic_string@DU?$char_traits@D@std@@V?$allocator@D@2@@std@@XZ)
       2087  826 00012431 ?debug_utf8_str@UNICHARSET@tesseract@@SA?AV?$basic_string@DU?$char_traits@D@std@@V?$allocator@D@2@@std@@PEBD@Z = @ILT+70700(?debug_utf8_str@UNICHARSET@tesseract@@SA?AV?$basic_string@DU?$char_traits@D@std@@V?$allocator@D@2@@std@@PEBD@Z)
       2088  827 00007F81 ?debug_word@Tesseract@tesseract@@QEAAXPEAVPAGE_RES@2@AEBVTBOX@2@@Z = @ILT+28540(?debug_word@Tesseract@tesseract@@QEAAXPEAVPAGE_RES@2@AEBVTBOX@2@@Z)
       2089  828 0000F81C ?deep_copy@C_BLOB@tesseract@@SAPEAV12@PEBV12@@Z = @ILT+59415(?deep_copy@C_BLOB@tesseract@@SAPEAV12@PEBV12@@Z)
       2090  829 0000CC34 ?deep_copy@WERD_RES@tesseract@@SAPEAV12@PEBV12@@Z = @ILT+48175(?deep_copy@WERD_RES@tesseract@@SAPEAV12@PEBV12@@Z)
       2091  82A 00011AD1 ?def_letter_is_okay@Dict@tesseract@@QEBAHPEAXAEBVUNICHARSET@2@H_N@Z = @ILT+68300(?def_letter_is_okay@Dict@tesseract@@QEBAHPEAXAEBVUNICHARSET@2@H_N@Z)
       2092  82B 0001491B ?def_probability_in_context@Dict@tesseract@@QEAANPEBD0H0H@Z = @ILT+80150(?def_probability_in_context@Dict@tesseract@@QEAANPEBD0H0H@Z)
       2093  82C 000197A9 ?default_dawgs@Dict@tesseract@@QEBAXPEAVDawgPositionVector@2@_N@Z = @ILT+100260(?default_dawgs@Dict@tesseract@@QEBAXPEAVDawgPositionVector@2@_N@Z)
       2094  82D 00009A84 ?default_sid@UNICHARSET@tesseract@@QEBAHXZ = @ILT+35455(?default_sid@UNICHARSET@tesseract@@QEBAHXZ)
       2095  82E 00019E6B ?delete_pointers_in_unichars@UNICHARSET@tesseract@@QEAAXXZ = @ILT+101990(?delete_pointers_in_unichars@UNICHARSET@tesseract@@QEAAXXZ)
       2096  82F 00012B5C ?denorm@ColumnFinder@tesseract@@QEBAPEBVDENORM@2@XZ = @ILT+72535(?denorm@ColumnFinder@tesseract@@QEBAPEBVDENORM@2@XZ)
       2097  830 0000B3D9 ?deref_edge_ref@Trie@tesseract@@IEBAPEA_K_J@Z = @ILT+41940(?deref_edge_ref@Trie@tesseract@@IEBAPEA_K_J@Z)
       2098  831 000014CE ?desperately_merged@ColPartition@tesseract@@QEBA_NXZ = @ILT+1225(?desperately_merged@ColPartition@tesseract@@QEBA_NXZ)
       2099  832 0000C59A ?destination_index@Shape@tesseract@@QEBAHXZ = @ILT+46485(?destination_index@Shape@tesseract@@QEBAHXZ)
       2100  833 0000193D ?destroy@Image@tesseract@@QEAAXXZ = @ILT+2360(?destroy@Image@tesseract@@QEAAXXZ)
       2101  834 0001C5E9 ?destroy@tesseract@@YAPEAUlist_rec@1@PEAU21@@Z = @ILT+112100(?destroy@tesseract@@YAPEAUlist_rec@1@PEAU21@@Z)
       2102  835 00010870 ?dict_word@Wordrec@tesseract@@QEAAHAEBVWERD_CHOICE@2@@Z = @ILT+63595(?dict_word@Wordrec@tesseract@@QEAAHAEBVWERD_CHOICE@2@@Z)
       2103  836 0001A046 ?dictionary_correction_pass@Tesseract@tesseract@@QEAAXPEAVPAGE_RES@2@@Z = @ILT+102465(?dictionary_correction_pass@Tesseract@tesseract@@QEAAXPEAVPAGE_RES@2@@Z)
       2104  837 00001749 ?digit_or_numeric_punct@Tesseract@tesseract@@QEAA_NPEAVWERD_RES@2@H@Z = @ILT+1860(?digit_or_numeric_punct@Tesseract@tesseract@@QEAA_NPEAVWERD_RES@2@H@Z)
       2105  838 0000358A ?direction_from_edge_rec@Dawg@tesseract@@IEBAHAEB_K@Z = @ILT+9605(?direction_from_edge_rec@Dawg@tesseract@@IEBAHAEB_K@Z)
       2106  839 00006974 ?display_flag@WERD@tesseract@@QEBA_NE@Z = @ILT+22895(?display_flag@WERD@tesseract@@QEBA_NE@Z)
       2107  83A 0001B608 ?do_re_display@Tesseract@tesseract@@QEAAXP812@EAA_NPEAVPAGE_RES_IT@2@@Z@Z = @ILT+108035(?do_re_display@Tesseract@tesseract@@QEAAXP812@EAA_NPEAVPAGE_RES_IT@2@@Z@Z)
       2108  83B 00004192 ?doc_and_block_rejection@Tesseract@tesseract@@QEAAXAEAVPAGE_RES_IT@2@_N@Z = @ILT+12685(?doc_and_block_rejection@Tesseract@tesseract@@QEAAXAEAVPAGE_RES_IT@2@_N@Z)
       2109  83C 0000826F ?dont_allow_1Il@Tesseract@tesseract@@QEAAXPEAVWERD_RES@2@@Z = @ILT+29290(?dont_allow_1Il@Tesseract@tesseract@@QEAAXPEAVWERD_RES@2@@Z)
       2110  83D 0000BA55 ?double_the_size@WERD_CHOICE@tesseract@@QEAAXXZ = @ILT+43600(?double_the_size@WERD_CHOICE@tesseract@@QEAAXXZ)
       2111  83E 0001C6ED ?dump_words@Tesseract@tesseract@@QEAAXAEAVWERD_RES_LIST@2@FF_N@Z = @ILT+112360(?dump_words@Tesseract@tesseract@@QEAAXAEAVWERD_RES_LIST@2@FF_N@Z)
       2112  83F 00015DA2 ?edge_char_of@SquishedDawg@tesseract@@UEBA_J_JH_N@Z = @ILT+85405(?edge_char_of@SquishedDawg@tesseract@@UEBA_J_JH_N@Z)
       2113  840 0000B131 ?edge_char_of@Trie@tesseract@@IEBA_N_J0H_NHPEAPEA_KPEA_J@Z = @ILT+41260(?edge_char_of@Trie@tesseract@@IEBA_N_J0H_NHPEAPEA_KPEA_J@Z)
       2114  841 00011090 ?edge_char_of@Trie@tesseract@@UEBA_J_JH_N@Z = @ILT+65675(?edge_char_of@Trie@tesseract@@UEBA_J_JH_N@Z)
       2115  842 0001C1E3 ?edge_letter@SquishedDawg@tesseract@@UEBAH_J@Z = @ILT+111070(?edge_letter@SquishedDawg@tesseract@@UEBAH_J@Z)
       2116  843 0001D0C0 ?edge_letter@Trie@tesseract@@UEBAH_J@Z = @ILT+114875(?edge_letter@Trie@tesseract@@UEBAH_J@Z)
       2117  844 0001D430 ?edge_occupied@SquishedDawg@tesseract@@AEBA_N_J@Z = @ILT+115755(?edge_occupied@SquishedDawg@tesseract@@AEBA_N_J@Z)
       2118  845 00012319 ?edge_rec_match@Dawg@tesseract@@IEBA_N_J_NH01H@Z = @ILT+70420(?edge_rec_match@Dawg@tesseract@@IEBA_N_J_NH01H@Z)
       2119  846 00003CFB ?eliminate_redundant_edges@Trie@tesseract@@IEAA_N_JAEB_K1@Z = @ILT+11510(?eliminate_redundant_edges@Trie@tesseract@@IEAA_N_JAEB_K1@Z)
       2120  847 00009B65 ?empty@BitVector@tesseract@@QEBAHXZ = @ILT+35680(?empty@BitVector@tesseract@@QEBAHXZ)
       2121  848 00009DC2 ?empty@CLIST@tesseract@@QEBA_NXZ = @ILT+36285(?empty@CLIST@tesseract@@QEBA_NXZ)
       2122  849 00015DA7 ?empty@CLIST_ITERATOR@tesseract@@QEBA_NXZ = @ILT+85410(?empty@CLIST_ITERATOR@tesseract@@QEBA_NXZ)
       2123  84A 0001C297 ?empty@ELIST2@tesseract@@QEBA_NXZ = @ILT+111250(?empty@ELIST2@tesseract@@QEBA_NXZ)
       2124  84B 00002C34 ?empty@ELIST2_ITERATOR@tesseract@@QEBA_NXZ = @ILT+7215(?empty@ELIST2_ITERATOR@tesseract@@QEBA_NXZ)
       2125  84C 00008AC1 ?empty@ELIST@tesseract@@QEBA_NXZ = @ILT+31420(?empty@ELIST@tesseract@@QEBA_NXZ)
       2126  84D 00006BA4 ?empty@ELIST_ITERATOR@tesseract@@QEBA_NXZ = @ILT+23455(?empty@ELIST_ITERATOR@tesseract@@QEBA_NXZ)
       2127  84E 000126ED ?empty@WERD_CHOICE@tesseract@@QEBA_NXZ = @ILT+71400(?empty@WERD_CHOICE@tesseract@@QEBA_NXZ)
       2128  84F 000137B4 ?encodable_string@UNICHARSET@tesseract@@QEBA_NPEBDPEAI@Z = @ILT+75695(?encodable_string@UNICHARSET@tesseract@@QEBA_NPEBDPEAI@Z)
       2129  850 00010393 ?encode_string@UNICHARSET@tesseract@@AEBAXPEBDHHPEAV?$vector@HV?$allocator@H@std@@@std@@PEAV?$vector@DV?$allocator@D@std@@@4@PEAI12@Z = @ILT+62350(?encode_string@UNICHARSET@tesseract@@AEBAXPEBDHHPEAV?$vector@HV?$allocator@H@std@@@std@@PEAV?$vector@DV?$allocator@D@std@@@4@PEAI12@Z)
       2130  851 0000E9AD ?encode_string@UNICHARSET@tesseract@@QEBA_NPEBD_NPEAV?$vector@HV?$allocator@H@std@@@std@@PEAV?$vector@DV?$allocator@D@std@@@4@PEAI@Z = @ILT+55720(?encode_string@UNICHARSET@tesseract@@QEBA_NPEBD_NPEAV?$vector@HV?$allocator@H@std@@@std@@PEAV?$vector@DV?$allocator@D@std@@@4@PEAI@Z)
       2131  852 0000BC3F ?end@UNICHAR@tesseract@@SA?AVconst_iterator@12@PEBDH@Z = @ILT+44090(?end@UNICHAR@tesseract@@SA?AVconst_iterator@12@PEBDH@Z)
       2132  853 0000C5BD ?end_of_word@SquishedDawg@tesseract@@UEBA_N_J@Z = @ILT+46520(?end_of_word@SquishedDawg@tesseract@@UEBA_N_J@Z)
       2133  854 0000B1E0 ?end_of_word@Trie@tesseract@@UEBA_N_J@Z = @ILT+41435(?end_of_word@Trie@tesseract@@UEBA_N_J@Z)
       2134  855 0000523B ?end_of_word_from_edge_rec@Dawg@tesseract@@IEBA_NAEB_K@Z = @ILT+16950(?end_of_word_from_edge_rec@Dawg@tesseract@@IEBA_NAEB_K@Z)
       2135  856 00008BF2 ?end_recog@Wordrec@tesseract@@QEAAHXZ = @ILT+31725(?end_recog@Wordrec@tesseract@@QEAAHXZ)
       2136  857 0000A46B ?end_tesseract@Tesseract@tesseract@@QEAAXXZ = @ILT+37990(?end_tesseract@Tesseract@tesseract@@QEAAXXZ)
       2137  858 00014BA0 ?eq@UNICHARSET@tesseract@@QEBA_NHQEBD@Z = @ILT+80795(?eq@UNICHARSET@tesseract@@QEBA_NHQEBD@Z)
       2138  859 0000A9DE ?equals@CHAR_FRAGMENT@tesseract@@QEBA_NPEBDHH@Z = @ILT+39385(?equals@CHAR_FRAGMENT@tesseract@@QEBA_NPEBDHH@Z)
       2139  85A 0001075D ?equals@CHAR_FRAGMENT@tesseract@@QEBA_NPEBV12@@Z = @ILT+63320(?equals@CHAR_FRAGMENT@tesseract@@QEBA_NPEBV12@@Z)
       2140  85B 000193C6 ?error@ERRCODE@tesseract@@QEBAXPEBDW4TessErrorLogCode@2@0ZZ = @ILT+99265(?error@ERRCODE@tesseract@@QEBAXPEBDW4TessErrorLogCode@2@0ZZ)
       2141  85C 0000EAC5 ?eval_word_spacing@Tesseract@tesseract@@QEAAFAEAVWERD_RES_LIST@2@@Z = @ILT+56000(?eval_word_spacing@Tesseract@tesseract@@QEAAFAEAVWERD_RES_LIST@2@@Z)
       2142  85D 000028D3 ?exchange@CLIST_ITERATOR@tesseract@@QEAAXPEAV12@@Z = @ILT+6350(?exchange@CLIST_ITERATOR@tesseract@@QEAAXPEAV12@@Z)
       2143  85E 000162B1 ?exchange@ELIST2_ITERATOR@tesseract@@QEAAXPEAV12@@Z = @ILT+86700(?exchange@ELIST2_ITERATOR@tesseract@@QEAAXPEAV12@@Z)
       2144  85F 00005B4B ?exchange@ELIST_ITERATOR@tesseract@@QEAAXPEAV12@@Z = @ILT+19270(?exchange@ELIST_ITERATOR@tesseract@@QEAAXPEAV12@@Z)
       2145  860 0001472C ?extract@CLIST_ITERATOR@tesseract@@QEAAPEAXXZ = @ILT+79655(?extract@CLIST_ITERATOR@tesseract@@QEAAPEAXXZ)
       2146  861 0001AABE ?extract@ELIST2_ITERATOR@tesseract@@QEAAPEAVELIST2_LINK@2@XZ = @ILT+105145(?extract@ELIST2_ITERATOR@tesseract@@QEAAPEAVELIST2_LINK@2@XZ)
       2147  862 0000650F ?extract@ELIST_ITERATOR@tesseract@@QEAAPEAVELIST_LINK@2@XZ = @ILT+21770(?extract@ELIST_ITERATOR@tesseract@@QEAAPEAVELIST_LINK@2@XZ)
       2148  863 0000AF74 ?extractSymbolChoices@RecodeBeamSearch@tesseract@@QEAAXPEBVUNICHARSET@2@@Z = @ILT+40815(?extractSymbolChoices@RecodeBeamSearch@tesseract@@QEAAXPEBVUNICHARSET@2@@Z)
       2149  864 00008C5B ?extract_sublist@CLIST_ITERATOR@tesseract@@AEAAPEAVCLIST_LINK@2@PEAV12@@Z = @ILT+31830(?extract_sublist@CLIST_ITERATOR@tesseract@@AEAAPEAVCLIST_LINK@2@PEAV12@@Z)
       2150  865 00019227 ?extract_sublist@ELIST2_ITERATOR@tesseract@@AEAAPEAVELIST2_LINK@2@PEAV12@@Z = @ILT+98850(?extract_sublist@ELIST2_ITERATOR@tesseract@@AEAAPEAVELIST2_LINK@2@PEAV12@@Z)
       2151  866 0000F074 ?extract_sublist@ELIST_ITERATOR@tesseract@@AEAAPEAVELIST_LINK@2@PEAV12@@Z = @ILT+57455(?extract_sublist@ELIST_ITERATOR@tesseract@@AEAAPEAVELIST_LINK@2@PEAV12@@Z)
       2152  867 0000CF18 ?extrapolate@QSPLINE@tesseract@@QEAAXNHH@Z = @ILT+48915(?extrapolate@QSPLINE@tesseract@@QEAAXNHH@Z)
       2153  868 0000502E ?f@NetworkIO@tesseract@@QEAAPEAMH@Z = @ILT+16425(?f@NetworkIO@tesseract@@QEAAPEAMH@Z)
       2154  869 00012F8A ?f@NetworkIO@tesseract@@QEBAPEBMH@Z = @ILT+73605(?f@NetworkIO@tesseract@@QEBAPEBMH@Z)
       2155  86A 00005A74 ?failure_count@Tesseract@tesseract@@QEAAFPEAVWERD_RES@2@@Z = @ILT+19055(?failure_count@Tesseract@tesseract@@QEAAFPEAVWERD_RES@2@@Z)
       2156  86B 00017BC0 ?features@TrainingSample@tesseract@@QEBAPEBUINT_FEATURE_STRUCT@2@XZ = @ILT+93115(?features@TrainingSample@tesseract@@QEBAPEBUINT_FEATURE_STRUCT@2@XZ)
       2157  86C 0000F5D3 ?features_are_mapped@TrainingSample@tesseract@@QEBA_NXZ = @ILT+58830(?features_are_mapped@TrainingSample@tesseract@@QEBA_NXZ)
       2158  86D 0001D17E ?file_extension@TessResultRenderer@tesseract@@QEBAPEBDXZ = @ILT+115065(?file_extension@TessResultRenderer@tesseract@@QEBAPEBDXZ)
       2159  86E 00006DF2 ?fill@POLY_BLOCK@tesseract@@QEAAXPEAVScrollView@2@W4Color@32@@Z = @ILT+24045(?fill@POLY_BLOCK@tesseract@@QEAAXPEAVScrollView@2@W4Color@32@@Z)
       2160  86F 00004AD4 ?fill_filtered_fragment_list@Wordrec@tesseract@@QEAAXPEAVBLOB_CHOICE_LIST@2@HH0@Z = @ILT+15055(?fill_filtered_fragment_list@Wordrec@tesseract@@QEAAXPEAVBLOB_CHOICE_LIST@2@HH0@Z)
       2161  870 0000AA65 ?filterSpaces@ChoiceIterator@tesseract@@AEAAXXZ = @ILT+39520(?filterSpaces@ChoiceIterator@tesseract@@AEAAXXZ)
       2162  871 0000432C ?first_alphanum_index@Tesseract@tesseract@@QEAAFPEBD0@Z = @ILT+13095(?first_alphanum_index@Tesseract@tesseract@@QEAAFPEBD0@Z)
       2163  872 00013723 ?first_alphanum_offset@Tesseract@tesseract@@QEAAFPEBD0@Z = @ILT+75550(?first_alphanum_offset@Tesseract@tesseract@@QEAAFPEBD0@Z)
       2164  873 000081E8 ?first_indent@ParagraphModel@tesseract@@QEBAHXZ = @ILT+29155(?first_indent@ParagraphModel@tesseract@@QEBAHXZ)
       2165  874 0000B663 ?first_uni@UNICHAR@tesseract@@QEBAHXZ = @ILT+42590(?first_uni@UNICHAR@tesseract@@QEBAHXZ)
       2166  875 0001C3AF ?fix_fuzzy_space_list@Tesseract@tesseract@@QEAAXAEAVWERD_RES_LIST@2@PEAVROW@2@PEAVBLOCK@2@@Z = @ILT+111530(?fix_fuzzy_space_list@Tesseract@tesseract@@QEAAXAEAVWERD_RES_LIST@2@PEAVROW@2@PEAVBLOCK@2@@Z)
       2167  876 00019880 ?fix_fuzzy_spaces@Tesseract@tesseract@@QEAAXPEAVETEXT_DESC@2@HPEAVPAGE_RES@2@@Z = @ILT+100475(?fix_fuzzy_spaces@Tesseract@tesseract@@QEAAXPEAVETEXT_DESC@2@HPEAVPAGE_RES@2@@Z)
       2168  877 000102E4 ?fix_hyphens@WERD_RES@tesseract@@QEAAXXZ = @ILT+62175(?fix_hyphens@WERD_RES@tesseract@@QEAAXXZ)
       2169  878 0001A235 ?fix_noisy_space_list@Tesseract@tesseract@@QEAAXAEAVWERD_RES_LIST@2@PEAVROW@2@PEAVBLOCK@2@@Z = @ILT+102960(?fix_noisy_space_list@Tesseract@tesseract@@QEAAXAEAVWERD_RES_LIST@2@PEAVROW@2@PEAVBLOCK@2@@Z)
       2170  879 000107D5 ?fix_quotes@WERD_RES@tesseract@@QEAAXXZ = @ILT+63440(?fix_quotes@WERD_RES@tesseract@@QEAAXXZ)
       2171  87A 00012B16 ?fix_rep_char@Tesseract@tesseract@@QEAAXPEAVPAGE_RES_IT@2@@Z = @ILT+72465(?fix_rep_char@Tesseract@tesseract@@QEAAXPEAVPAGE_RES_IT@2@@Z)
       2172  87B 0001B847 ?fix_sp_fp_word@Tesseract@tesseract@@QEAAXAEAVWERD_RES_IT@2@PEAVROW@2@PEAVBLOCK@2@@Z = @ILT+108610(?fix_sp_fp_word@Tesseract@tesseract@@QEAAXAEAVWERD_RES_IT@2@PEAVROW@2@PEAVBLOCK@2@@Z)
       2173  87C 00012B66 ?fixed_pitch@BLOCK@tesseract@@QEBAHXZ = @ILT+72545(?fixed_pitch@BLOCK@tesseract@@QEBAHXZ)
       2174  87D 0000F641 ?fixspace_thinks_word_done@Tesseract@tesseract@@QEAA_NPEAVWERD_RES@2@@Z = @ILT+58940(?fixspace_thinks_word_done@Tesseract@tesseract@@QEAA_NPEAVWERD_RES@2@@Z)
       2175  87E 00009B4C ?flag@WERD@tesseract@@QEBA_NW4WERD_FLAGS@2@@Z = @ILT+35655(?flag@WERD@tesseract@@QEBA_NW4WERD_FLAGS@2@@Z)
       2176  87F 00014C18 ?flip_0O@Tesseract@tesseract@@QEAAXPEAVWERD_RES@2@@Z = @ILT+80915(?flip_0O@Tesseract@tesseract@@QEAAXPEAVWERD_RES@2@@Z)
       2177  880 0000FFD3 ?flip_hyphens@Tesseract@tesseract@@QEAAXPEAVWERD_RES@2@@Z = @ILT+61390(?flip_hyphens@Tesseract@tesseract@@QEAAXPEAVWERD_RES@2@@Z)
       2178  881 00011626 ?float_array@NetworkIO@tesseract@@QEBAAEBV?$GENERIC_2D_ARRAY@M@2@XZ = @ILT+67105(?float_array@NetworkIO@tesseract@@QEBAAEBV?$GENERIC_2D_ARRAY@M@2@XZ)
       2179  882 00016973 ?flow@ColPartition@tesseract@@QEBA?AW4BlobTextFlowType@2@XZ = @ILT+88430(?flow@ColPartition@tesseract@@QEBA?AW4BlobTextFlowType@2@XZ)
       2180  883 00D59D2C ?fma_available_@SIMDDetect@tesseract@@0_NA = ?fma_available_@SIMDDetect@tesseract@@0_NA (private: static bool tesseract::SIMDDetect::fma_available_)
       2181  884 00004E67 ?font@BLOCK@tesseract@@QEBAFXZ = @ILT+15970(?font@BLOCK@tesseract@@QEBAFXZ)
       2182  885 00003DD7 ?font_id@TrainingSample@tesseract@@QEBAHXZ = @ILT+11730(?font_id@TrainingSample@tesseract@@QEBAHXZ)
       2183  886 0000185C ?font_recognition_pass@Tesseract@tesseract@@QEAAXPEAVPAGE_RES@2@@Z = @ILT+2135(?font_recognition_pass@Tesseract@tesseract@@QEAAXPEAVPAGE_RES@2@@Z)
       2184  887 000149AC ?forward@CLIST_ITERATOR@tesseract@@QEAAPEAXXZ = @ILT+80295(?forward@CLIST_ITERATOR@tesseract@@QEAAPEAXXZ)
       2185  888 000128AF ?forward@ELIST2_ITERATOR@tesseract@@QEAAPEAVELIST2_LINK@2@XZ = @ILT+71850(?forward@ELIST2_ITERATOR@tesseract@@QEAAPEAVELIST2_LINK@2@XZ)
       2186  889 0000C022 ?forward@ELIST_ITERATOR@tesseract@@QEAAPEAVELIST_LINK@2@XZ = @ILT+45085(?forward@ELIST_ITERATOR@tesseract@@QEAAPEAVELIST_LINK@2@XZ)
       2187  88A 0001C355 ?forward@PAGE_RES_IT@tesseract@@QEAAPEAVWERD_RES@2@XZ = @ILT+111440(?forward@PAGE_RES_IT@tesseract@@QEAAPEAVWERD_RES@2@XZ)
       2188  88B 00013476 ?forward_block@PAGE_RES_IT@tesseract@@QEAAPEAVWERD_RES@2@XZ = @ILT+74865(?forward_block@PAGE_RES_IT@tesseract@@QEAAPEAVWERD_RES@2@XZ)
       2189  88C 0000B537 ?forward_edge@SquishedDawg@tesseract@@AEBA_N_J@Z = @ILT+42290(?forward_edge@SquishedDawg@tesseract@@AEBA_N_J@Z)
       2190  88D 00009E2B ?forward_paragraph@PAGE_RES_IT@tesseract@@QEAAPEAVWERD_RES@2@XZ = @ILT+36390(?forward_paragraph@PAGE_RES_IT@tesseract@@QEAAPEAVWERD_RES@2@XZ)
       2191  88E 0000DB9D ?forward_with_empties@PAGE_RES_IT@tesseract@@QEAAPEAVWERD_RES@2@XZ = @ILT+52120(?forward_with_empties@PAGE_RES_IT@tesseract@@QEAAPEAVWERD_RES@2@XZ)
       2192  88F 00008503 ?fp_eval_word_spacing@Tesseract@tesseract@@QEAAFAEAVWERD_RES_LIST@2@@Z = @ILT+29950(?fp_eval_word_spacing@Tesseract@tesseract@@QEAAFAEAVWERD_RES_LIST@2@@Z)
       2193  890 0001B590 ?fragment_state_okay@Dict@tesseract@@QEAA_NHMMPEBUCHAR_FRAGMENT_INFO@2@PEBDHPEAU32@@Z = @ILT+107915(?fragment_state_okay@Dict@tesseract@@QEAA_NHMMPEBUCHAR_FRAGMENT_INFO@2@PEBDHPEAU32@@Z)
       2194  891 0001A06E ?from_direction@FCOORD@tesseract@@QEAAXE@Z = @ILT+102505(?from_direction@FCOORD@tesseract@@QEAAXE@Z)
       2195  892 0001A1CC ?garbage_word@Tesseract@tesseract@@QEAA?AW4GARBAGE_LEVEL@2@PEAVWERD_RES@2@_N@Z = @ILT+102855(?garbage_word@Tesseract@tesseract@@QEAA?AW4GARBAGE_LEVEL@2@PEAVWERD_RES@2@_N@Z)
       2196  893 0001C9A9 ?geo_feature@TrainingSample@tesseract@@QEBAHH@Z = @ILT+113060(?geo_feature@TrainingSample@tesseract@@QEBAHH@Z)
       2197  894 0001517C ?getCCUtil@Dict@tesseract@@QEAAPEAVCCUtil@2@XZ = @ILT+82295(?getCCUtil@Dict@tesseract@@QEAAPEAVCCUtil@2@XZ)
       2198  895 00010BEA ?getCCUtil@Dict@tesseract@@QEBAPEBVCCUtil@2@XZ = @ILT+64485(?getCCUtil@Dict@tesseract@@QEBAPEBVCCUtil@2@XZ)
       2199  896 0001AD3E ?getCols@StructuredTable@tesseract@@QEAA?AV?$vector@VTBOX@tesseract@@V?$allocator@VTBOX@tesseract@@@std@@@std@@XZ = @ILT+105785(?getCols@StructuredTable@tesseract@@QEAA?AV?$vector@VTBOX@tesseract@@V?$allocator@VTBOX@tesseract@@@std@@@std@@XZ)
       2200  897 00004C73 ?getDict@Classify@tesseract@@UEAAAEAVDict@2@XZ = @ILT+15470(?getDict@Classify@tesseract@@UEAAAEAVDict@2@XZ)
       2201  898 000024A5 ?getDict@Tesseract@tesseract@@UEAAAEAVDict@2@XZ = @ILT+5280(?getDict@Tesseract@tesseract@@UEAAAEAVDict@2@XZ)
       2202  899 00008DE6 ?getOpenCLDevice@TessBaseAPI@tesseract@@SA_KPEAPEAX@Z = @ILT+32225(?getOpenCLDevice@TessBaseAPI@tesseract@@SA_KPEAPEAX@Z)
       2203  89A 0000CCAC ?getRows@StructuredTable@tesseract@@QEAA?AV?$vector@VTBOX@tesseract@@V?$allocator@VTBOX@tesseract@@@std@@@std@@XZ = @ILT+48295(?getRows@StructuredTable@tesseract@@QEAA?AV?$vector@VTBOX@tesseract@@V?$allocator@VTBOX@tesseract@@@std@@@std@@XZ)
       2204  89B 0001434E ?getUnicharAmbigs@Dict@tesseract@@QEBAAEBVUnicharAmbigs@2@XZ = @ILT+78665(?getUnicharAmbigs@Dict@tesseract@@QEBAAEBVUnicharAmbigs@2@XZ)
       2205  89C 0000FDC1 ?getUnicharset@Dict@tesseract@@QEAAAEAVUNICHARSET@2@XZ = @ILT+60860(?getUnicharset@Dict@tesseract@@QEAAAEAVUNICHARSET@2@XZ)
       2206  89D 0000AB2D ?getUnicharset@Dict@tesseract@@QEBAAEBVUNICHARSET@2@XZ = @ILT+39720(?getUnicharset@Dict@tesseract@@QEBAAEBVUNICHARSET@2@XZ)
       2207  89E 00009E6C ?get_advance_stats@UNICHARSET@tesseract@@QEBAXHPEAM0@Z = @ILT+36455(?get_advance_stats@UNICHARSET@tesseract@@QEBAXHPEAM0@Z)
       2208  89F 000072B6 ?get_bearing_stats@UNICHARSET@tesseract@@QEBAXHPEAM0@Z = @ILT+25265(?get_bearing_stats@UNICHARSET@tesseract@@QEBAXHPEAM0@Z)
       2209  8A0 0000D44A ?get_best_script@OSResults@tesseract@@QEBAHH@Z = @ILT+50245(?get_best_script@OSResults@tesseract@@QEBAHH@Z)
       2210  8A1 00015F5F ?get_chartype@UNICHARSET@tesseract@@QEBADH@Z = @ILT+85850(?get_chartype@UNICHARSET@tesseract@@QEBADH@Z)
       2211  8A2 0000B7B7 ?get_chartype@UNICHARSET@tesseract@@QEBADQEBD@Z = @ILT+42930(?get_chartype@UNICHARSET@tesseract@@QEBADQEBD@Z)
       2212  8A3 0000320B ?get_direction@UNICHARSET@tesseract@@QEBA?AW4Direction@12@H@Z = @ILT+8710(?get_direction@UNICHARSET@tesseract@@QEBA?AW4Direction@12@H@Z)
       2213  8A4 00009A98 ?get_enabled@UNICHARSET@tesseract@@QEBA_NH@Z = @ILT+35475(?get_enabled@UNICHARSET@tesseract@@QEBA_NH@Z)
       2214  8A5 0000847C ?get_fontinfo_table@Classify@tesseract@@QEAAAEAV?$UnicityTable@UFontInfo@tesseract@@@2@XZ = @ILT+29815(?get_fontinfo_table@Classify@tesseract@@QEAAAEAV?$UnicityTable@UFontInfo@tesseract@@@2@XZ)
       2215  8A6 0000FDE4 ?get_fontinfo_table@Classify@tesseract@@QEBAAEBV?$UnicityTable@UFontInfo@tesseract@@@2@XZ = @ILT+60895(?get_fontinfo_table@Classify@tesseract@@QEBAAEBV?$UnicityTable@UFontInfo@tesseract@@@2@XZ)
       2216  8A7 00006177 ?get_fontset_table@Classify@tesseract@@QEAAAEAV?$UnicityTable@V?$vector@HV?$allocator@H@std@@@std@@@2@XZ = @ILT+20850(?get_fontset_table@Classify@tesseract@@QEAAAEAV?$UnicityTable@V?$vector@HV?$allocator@H@std@@@std@@@2@XZ)
       2217  8A8 0001509B ?get_fragment@UNICHARSET@tesseract@@QEBAPEBVCHAR_FRAGMENT@2@H@Z = @ILT+82070(?get_fragment@UNICHARSET@tesseract@@QEBAPEBVCHAR_FRAGMENT@2@H@Z)
       2218  8A9 0001B928 ?get_fragment@UNICHARSET@tesseract@@QEBAPEBVCHAR_FRAGMENT@2@QEBD@Z = @ILT+108835(?get_fragment@UNICHARSET@tesseract@@QEBAPEBVCHAR_FRAGMENT@2@QEBD@Z)
       2219  8AA 000045DE ?get_fragment_lists@Wordrec@tesseract@@QEAAXFFFFFPEAVMATRIX@2@PEAVBLOB_CHOICE_LIST@2@@Z = @ILT+13785(?get_fragment_lists@Wordrec@tesseract@@QEAAXFFFFFPEAVMATRIX@2@PEAVBLOB_CHOICE_LIST@2@@Z)
       2220  8AB 00009C14 ?get_isalpha@UNICHARSET@tesseract@@QEBA_NH@Z = @ILT+35855(?get_isalpha@UNICHARSET@tesseract@@QEBA_NH@Z)
       2221  8AC 00018395 ?get_isalpha@UNICHARSET@tesseract@@QEBA_NQEBD@Z = @ILT+95120(?get_isalpha@UNICHARSET@tesseract@@QEBA_NQEBD@Z)
       2222  8AD 000063CF ?get_isalpha@UNICHARSET@tesseract@@QEBA_NQEBDH@Z = @ILT+21450(?get_isalpha@UNICHARSET@tesseract@@QEBA_NQEBDH@Z)
       2223  8AE 0000786F ?get_isdigit@UNICHARSET@tesseract@@QEBA_NH@Z = @ILT+26730(?get_isdigit@UNICHARSET@tesseract@@QEBA_NH@Z)
       2224  8AF 0001B55E ?get_isdigit@UNICHARSET@tesseract@@QEBA_NQEBD@Z = @ILT+107865(?get_isdigit@UNICHARSET@tesseract@@QEBA_NQEBD@Z)
       2225  8B0 00016892 ?get_isdigit@UNICHARSET@tesseract@@QEBA_NQEBDH@Z = @ILT+88205(?get_isdigit@UNICHARSET@tesseract@@QEBA_NQEBDH@Z)
       2226  8B1 0000539E ?get_islower@UNICHARSET@tesseract@@QEBA_NH@Z = @ILT+17305(?get_islower@UNICHARSET@tesseract@@QEBA_NH@Z)
       2227  8B2 00014308 ?get_islower@UNICHARSET@tesseract@@QEBA_NQEBD@Z = @ILT+78595(?get_islower@UNICHARSET@tesseract@@QEBA_NQEBD@Z)
       2228  8B3 00019231 ?get_islower@UNICHARSET@tesseract@@QEBA_NQEBDH@Z = @ILT+98860(?get_islower@UNICHARSET@tesseract@@QEBA_NQEBDH@Z)
       2229  8B4 0000EDF9 ?get_isngram@UNICHARSET@tesseract@@QEBA_NH@Z = @ILT+56820(?get_isngram@UNICHARSET@tesseract@@QEBA_NH@Z)
       2230  8B5 00017C01 ?get_isprivate@UNICHARSET@tesseract@@QEBA_NH@Z = @ILT+93180(?get_isprivate@UNICHARSET@tesseract@@QEBA_NH@Z)
       2231  8B6 00001B7C ?get_ispunctuation@UNICHARSET@tesseract@@QEBA_NH@Z = @ILT+2935(?get_ispunctuation@UNICHARSET@tesseract@@QEBA_NH@Z)
       2232  8B7 00003A76 ?get_ispunctuation@UNICHARSET@tesseract@@QEBA_NQEBD@Z = @ILT+10865(?get_ispunctuation@UNICHARSET@tesseract@@QEBA_NQEBD@Z)
       2233  8B8 000030DA ?get_ispunctuation@UNICHARSET@tesseract@@QEBA_NQEBDH@Z = @ILT+8405(?get_ispunctuation@UNICHARSET@tesseract@@QEBA_NQEBDH@Z)
       2234  8B9 000043EF ?get_isupper@UNICHARSET@tesseract@@QEBA_NH@Z = @ILT+13290(?get_isupper@UNICHARSET@tesseract@@QEBA_NH@Z)
       2235  8BA 0000C973 ?get_isupper@UNICHARSET@tesseract@@QEBA_NQEBD@Z = @ILT+47470(?get_isupper@UNICHARSET@tesseract@@QEBA_NQEBD@Z)
       2236  8BB 0000B94C ?get_isupper@UNICHARSET@tesseract@@QEBA_NQEBDH@Z = @ILT+43335(?get_isupper@UNICHARSET@tesseract@@QEBA_NQEBDH@Z)
       2237  8BC 0001482B ?get_mirror@UNICHARSET@tesseract@@QEBAHH@Z = @ILT+79910(?get_mirror@UNICHARSET@tesseract@@QEBAHH@Z)
       2238  8BD 00012CF1 ?get_normed_unichar@UNICHARSET@tesseract@@QEBAPEBDH@Z = @ILT+72940(?get_normed_unichar@UNICHARSET@tesseract@@QEBAPEBDH@Z)
       2239  8BE 00007509 ?get_other_case@UNICHARSET@tesseract@@QEBAHH@Z = @ILT+25860(?get_other_case@UNICHARSET@tesseract@@QEBAHH@Z)
       2240  8BF 0000E156 ?get_pos@CHAR_FRAGMENT@tesseract@@QEBAHXZ = @ILT+53585(?get_pos@CHAR_FRAGMENT@tesseract@@QEBAHXZ)
       2241  8C0 0000B34D ?get_properties@UNICHARSET@tesseract@@QEBAIH@Z = @ILT+41800(?get_properties@UNICHARSET@tesseract@@QEBAIH@Z)
       2242  8C1 0001723D ?get_properties@UNICHARSET@tesseract@@QEBAIQEBD@Z = @ILT+90680(?get_properties@UNICHARSET@tesseract@@QEBAIQEBD@Z)
       2243  8C2 00003DAA ?get_rep_char@Tesseract@tesseract@@QEAAHPEAVWERD_RES@2@@Z = @ILT+11685(?get_rep_char@Tesseract@tesseract@@QEAAHPEAVWERD_RES@2@@Z)
       2244  8C3 0001C25B ?get_reverse_policy_name@Trie@tesseract@@SAPEBDW4RTLReversePolicy@12@@Z = @ILT+111190(?get_reverse_policy_name@Trie@tesseract@@SAPEBDW4RTLReversePolicy@12@@Z)
       2245  8C4 00007216 ?get_rows@TO_BLOCK@tesseract@@QEAAPEAVTO_ROW_LIST@2@XZ = @ILT+25105(?get_rows@TO_BLOCK@tesseract@@QEAAPEAVTO_ROW_LIST@2@XZ)
       2246  8C5 0000DE27 ?get_script@UNICHARSET@tesseract@@QEBAHH@Z = @ILT+52770(?get_script@UNICHARSET@tesseract@@QEBAHH@Z)
       2247  8C6 00018A3E ?get_script@UNICHARSET@tesseract@@QEBAHQEBD@Z = @ILT+96825(?get_script@UNICHARSET@tesseract@@QEBAHQEBD@Z)
       2248  8C7 00013F9D ?get_script@UNICHARSET@tesseract@@QEBAHQEBDH@Z = @ILT+77720(?get_script@UNICHARSET@tesseract@@QEBAHQEBDH@Z)
       2249  8C8 00010523 ?get_script_from_script_id@UNICHARSET@tesseract@@QEBAPEBDH@Z = @ILT+62750(?get_script_from_script_id@UNICHARSET@tesseract@@QEBAPEBDH@Z)
       2250  8C9 00001C80 ?get_script_id_from_name@UNICHARSET@tesseract@@QEBAHPEBD@Z = @ILT+3195(?get_script_id_from_name@UNICHARSET@tesseract@@QEBAHPEBD@Z)
       2251  8CA 00009F52 ?get_script_table_size@UNICHARSET@tesseract@@QEBAHXZ = @ILT+36685(?get_script_table_size@UNICHARSET@tesseract@@QEBAHXZ)
       2252  8CB 00003B07 ?get_sub_lang@Tesseract@tesseract@@QEBAPEAV12@H@Z = @ILT+11010(?get_sub_lang@Tesseract@tesseract@@QEBAPEAV12@H@Z)
       2253  8CC 000112D9 ?get_top_bottom@UNICHARSET@tesseract@@QEBAXHPEAH000@Z = @ILT+66260(?get_top_bottom@UNICHARSET@tesseract@@QEBAXHPEAH000@Z)
       2254  8CD 00005FBA ?get_total@CHAR_FRAGMENT@tesseract@@QEBAHXZ = @ILT+20405(?get_total@CHAR_FRAGMENT@tesseract@@QEBAHXZ)
       2255  8CE 00002B44 ?get_total@STATS@tesseract@@QEBAHXZ = @ILT+6975(?get_total@STATS@tesseract@@QEBAHXZ)
       2256  8CF 00017594 ?get_unichar@CHAR_FRAGMENT@tesseract@@QEBAPEBDXZ = @ILT+91535(?get_unichar@CHAR_FRAGMENT@tesseract@@QEBAPEBDXZ)
       2257  8D0 0000B5D2 ?get_utf8@const_iterator@UNICHAR@tesseract@@QEBAHPEAD@Z = @ILT+42445(?get_utf8@const_iterator@UNICHAR@tesseract@@QEBAHPEAD@Z)
       2258  8D1 0000A43E ?get_width_stats@UNICHARSET@tesseract@@QEBAXHPEAM0@Z = @ILT+37945(?get_width_stats@UNICHARSET@tesseract@@QEBAXHPEAM0@Z)
       2259  8D2 00007482 ?given_greater_than_edge_rec@Dawg@tesseract@@IEBAH_J_NHAEB_K@Z = @ILT+25725(?given_greater_than_edge_rec@Dawg@tesseract@@IEBAH_J_NHAEB_K@Z)
       2260  8D3 0000ABEB ?go_deeper_dawg_fxn@Dict@tesseract@@QEAAXPEBDAEBV?$vector@PEAVBLOB_CHOICE_LIST@tesseract@@V?$allocator@PEAVBLOB_CHOICE_LIST@tesseract@@@std@@@std@@HPEBUCHAR_FRAGMENT_INFO@2@_NPEAVWERD_CHOICE@2@QEAMPEAM4PEAHPEAX@Z = @ILT+39910(?go_deeper_dawg_fxn@Dict@tesseract@@QEAAXPEBDAEBV?$vector@PEAVBLOB_CHOICE_LIST@tesseract@@V?$allocator@PEAVBLOB_CHOICE_LIST@tesseract@@@std@@@std@@HPEBUCHAR_FRAGMENT_INFO@2@_NPEAVWERD_CHOICE@2@QEAMPEAM4PEAHPEAX@Z)
       2261  8D4 00018D63 ?good_blob_score@ColPartition@tesseract@@QEBAHXZ = @ILT+97630(?good_blob_score@ColPartition@tesseract@@QEBAHXZ)
       2262  8D5 0000BE7E ?good_column@ColPartition@tesseract@@QEBA_NXZ = @ILT+44665(?good_column@ColPartition@tesseract@@QEBA_NXZ)
       2263  8D6 000141B9 ?good_width@ColPartition@tesseract@@QEBA_NXZ = @ILT+78260(?good_width@ColPartition@tesseract@@QEBA_NXZ)
       2264  8D7 000045A2 ?grade_sharpness@Wordrec@tesseract@@QEAAMPEAUSPLIT@2@@Z = @ILT+13725(?grade_sharpness@Wordrec@tesseract@@QEAAMPEAUSPLIT@2@@Z)
       2265  8D8 0000270C ?grade_split_length@Wordrec@tesseract@@QEAAMPEAUSPLIT@2@@Z = @ILT+5895(?grade_split_length@Wordrec@tesseract@@QEAAMPEAUSPLIT@2@@Z)
       2266  8D9 0001145F ?greek_sid@UNICHARSET@tesseract@@QEBAHXZ = @ILT+66650(?greek_sid@UNICHARSET@tesseract@@QEBAHXZ)
       2267  8DA 0000975A ?gridheight@GridBase@tesseract@@QEBAHXZ = @ILT+34645(?gridheight@GridBase@tesseract@@QEBAHXZ)
       2268  8DB 0000A263 ?gridheight@TableFinder@tesseract@@IEBAHXZ = @ILT+37470(?gridheight@TableFinder@tesseract@@IEBAHXZ)
       2269  8DC 00001041 ?gridsize@GridBase@tesseract@@QEBAHXZ = @ILT+60(?gridsize@GridBase@tesseract@@QEBAHXZ)
       2270  8DD 0000E38B ?gridsize@TableFinder@tesseract@@IEBAHXZ = @ILT+54150(?gridsize@TableFinder@tesseract@@IEBAHXZ)
       2271  8DE 00009160 ?gridwidth@GridBase@tesseract@@QEBAHXZ = @ILT+33115(?gridwidth@GridBase@tesseract@@QEBAHXZ)
       2272  8DF 00019D67 ?gridwidth@TableFinder@tesseract@@IEBAHXZ = @ILT+101730(?gridwidth@TableFinder@tesseract@@IEBAHXZ)
       2273  8E0 00A8B8F0 ?hamming_table_@BitVector@tesseract@@2QBHB = ?hamming_table_@BitVector@tesseract@@2QBHB (public: static int const * const tesseract::BitVector::hamming_table_)
       2274  8E1 0001077B ?han_sid@UNICHARSET@tesseract@@QEBAHXZ = @ILT+63350(?han_sid@UNICHARSET@tesseract@@QEBAHXZ)
       2275  8E2 00019AF1 ?hangul_sid@UNICHARSET@tesseract@@QEBAHXZ = @ILT+101100(?hangul_sid@UNICHARSET@tesseract@@QEBAHXZ)
       2276  8E3 00005EA7 ?happy@TessResultRenderer@tesseract@@QEBA_NXZ = @ILT+20130(?happy@TessResultRenderer@tesseract@@QEBA_NXZ)
       2277  8E4 0001CCD3 ?has_hyphen_end@Dict@tesseract@@QEBA_NAEBVWERD_CHOICE@2@@Z = @ILT+113870(?has_hyphen_end@Dict@tesseract@@QEBA_NAEBVWERD_CHOICE@2@@Z)
       2278  8E5 0001A285 ?has_hyphen_end@Dict@tesseract@@QEBA_NPEBVUNICHARSET@2@H_N@Z = @ILT+103040(?has_hyphen_end@Dict@tesseract@@QEBA_NPEBVUNICHARSET@2@H_N@Z)
       2279  8E6 00019BE1 ?has_rtl_unichar_id@WERD_CHOICE@tesseract@@QEBA_NXZ = @ILT+101340(?has_rtl_unichar_id@WERD_CHOICE@tesseract@@QEBA_NXZ)
       2280  8E7 00019E2A ?has_special_codes@UNICHARSET@tesseract@@QEBA_NXZ = @ILT+101925(?has_special_codes@UNICHARSET@tesseract@@QEBA_NXZ)
       2281  8E8 00001D4D ?height@TBOX@tesseract@@QEBAFXZ = @ILT+3400(?height@TBOX@tesseract@@QEBAFXZ)
       2282  8E9 00018511 ?hiragana_sid@UNICHARSET@tesseract@@QEBAHXZ = @ILT+95500(?hiragana_sid@UNICHARSET@tesseract@@QEBAHXZ)
       2283  8EA 000115CC ?hyphen_base_size@Dict@tesseract@@QEBAHXZ = @ILT+67015(?hyphen_base_size@Dict@tesseract@@QEBAHXZ)
       2284  8EB 000040F7 ?hyphenated@Dict@tesseract@@QEBA_NXZ = @ILT+12530(?hyphenated@Dict@tesseract@@QEBA_NXZ)
       2285  8EC 0000ED8B ?i@NetworkIO@tesseract@@QEBAPEBCH@Z = @ILT+56710(?i@NetworkIO@tesseract@@QEBAPEBCH@Z)
       2286  8ED 0000811B ?id_to_unichar@UNICHARSET@tesseract@@QEBAPEBDH@Z = @ILT+28950(?id_to_unichar@UNICHARSET@tesseract@@QEBAPEBDH@Z)
       2287  8EE 00015DF2 ?id_to_unichar_ext@UNICHARSET@tesseract@@QEBAPEBDH@Z = @ILT+85485(?id_to_unichar_ext@UNICHARSET@tesseract@@QEBAPEBDH@Z)
       2288  8EF 000037D3 ?ile@STATS@tesseract@@QEBANN@Z = @ILT+10190(?ile@STATS@tesseract@@QEBANN@Z)
       2289  8F0 00008DC3 ?imageToPDFObj@TessPDFRenderer@tesseract@@CA_NPEAUPix@@PEBDJPEAPEADPEAJH@Z = @ILT+32190(?imageToPDFObj@TessPDFRenderer@tesseract@@CA_NPEAUPix@@PEBDJPEAPEADPEAJH@Z)
       2290  8F1 000150F5 ?image_data@ImageData@tesseract@@QEBAAEBV?$vector@DV?$allocator@D@std@@@std@@XZ = @ILT+82160(?image_data@ImageData@tesseract@@QEBAAEBV?$vector@DV?$allocator@D@std@@@std@@XZ)
       2291  8F2 00D59A54 ?image_index_@ScrollView@tesseract@@0HA = ?image_index_@ScrollView@tesseract@@0HA (private: static int tesseract::ScrollView::image_index_)
       2292  8F3 0001176B ?image_origin@TabFind@tesseract@@QEBAAEBVICOORD@2@XZ = @ILT+67430(?image_origin@TabFind@tesseract@@QEBAAEBVICOORD@2@XZ)
       2293  8F4 0001BE00 ?imagefilename@ImageData@tesseract@@QEBAAEBV?$basic_string@DU?$char_traits@D@std@@V?$allocator@D@2@@std@@XZ = @ILT+110075(?imagefilename@ImageData@tesseract@@QEBAAEBV?$basic_string@DU?$char_traits@D@std@@V?$allocator@D@2@@std@@XZ)
       2294  8F5 0001828C ?imagenum@TessResultRenderer@tesseract@@QEBAHXZ = @ILT+94855(?imagenum@TessResultRenderer@tesseract@@QEBAHXZ)
       2295  8F6 000135E3 ?improve_by_chopping@Wordrec@tesseract@@QEAAXMPEAVWERD_RES@2@PEAUBestChoiceBundle@2@PEAUBlamerBundle@2@PEAVLMPainPoints@2@PEAV?$vector@VSegSearchPending@tesseract@@V?$allocator@VSegSearchPending@tesseract@@@std@@@std@@@Z = @ILT+75230(?improve_by_chopping@Wordrec@tesseract@@QEAAXMPEAVWERD_RES@2@PEAUBestChoiceBundle@2@PEAUBlamerBundle@2@PEAVLMPainPoints@2@PEAV?$vector@VSegSearchPending@tesseract@@V?$allocator@VSegSearchPending@tesseract@@@std@@@std@@@Z)
       2296  8F7 00003099 ?improve_one_blob@Wordrec@tesseract@@QEAAPEAVSEAM@2@AEBV?$vector@PEAVBLOB_CHOICE@tesseract@@V?$allocator@PEAVBLOB_CHOICE@tesseract@@@std@@@std@@PEAV?$vector@UDANGERR_INFO@tesseract@@V?$allocator@UDANGERR_INFO@tesseract@@@std@@@5@_N2PEAVWERD_RES@2@PEAH@Z = @ILT+8340(?improve_one_blob@Wordrec@tesseract@@QEAAPEAVSEAM@2@AEBV?$vector@PEAVBLOB_CHOICE@tesseract@@V?$allocator@PEAVBLOB_CHOICE@tesseract@@@std@@@std@@PEAV?$vector@UDANGERR_INFO@tesseract@@V?$allocator@UDANGERR_INFO@tesseract@@@std@@@5@_N2PEAVWERD_RES@2@PEAH@Z)
       2297  8F8 0000BFB4 ?indexed_features@TrainingSample@tesseract@@QEBAAEBV?$vector@HV?$allocator@H@std@@@std@@XZ = @ILT+44975(?indexed_features@TrainingSample@tesseract@@QEBAAEBV?$vector@HV?$allocator@H@std@@@std@@XZ)
       2298  8F9 0000A5D8 ?init@Dawg@tesseract@@IEAAXH@Z = @ILT+38355(?init@Dawg@tesseract@@IEAAXH@Z)
       2299  8FA 0000669A ?init@WERD_CHOICE@tesseract@@QEAAXH@Z = @ILT+22165(?init@WERD_CHOICE@tesseract@@QEAAXH@Z)
       2300  8FB 00017102 ?init@WERD_CHOICE@tesseract@@QEAAXPEBD0MME@Z = @ILT+90365(?init@WERD_CHOICE@tesseract@@QEAAXPEBD0MME@Z)
       2301  8FC 0000B95B ?init_active_dawgs@Dict@tesseract@@QEBAXPEAVDawgPositionVector@2@_N@Z = @ILT+43350(?init_active_dawgs@Dict@tesseract@@QEBAXPEAVDawgPositionVector@2@_N@Z)
       2302  8FD 00001032 ?init_recog_training@Tesseract@tesseract@@QEAAPEAU_iobuf@@PEBD@Z = @ILT+45(?init_recog_training@Tesseract@tesseract@@QEAAPEAU_iobuf@@PEBD@Z)
       2303  8FE 0001D1BA ?init_tesseract@Tesseract@tesseract@@QEAAHAEBV?$basic_string@DU?$char_traits@D@std@@V?$allocator@D@2@@std@@00W4OcrEngineMode@2@PEAPEADHPEBV?$vector@V?$basic_string@DU?$char_traits@D@std@@V?$allocator@D@2@@std@@V?$allocator@V?$basic_string@DU?$char_traits@D@std@@V?$allocator@D@2@@std@@@2@@4@3_NPEAVTessdataManager@2@@Z = @ILT+115125(?init_tesseract@Tesseract@tesseract@@QEAAHAEBV?$basic_string@DU?$char_traits@D@std@@V?$allocator@D@2@@std@@00W4OcrEngineMode@2@PEAPEADHPEBV?$vector@V?$basic_string@DU?$char_traits@D@std@@V?$allocator@D@2@@std@@V?$allocator@V?$basic_string@DU?$char_traits@D@std@@V?$allocator@D@2@@std@@@2@@4@3_NPEAVTessdataManager@2@@Z)
       2304  8FF 00014EF7 ?init_tesseract@Tesseract@tesseract@@QEAAHAEBV?$basic_string@DU?$char_traits@D@std@@V?$allocator@D@2@@std@@0W4OcrEngineMode@2@@Z = @ILT+81650(?init_tesseract@Tesseract@tesseract@@QEAAHAEBV?$basic_string@DU?$char_traits@D@std@@V?$allocator@D@2@@std@@0W4OcrEngineMode@2@@Z)
       2305  900 00007B76 ?init_tesseract_internal@Tesseract@tesseract@@QEAAHAEBV?$basic_string@DU?$char_traits@D@std@@V?$allocator@D@2@@std@@00W4OcrEngineMode@2@PEAPEADHPEBV?$vector@V?$basic_string@DU?$char_traits@D@std@@V?$allocator@D@2@@std@@V?$allocator@V?$basic_string@DU?$char_traits@D@std@@V?$allocator@D@2@@std@@@2@@4@3_NPEAVTessdataManager@2@@Z = @ILT+27505(?init_tesseract_internal@Tesseract@tesseract@@QEAAHAEBV?$basic_string@DU?$char_traits@D@std@@V?$allocator@D@2@@std@@00W4OcrEngineMode@2@PEAPEADHPEBV?$vector@V?$basic_string@DU?$char_traits@D@std@@V?$allocator@D@2@@std@@V?$allocator@V?$basic_string@DU?$char_traits@D@std@@V?$allocator@D@2@@std@@@2@@4@3_NPEAVTessdataManager@2@@Z)
       2306  901 00010717 ?init_tesseract_lang_data@Tesseract@tesseract@@QEAA_NAEBV?$basic_string@DU?$char_traits@D@std@@V?$allocator@D@2@@std@@00W4OcrEngineMode@2@PEAPEADHPEBV?$vector@V?$basic_string@DU?$char_traits@D@std@@V?$allocator@D@2@@std@@V?$allocator@V?$basic_string@DU?$char_traits@D@std@@V?$allocator@D@2@@std@@@2@@4@3_NPEAVTessdataManager@2@@Z = @ILT+63250(?init_tesseract_lang_data@Tesseract@tesseract@@QEAA_NAEBV?$basic_string@DU?$char_traits@D@std@@V?$allocator@D@2@@std@@00W4OcrEngineMode@2@PEAPEADHPEBV?$vector@V?$basic_string@DU?$char_traits@D@std@@V?$allocator@D@2@@std@@V?$allocator@V?$basic_string@DU?$char_traits@D@std@@V?$allocator@D@2@@std@@@2@@4@3_NPEAVTessdataManager@2@@Z)
       2307  902 00004511 ?init_tesseract_lm@Tesseract@tesseract@@QEAAHAEBV?$basic_string@DU?$char_traits@D@std@@V?$allocator@D@2@@std@@00PEAVTessdataManager@2@@Z = @ILT+13580(?init_tesseract_lm@Tesseract@tesseract@@QEAAHAEBV?$basic_string@DU?$char_traits@D@std@@V?$allocator@D@2@@std@@00PEAVTessdataManager@2@@Z)
       2308  903 00017BCA ?initialize_patterns@Trie@tesseract@@QEAAXPEAVUNICHARSET@2@@Z = @ILT+93125(?initialize_patterns@Trie@tesseract@@QEAAXPEAVUNICHARSET@2@@Z)
       2309  904 00016F36 ?insert@TessResultRenderer@tesseract@@QEAAXPEAV12@@Z = @ILT+89905(?insert@TessResultRenderer@tesseract@@QEAAXPEAV12@@Z)
       2310  905 00011F45 ?insert@UNICHARMAP@tesseract@@QEAAXQEBDH@Z = @ILT+69440(?insert@UNICHARMAP@tesseract@@QEAAXQEBDH@Z)
       2311  906 0000DCDD ?inside_table_column@ColPartition@tesseract@@QEAA_NXZ = @ILT+52440(?inside_table_column@ColPartition@tesseract@@QEAA_NXZ)
       2312  907 00D59DC0 ?intSimdMatrix@IntSimdMatrix@tesseract@@2PEBU12@EB = ?intSimdMatrix@IntSimdMatrix@tesseract@@2PEBU12@EB (public: static struct tesseract::IntSimdMatrix const * const tesseract::IntSimdMatrix::intSimdMatrix)
       2313  908 00B6EC70 ?intSimdMatrixAVX2@IntSimdMatrix@tesseract@@2U12@B = ?intSimdMatrixAVX2@IntSimdMatrix@tesseract@@2U12@B (public: static struct tesseract::IntSimdMatrix const tesseract::IntSimdMatrix::intSimdMatrixAVX2)
       2314  909 00B6F8C8 ?intSimdMatrixSSE@IntSimdMatrix@tesseract@@2U12@B = ?intSimdMatrixSSE@IntSimdMatrix@tesseract@@2U12@B (public: static struct tesseract::IntSimdMatrix const tesseract::IntSimdMatrix::intSimdMatrixSSE)
       2315  90A 0000D9D1 ?int_mode@NetworkIO@tesseract@@QEBA_NXZ = @ILT+51660(?int_mode@NetworkIO@tesseract@@QEBA_NXZ)
       2316  90B 000114DC ?internal_clear@ELIST2@tesseract@@QEAAXP6AXPEAX@Z@Z = @ILT+66775(?internal_clear@ELIST2@tesseract@@QEAAXP6AXPEAX@Z@Z)
       2317  90C 0000CA6D ?internal_clear@ELIST@tesseract@@QEAAXP6AXPEAX@Z@Z = @ILT+47720(?internal_clear@ELIST@tesseract@@QEAAXP6AXPEAX@Z@Z)
       2318  90D 0001A816 ?internal_deep_clear@CLIST@tesseract@@QEAAXP6AXPEAX@Z@Z = @ILT+104465(?internal_deep_clear@CLIST@tesseract@@QEAAXP6AXPEAX@Z@Z)
       2319  90E 00018BF6 ?internal_forward@PAGE_RES_IT@tesseract@@AEAAPEAVWERD_RES@2@_N0@Z = @ILT+97265(?internal_forward@PAGE_RES_IT@tesseract@@AEAAPEAVWERD_RES@2@_N0@Z)
       2320  90F 000183E5 ?intersection@TBOX@tesseract@@QEBA?AV12@AEBV12@@Z = @ILT+95200(?intersection@TBOX@tesseract@@QEBA?AV12@AEBV12@@Z)
       2321  910 00014ADD ?inverse@DENORM@tesseract@@QEBA_NXZ = @ILT+80600(?inverse@DENORM@tesseract@@QEBA_NXZ)
       2322  911 0001BB5D ?isA@POLY_BLOCK@tesseract@@QEBA?AW4PolyBlockType@2@XZ = @ILT+109400(?isA@POLY_BLOCK@tesseract@@QEBA?AW4PolyBlockType@2@XZ)
       2323  912 00005FB0 ?isZero@Image@tesseract@@QEBA_NXZ = @ILT+20395(?isZero@Image@tesseract@@QEBA_NXZ)
       2324  913 0000D6A7 ?is_apostrophe@Dict@tesseract@@QEAA_NH@Z = @ILT+50850(?is_apostrophe@Dict@tesseract@@QEAA_NH@Z)
       2325  914 0000C158 ?is_beginning@CHAR_FRAGMENT@tesseract@@QEBA_NXZ = @ILT+45395(?is_beginning@CHAR_FRAGMENT@tesseract@@QEBA_NXZ)
       2326  915 0001280A ?is_continuation_of@CHAR_FRAGMENT@tesseract@@QEBA_NPEBV12@@Z = @ILT+71685(?is_continuation_of@CHAR_FRAGMENT@tesseract@@QEBA_NPEBV12@@Z)
       2327  916 0001B1B2 ?is_ending@CHAR_FRAGMENT@tesseract@@QEBA_NXZ = @ILT+106925(?is_ending@CHAR_FRAGMENT@tesseract@@QEBA_NXZ)
       2328  917 000066F4 ?is_error@TrainingSample@tesseract@@QEBA_NXZ = @ILT+22255(?is_error@TrainingSample@tesseract@@QEBA_NXZ)
       2329  918 00012F58 ?is_flush@ParagraphModel@tesseract@@QEBA_NXZ = @ILT+73555(?is_flush@ParagraphModel@tesseract@@QEBA_NXZ)
       2330  919 0001836D ?is_inside_angle@Wordrec@tesseract@@QEAA_NPEAUEDGEPT@2@@Z = @ILT+95080(?is_inside_angle@Wordrec@tesseract@@QEAA_NPEAUEDGEPT@2@@Z)
       2331  91A 000193F3 ?is_legal@const_iterator@UNICHAR@tesseract@@QEBA_NXZ = @ILT+99310(?is_legal@const_iterator@UNICHAR@tesseract@@QEBA_NXZ)
       2332  91B 00009327 ?is_lined@StructuredTable@tesseract@@QEBA_NXZ = @ILT+33570(?is_lined@StructuredTable@tesseract@@QEBA_NXZ)
       2333  91C 000041BF ?is_loaded@TessdataManager@tesseract@@QEBA_NXZ = @ILT+12730(?is_loaded@TessdataManager@tesseract@@QEBA_NXZ)
       2334  91D 00002833 ?is_natural@CHAR_FRAGMENT@tesseract@@QEBA_NXZ = @ILT+6190(?is_natural@CHAR_FRAGMENT@tesseract@@QEBA_NXZ)
       2335  91E 00012BE8 ?is_null_script@UNICHARSET@tesseract@@QEBA_NPEBD@Z = @ILT+72675(?is_null_script@UNICHARSET@tesseract@@QEBA_NPEBD@Z)
       2336  91F 0001ACD5 ?iterate_words@Dawg@tesseract@@QEBAXAEBVUNICHARSET@2@V?$function@$$A6AXPEBD@Z@std@@@Z = @ILT+105680(?iterate_words@Dawg@tesseract@@QEBAXAEBVUNICHARSET@2@V?$function@$$A6AXPEBD@Z@std@@@Z)
       2337  920 0001AA6E ?iterate_words@Dawg@tesseract@@QEBAXAEBVUNICHARSET@2@V?$function@$$A6AXPEBVWERD_CHOICE@tesseract@@@Z@std@@@Z = @ILT+105065(?iterate_words@Dawg@tesseract@@QEBAXAEBVUNICHARSET@2@V?$function@$$A6AXPEBVWERD_CHOICE@tesseract@@@Z@std@@@Z)
       2338  921 00019EF2 ?iterate_words_rec@Dawg@tesseract@@IEBAXAEBVWERD_CHOICE@2@_JV?$function@$$A6AXPEBVWERD_CHOICE@tesseract@@@Z@std@@@Z = @ILT+102125(?iterate_words_rec@Dawg@tesseract@@IEBAXAEBVWERD_CHOICE@2@_JV?$function@$$A6AXPEBVWERD_CHOICE@tesseract@@@Z@std@@@Z)
       2339  922 0000CD65 ?join_on@WERD@tesseract@@QEAAXPEAV12@@Z = @ILT+48480(?join_on@WERD@tesseract@@QEAAXPEAV12@@Z)
       2340  923 00016FB3 ?join_words@Tesseract@tesseract@@QEBAXPEAVWERD_RES@2@0PEAUBlamerBundle@2@@Z = @ILT+90030(?join_words@Tesseract@tesseract@@QEBAXPEAVWERD_RES@2@0PEAUBlamerBundle@2@@Z)
       2341  924 00008E7C ?justification@ParagraphModel@tesseract@@QEBA?AW4ParagraphJustification@2@XZ = @ILT+32375(?justification@ParagraphModel@tesseract@@QEBA?AW4ParagraphJustification@2@XZ)
       2342  925 00AD781C ?kAlphaPatternUnicode@Trie@tesseract@@2QBDB = ?kAlphaPatternUnicode@Trie@tesseract@@2QBDB (public: static char const * const tesseract::Trie::kAlphaPatternUnicode)
       2343  926 00AD796C ?kAlphanumPatternUnicode@Trie@tesseract@@2QBDB = ?kAlphanumPatternUnicode@Trie@tesseract@@2QBDB (public: static char const * const tesseract::Trie::kAlphanumPatternUnicode)
       2344  927 00A6F910 ?kAscenderFraction@CCStruct@tesseract@@2NB = ?kAscenderFraction@CCStruct@tesseract@@2NB (public: static double const tesseract::CCStruct::kAscenderFraction)
       2345  928 00A83460 ?kBadRating@WERD_CHOICE@tesseract@@2MB = ?kBadRating@WERD_CHOICE@tesseract@@2MB (public: static float const tesseract::WERD_CHOICE::kBadRating)
       2346  929 00AF9D20 ?kBeamWidths@RecodeBeamSearch@tesseract@@0QBHB = ?kBeamWidths@RecodeBeamSearch@tesseract@@0QBHB (private: static int const * const tesseract::RecodeBeamSearch::kBeamWidths)
       2347  92A 00A73CDC ?kBitFactor@BitVector@tesseract@@0HB = ?kBitFactor@BitVector@tesseract@@0HB (private: static int const tesseract::BitVector::kBitFactor)
       2348  92B 00ABADE8 ?kCNFeatureType@tesseract@@3QEBDEB = ?kCNFeatureType@tesseract@@3QEBDEB (char const * const tesseract::kCNFeatureType)
       2349  92C 00C84190 ?kCleanupMaps@UNICHARSET@tesseract@@0PAY01PEBDA = ?kCleanupMaps@UNICHARSET@tesseract@@0PAY01PEBDA (private: static char const * (* tesseract::UNICHARSET::kCleanupMaps)[2])
       2350  92D 00A5923C ?kComplexWord@ResultIterator@tesseract@@2HB = ?kComplexWord@ResultIterator@tesseract@@2HB (public: static int const tesseract::ResultIterator::kComplexWord)
       2351  92E 00C84110 ?kCustomLigatures@UNICHARSET@tesseract@@2PAY01PEBDA = ?kCustomLigatures@UNICHARSET@tesseract@@2PAY01PEBDA (public: static char const * (* tesseract::UNICHARSET::kCustomLigatures)[2])
       2352  92F 00A21114 ?kDawgMagicNumber@Dawg@tesseract@@2FB = ?kDawgMagicNumber@Dawg@tesseract@@2FB (public: static short const tesseract::Dawg::kDawgMagicNumber)
       2353  930 00A6F900 ?kDescenderFraction@CCStruct@tesseract@@2NB = ?kDescenderFraction@CCStruct@tesseract@@2NB (public: static double const tesseract::CCStruct::kDescenderFraction)
       2354  931 00AD7944 ?kDigitPatternUnicode@Trie@tesseract@@2QBDB = ?kDigitPatternUnicode@Trie@tesseract@@2QBDB (public: static char const * const tesseract::Trie::kDigitPatternUnicode)
       2355  932 00A30618 ?kFirstHangul@UnicharCompress@tesseract@@2HB = ?kFirstHangul@UnicharCompress@tesseract@@2HB (public: static int const tesseract::UnicharCompress::kFirstHangul)
       2356  933 00ABADF8 ?kGeoFeatureType@tesseract@@3QEBDEB = ?kGeoFeatureType@tesseract@@3QEBDEB (char const * const tesseract::kGeoFeatureType)
       2357  934 00ABADF0 ?kIntFeatureType@tesseract@@3QEBDEB = ?kIntFeatureType@tesseract@@3QEBDEB (char const * const tesseract::kIntFeatureType)
       2358  935 00A30620 ?kLCount@UnicharCompress@tesseract@@2HB = ?kLCount@UnicharCompress@tesseract@@2HB (public: static int const tesseract::UnicharCompress::kLCount)
       2359  936 00AD7A04 ?kLowerPatternUnicode@Trie@tesseract@@2QBDB = ?kLowerPatternUnicode@Trie@tesseract@@2QBDB (public: static char const * const tesseract::Trie::kLowerPatternUnicode)
       2360  937 00A21124 ?kMaxChunks@CHAR_FRAGMENT@tesseract@@2HB = ?kMaxChunks@CHAR_FRAGMENT@tesseract@@2HB (public: static int const tesseract::CHAR_FRAGMENT::kMaxChunks)
       2361  938 00A21120 ?kMaxLen@CHAR_FRAGMENT@tesseract@@2HB = ?kMaxLen@CHAR_FRAGMENT@tesseract@@2HB (public: static int const tesseract::CHAR_FRAGMENT::kMaxLen)
       2362  939 00ABADE0 ?kMicroFeatureType@tesseract@@3QEBDEB = ?kMicroFeatureType@tesseract@@3QEBDEB (char const * const tesseract::kMicroFeatureType)
       2363  93A 00A3060C ?kMinCertainty@RecodeBeamSearch@tesseract@@2MB = ?kMinCertainty@RecodeBeamSearch@tesseract@@2MB (public: static float const tesseract::RecodeBeamSearch::kMinCertainty)
       2364  93B 00A2111C ?kMinLen@CHAR_FRAGMENT@tesseract@@2HB = ?kMinLen@CHAR_FRAGMENT@tesseract@@2HB (public: static int const tesseract::CHAR_FRAGMENT::kMinLen)
       2365  93C 00A59224 ?kMinorRunEnd@ResultIterator@tesseract@@2HB = ?kMinorRunEnd@ResultIterator@tesseract@@2HB (public: static int const tesseract::ResultIterator::kMinorRunEnd)
       2366  93D 00A59214 ?kMinorRunStart@ResultIterator@tesseract@@2HB = ?kMinorRunStart@ResultIterator@tesseract@@2HB (public: static int const tesseract::ResultIterator::kMinorRunStart)
       2367  93E 00A30614 ?kNumBeams@RecodeBeamSearch@tesseract@@2HB = ?kNumBeams@RecodeBeamSearch@tesseract@@2HB (public: static int const tesseract::RecodeBeamSearch::kNumBeams)
       2368  93F 00A3061C ?kNumHangul@UnicharCompress@tesseract@@2HB = ?kNumHangul@UnicharCompress@tesseract@@2HB (public: static int const tesseract::UnicharCompress::kNumHangul)
       2369  940 00A30610 ?kNumLengths@RecodeBeamSearch@tesseract@@2HB = ?kNumLengths@RecodeBeamSearch@tesseract@@2HB (public: static int const tesseract::RecodeBeamSearch::kNumLengths)
       2370  941 00A21118 ?kPatternUnicharID@Dawg@tesseract@@2HB = ?kPatternUnicharID@Dawg@tesseract@@2HB (public: static int const tesseract::Dawg::kPatternUnicharID)
       2371  942 00AD79AC ?kPuncPatternUnicode@Trie@tesseract@@2QBDB = ?kPuncPatternUnicode@Trie@tesseract@@2QBDB (public: static char const * const tesseract::Trie::kPuncPatternUnicode)
       2372  943 00A21128 ?kSaneNumConcreteChars@Trie@tesseract@@2HB = ?kSaneNumConcreteChars@Trie@tesseract@@2HB (public: static int const tesseract::Trie::kSaneNumConcreteChars)
       2373  944 00ACDA68 ?kScaleValues@TrainingSample@tesseract@@0QBNB = ?kScaleValues@TrainingSample@tesseract@@0QBNB (private: static double const * const tesseract::TrainingSample::kScaleValues)
       2374  945 00C84170 ?kSpecialUnicharCodes@UNICHARSET@tesseract@@2PAPEBDA = ?kSpecialUnicharCodes@UNICHARSET@tesseract@@2PAPEBDA (public: static char const * * tesseract::UNICHARSET::kSpecialUnicharCodes)
       2375  946 00A30628 ?kTCount@UnicharCompress@tesseract@@2HB = ?kTCount@UnicharCompress@tesseract@@2HB (public: static int const tesseract::UnicharCompress::kTCount)
       2376  947 00AD7A2C ?kUpperPatternUnicode@Trie@tesseract@@2QBDB = ?kUpperPatternUnicode@Trie@tesseract@@2QBDB (public: static char const * const tesseract::Trie::kUpperPatternUnicode)
       2377  948 00A30624 ?kVCount@UnicharCompress@tesseract@@2HB = ?kVCount@UnicharCompress@tesseract@@2HB (public: static int const tesseract::UnicharCompress::kVCount)
       2378  949 00A6F918 ?kXHeightCapRatio@CCStruct@tesseract@@2NB = ?kXHeightCapRatio@CCStruct@tesseract@@2NB (public: static double const tesseract::CCStruct::kXHeightCapRatio)
       2379  94A 00A6F908 ?kXHeightFraction@CCStruct@tesseract@@2NB = ?kXHeightFraction@CCStruct@tesseract@@2NB (public: static double const tesseract::CCStruct::kXHeightFraction)
       2380  94B 00ACDA50 ?kYShiftValues@TrainingSample@tesseract@@0QBHB = ?kYShiftValues@TrainingSample@tesseract@@0QBHB (private: static int const * const tesseract::TrainingSample::kYShiftValues)
       2381  94C 00009B74 ?katakana_sid@UNICHARSET@tesseract@@QEBAHXZ = @ILT+35695(?katakana_sid@UNICHARSET@tesseract@@QEBAHXZ)
       2382  94D 00006479 ?kern@BLOCK@tesseract@@QEBAFXZ = @ILT+21620(?kern@BLOCK@tesseract@@QEBAFXZ)
       2383  94E 00009606 ?lang@Dawg@tesseract@@QEBAAEBV?$basic_string@DU?$char_traits@D@std@@V?$allocator@D@2@@std@@XZ = @ILT+34305(?lang@Dawg@tesseract@@QEBAAEBV?$basic_string@DU?$char_traits@D@std@@V?$allocator@D@2@@std@@XZ)
       2384  94F 0000AB41 ?language@ImageData@tesseract@@QEBAAEBV?$basic_string@DU?$char_traits@D@std@@V?$allocator@D@2@@std@@XZ = @ILT+39740(?language@ImageData@tesseract@@QEBAAEBV?$basic_string@DU?$char_traits@D@std@@V?$allocator@D@2@@std@@XZ)
       2385  950 000187C3 ?last_edge@SquishedDawg@tesseract@@AEBA_N_J@Z = @ILT+96190(?last_edge@SquishedDawg@tesseract@@AEBA_N_J@Z)
       2386  951 0001D020 ?latin_sid@UNICHARSET@tesseract@@QEBAHXZ = @ILT+114715(?latin_sid@UNICHARSET@tesseract@@QEBAHXZ)
       2387  952 0001B225 ?learning_rate@LSTMRecognizer@tesseract@@QEBAMXZ = @ILT+107040(?learning_rate@LSTMRecognizer@tesseract@@QEBAMXZ)
       2388  953 0000F29A ?left@TBOX@tesseract@@QEBAFXZ = @ILT+58005(?left@TBOX@tesseract@@QEBAFXZ)
       2389  954 0000CAF9 ?left_key@ColPartition@tesseract@@QEBAHXZ = @ILT+47860(?left_key@ColPartition@tesseract@@QEBAHXZ)
       2390  955 000094CB ?left_key_tab@ColPartition@tesseract@@QEBA_NXZ = @ILT+33990(?left_key_tab@ColPartition@tesseract@@QEBA_NXZ)
       2391  956 0001A091 ?left_margin@ColPartition@tesseract@@QEBAHXZ = @ILT+102540(?left_margin@ColPartition@tesseract@@QEBAHXZ)
       2392  957 00011356 ?length@CLIST@tesseract@@QEBAHXZ = @ILT+66385(?length@CLIST@tesseract@@QEBAHXZ)
       2393  958 0001CB25 ?length@CLIST_ITERATOR@tesseract@@QEBAHXZ = @ILT+113440(?length@CLIST_ITERATOR@tesseract@@QEBAHXZ)
       2394  959 000088D7 ?length@ELIST2@tesseract@@QEBAHXZ = @ILT+30930(?length@ELIST2@tesseract@@QEBAHXZ)
       2395  95A 00016A86 ?length@ELIST2_ITERATOR@tesseract@@QEBAHXZ = @ILT+88705(?length@ELIST2_ITERATOR@tesseract@@QEBAHXZ)
       2396  95B 000052C2 ?length@ELIST@tesseract@@QEBAHXZ = @ILT+17085(?length@ELIST@tesseract@@QEBAHXZ)
       2397  95C 0001AD6B ?length@ELIST_ITERATOR@tesseract@@QEBAHXZ = @ILT+105830(?length@ELIST_ITERATOR@tesseract@@QEBAHXZ)
       2398  95D 00014623 ?length@FCOORD@tesseract@@QEBAMXZ = @ILT+79390(?length@FCOORD@tesseract@@QEBAMXZ)
       2399  95E 0001B095 ?length@WERD_CHOICE@tesseract@@QEBAHXZ = @ILT+106640(?length@WERD_CHOICE@tesseract@@QEBAHXZ)
       2400  95F 0000DAEE ?link_edge@Trie@tesseract@@IEAAXPEA_K_J_NH2H@Z = @ILT+51945(?link_edge@Trie@tesseract@@IEAAXPEA_K_J_NH2H@Z)
       2401  960 00014515 ?load_from_file@UNICHARSET@tesseract@@QEAA_NPEAU_iobuf@@@Z = @ILT+79120(?load_from_file@UNICHARSET@tesseract@@QEAA_NPEAU_iobuf@@@Z)
       2402  961 000159C4 ?load_from_file@UNICHARSET@tesseract@@QEAA_NPEAU_iobuf@@_N@Z = @ILT+84415(?load_from_file@UNICHARSET@tesseract@@QEAA_NPEAU_iobuf@@_N@Z)
       2403  962 0000291E ?load_from_file@UNICHARSET@tesseract@@QEAA_NPEAVTFile@2@_N@Z = @ILT+6425(?load_from_file@UNICHARSET@tesseract@@QEAA_NPEAVTFile@2@_N@Z)
       2404  963 00001F1E ?load_from_file@UNICHARSET@tesseract@@QEAA_NQEBD@Z = @ILT+3865(?load_from_file@UNICHARSET@tesseract@@QEAA_NQEBD@Z)
       2405  964 000044C6 ?load_from_file@UNICHARSET@tesseract@@QEAA_NQEBD_N@Z = @ILT+13505(?load_from_file@UNICHARSET@tesseract@@QEAA_NQEBD_N@Z)
       2406  965 00001BA4 ?load_via_fgets@UNICHARSET@tesseract@@AEAA_NV?$function@$$A6APEADPEADH@Z@std@@_N@Z = @ILT+2975(?load_via_fgets@UNICHARSET@tesseract@@AEAA_NV?$function@$$A6APEADPEADH@Z@std@@_N@Z)
       2407  966 00012468 ?local_min@STATS@tesseract@@QEBA_NH@Z = @ILT+70755(?local_min@STATS@tesseract@@QEBA_NH@Z)
       2408  967 00001E33 ?lower_partners@ColPartition@tesseract@@QEAAPEAVColPartition_CLIST@2@XZ = @ILT+3630(?lower_partners@ColPartition@tesseract@@QEAAPEAVColPartition_CLIST@2@XZ)
       2409  968 00A8B7F0 ?lsb_eroded_@BitVector@tesseract@@2QBEB = ?lsb_eroded_@BitVector@tesseract@@2QBEB (public: static unsigned char const * const tesseract::BitVector::lsb_eroded_)
       2410  969 00A8B6F0 ?lsb_index_@BitVector@tesseract@@2QBEB = ?lsb_index_@BitVector@tesseract@@2QBEB (public: static unsigned char const * const tesseract::BitVector::lsb_index_)
       2411  96A 00017774 ?m@LLSQ@tesseract@@QEBANXZ = @ILT+92015(?m@LLSQ@tesseract@@QEBANXZ)
       2412  96B 0000771B ?main_setup@CCUtil@tesseract@@QEAAXAEBV?$basic_string@DU?$char_traits@D@std@@V?$allocator@D@2@@std@@0@Z = @ILT+26390(?main_setup@CCUtil@tesseract@@QEAAXAEBV?$basic_string@DU?$char_traits@D@std@@V?$allocator@D@2@@std@@0@Z)
       2413  96C 00009C0F ?major_overlap@TBOX@tesseract@@QEBA_NAEBV12@@Z = @ILT+35850(?major_overlap@TBOX@tesseract@@QEBA_NAEBV12@@Z)
       2414  96D 0000BECE ?major_right_to_left@UNICHARSET@tesseract@@QEBA_NXZ = @ILT+44745(?major_right_to_left@UNICHARSET@tesseract@@QEBA_NXZ)
       2415  96E 0000B98D ?major_x_overlap@TBOX@tesseract@@QEBA_NAEBV12@@Z = @ILT+43400(?major_x_overlap@TBOX@tesseract@@QEBA_NAEBV12@@Z)
       2416  96F 00014A1A ?major_y_overlap@TBOX@tesseract@@QEBA_NAEBV12@@Z = @ILT+80405(?major_y_overlap@TBOX@tesseract@@QEBA_NAEBV12@@Z)
       2417  970 00012DA5 ?make_bad@WERD_CHOICE@tesseract@@QEAAXXZ = @ILT+73120(?make_bad@WERD_CHOICE@tesseract@@QEAAXXZ)
       2418  971 0000A001 ?make_edge_ref@Trie@tesseract@@IEBA_J_J0@Z = @ILT+36860(?make_edge_ref@Trie@tesseract@@IEBA_J_J0@Z)
       2419  972 00010118 ?make_reject_map@Tesseract@tesseract@@QEAAXPEAVWERD_RES@2@PEAVROW@2@F@Z = @ILT+61715(?make_reject_map@Tesseract@tesseract@@QEAAXPEAVWERD_RES@2@PEAVROW@2@F@Z)
       2420  973 00008A99 ?mapped_features@TrainingSample@tesseract@@QEBAAEBV?$vector@HV?$allocator@H@std@@@std@@XZ = @ILT+31380(?mapped_features@TrainingSample@tesseract@@QEBAAEBV?$vector@HV?$allocator@H@std@@@std@@XZ)
       2421  974 000134FD ?margin@ParagraphModel@tesseract@@QEBAHXZ = @ILT+75000(?margin@ParagraphModel@tesseract@@QEBAHXZ)
       2422  975 0001BF77 ?mark_cycle_pt@CLIST_ITERATOR@tesseract@@QEAAXXZ = @ILT+110450(?mark_cycle_pt@CLIST_ITERATOR@tesseract@@QEAAXXZ)
       2423  976 00010FA0 ?mark_cycle_pt@ELIST2_ITERATOR@tesseract@@QEAAXXZ = @ILT+65435(?mark_cycle_pt@ELIST2_ITERATOR@tesseract@@QEAAXXZ)
       2424  977 0000EACA ?mark_cycle_pt@ELIST_ITERATOR@tesseract@@QEAAXXZ = @ILT+56005(?mark_cycle_pt@ELIST_ITERATOR@tesseract@@QEAAXXZ)
       2425  978 00010217 ?marker_flag_from_edge_rec@Dawg@tesseract@@IEBA_NAEB_K@Z = @ILT+61970(?marker_flag_from_edge_rec@Dawg@tesseract@@IEBA_NAEB_K@Z)
       2426  979 0001005A ?match_current_words@Tesseract@tesseract@@QEAAXAEAVWERD_RES_LIST@2@PEAVROW@2@PEAVBLOCK@2@@Z = @ILT+61525(?match_current_words@Tesseract@tesseract@@QEAAXAEAVWERD_RES_LIST@2@PEAVROW@2@PEAVBLOCK@2@@Z)
       2427  97A 0000179E ?match_word_pass_n@Tesseract@tesseract@@QEAAXHPEAVWERD_RES@2@PEAVROW@2@PEAVBLOCK@2@@Z = @ILT+1945(?match_word_pass_n@Tesseract@tesseract@@QEAAXHPEAVWERD_RES@2@PEAVROW@2@PEAVBLOCK@2@@Z)
       2428  97B 00005254 ?match_words@Dawg@tesseract@@IEBA_NPEAVWERD_CHOICE@2@H_JH@Z = @ILT+16975(?match_words@Dawg@tesseract@@IEBA_NPEAVWERD_CHOICE@2@H_JH@Z)
       2429  97C 0001BB35 ?max_bucket@STATS@tesseract@@QEBAHXZ = @ILT+109360(?max_bucket@STATS@tesseract@@QEBAHXZ)
       2430  97D 0000B16D ?max_dist@TrainingSample@tesseract@@QEBANXZ = @ILT+41320(?max_dist@TrainingSample@tesseract@@QEBANXZ)
       2431  97E 0000B4F6 ?max_x_height@WERD_CHOICE@tesseract@@QEBAMXZ = @ILT+42225(?max_x_height@WERD_CHOICE@tesseract@@QEBAMXZ)
       2432  97F 00016EAF ?mean@STATS@tesseract@@QEBANXZ = @ILT+89770(?mean@STATS@tesseract@@QEBANXZ)
       2433  980 00003AFD ?mean_point@LLSQ@tesseract@@QEBA?AVFCOORD@2@XZ = @ILT+11000(?mean_point@LLSQ@tesseract@@QEBA?AVFCOORD@2@XZ)
       2434  981 00011CA2 ?median@STATS@tesseract@@QEBANXZ = @ILT+68765(?median@STATS@tesseract@@QEBANXZ)
       2435  982 00007969 ?median_bottom@ColPartition@tesseract@@QEBAHXZ = @ILT+26980(?median_bottom@ColPartition@tesseract@@QEBAHXZ)
       2436  983 0001144B ?median_cell_height@StructuredTable@tesseract@@QEAAHXZ = @ILT+66630(?median_cell_height@StructuredTable@tesseract@@QEAAHXZ)
       2437  984 000199E3 ?median_cell_width@StructuredTable@tesseract@@QEAAHXZ = @ILT+100830(?median_cell_width@StructuredTable@tesseract@@QEAAHXZ)
       2438  985 00011F9A ?median_height@ColPartition@tesseract@@QEBAHXZ = @ILT+69525(?median_height@ColPartition@tesseract@@QEBAHXZ)
       2439  986 000114CD ?median_left@ColPartition@tesseract@@QEBAHXZ = @ILT+66760(?median_left@ColPartition@tesseract@@QEBAHXZ)
       2440  987 000192B3 ?median_right@ColPartition@tesseract@@QEBAHXZ = @ILT+98990(?median_right@ColPartition@tesseract@@QEBAHXZ)
       2441  988 0000EAAC ?median_size@BLOCK@tesseract@@QEBAAEBVICOORD@2@XZ = @ILT+55975(?median_size@BLOCK@tesseract@@QEBAAEBVICOORD@2@XZ)
       2442  989 0000EFB6 ?median_top@ColPartition@tesseract@@QEBAHXZ = @ILT+57265(?median_top@ColPartition@tesseract@@QEBAHXZ)
       2443  98A 0000DDD7 ?median_width@ColPartition@tesseract@@QEBAHXZ = @ILT+52690(?median_width@ColPartition@tesseract@@QEBAHXZ)
       2444  98B 00011F8B ?merge_and_put_fragment_lists@Wordrec@tesseract@@QEAAXFFFPEAVBLOB_CHOICE_LIST@2@PEAVMATRIX@2@@Z = @ILT+69510(?merge_and_put_fragment_lists@Wordrec@tesseract@@QEAAXFFFPEAVBLOB_CHOICE_LIST@2@PEAVMATRIX@2@@Z)
       2445  98C 0000AD17 ?merge_fragments@Wordrec@tesseract@@QEAAXPEAVMATRIX@2@F@Z = @ILT+40210(?merge_fragments@Wordrec@tesseract@@QEAAXPEAVMATRIX@2@F@Z)
       2446  98D 00016446 ?merge_tess_fails@WERD_RES@tesseract@@QEAAXXZ = @ILT+87105(?merge_tess_fails@WERD_RES@tesseract@@QEAAXXZ)
       2447  98E 0000415B ?micro_features@TrainingSample@tesseract@@QEBAPEBV?$array@M$05@std@@XZ = @ILT+12630(?micro_features@TrainingSample@tesseract@@QEBAPEBV?$array@M$05@std@@XZ)
       2448  98F 0000135C ?min_bucket@STATS@tesseract@@QEBAHXZ = @ILT+855(?min_bucket@STATS@tesseract@@QEBAHXZ)
       2449  990 00005E6B ?min_x_height@WERD_CHOICE@tesseract@@QEBAMXZ = @ILT+20070(?min_x_height@WERD_CHOICE@tesseract@@QEBAMXZ)
       2450  991 00017E6D ?minmatch@UNICHARMAP@tesseract@@QEBAHQEBD@Z = @ILT+93800(?minmatch@UNICHARMAP@tesseract@@QEBAHQEBD@Z)
       2451  992 00006FA0 ?mode@STATS@tesseract@@QEBAHXZ = @ILT+24475(?mode@STATS@tesseract@@QEBAHXZ)
       2452  993 0000C4DC ?move@C_BLOB@tesseract@@QEAAXVICOORD@2@@Z = @ILT+46295(?move@C_BLOB@tesseract@@QEAAXVICOORD@2@@Z)
       2453  994 000086F7 ?move@POLY_BLOCK@tesseract@@QEAAXVICOORD@2@@Z = @ILT+30450(?move@POLY_BLOCK@tesseract@@QEAAXVICOORD@2@@Z)
       2454  995 0000A21D ?move@QSPLINE@tesseract@@QEAAXVICOORD@2@@Z = @ILT+37400(?move@QSPLINE@tesseract@@QEAAXVICOORD@2@@Z)
       2455  996 0000A006 ?move@TBOX@tesseract@@QEAAXVFCOORD@2@@Z = @ILT+36865(?move@TBOX@tesseract@@QEAAXVFCOORD@2@@Z)
       2456  997 000047AF ?move@TBOX@tesseract@@QEAAXVICOORD@2@@Z = @ILT+14250(?move@TBOX@tesseract@@QEAAXVICOORD@2@@Z)
       2457  998 00005F92 ?move@WERD@tesseract@@QEAAXVICOORD@2@@Z = @ILT+20365(?move@WERD@tesseract@@QEAAXVICOORD@2@@Z)
       2458  999 00010997 ?move_bottom_edge@TBOX@tesseract@@QEAAXF@Z = @ILT+63890(?move_bottom_edge@TBOX@tesseract@@QEAAXF@Z)
       2459  99A 0001301B ?move_left_edge@TBOX@tesseract@@QEAAXF@Z = @ILT+73750(?move_left_edge@TBOX@tesseract@@QEAAXF@Z)
       2460  99B 0000AEF7 ?move_right_edge@TBOX@tesseract@@QEAAXF@Z = @ILT+40690(?move_right_edge@TBOX@tesseract@@QEAAXF@Z)
       2461  99C 0000AC68 ?move_to_first@CLIST_ITERATOR@tesseract@@QEAAPEAXXZ = @ILT+40035(?move_to_first@CLIST_ITERATOR@tesseract@@QEAAPEAXXZ)
       2462  99D 0000805D ?move_to_first@ELIST2_ITERATOR@tesseract@@QEAAPEAVELIST2_LINK@2@XZ = @ILT+28760(?move_to_first@ELIST2_ITERATOR@tesseract@@QEAAPEAVELIST2_LINK@2@XZ)
       2463  99E 000010EB ?move_to_first@ELIST_ITERATOR@tesseract@@QEAAPEAVELIST_LINK@2@XZ = @ILT+230(?move_to_first@ELIST_ITERATOR@tesseract@@QEAAPEAVELIST_LINK@2@XZ)
       2464  99F 0001BC6B ?move_to_last@CLIST_ITERATOR@tesseract@@QEAAPEAXXZ = @ILT+109670(?move_to_last@CLIST_ITERATOR@tesseract@@QEAAPEAXXZ)
       2465  9A0 00011E23 ?move_to_last@ELIST2_ITERATOR@tesseract@@QEAAPEAVELIST2_LINK@2@XZ = @ILT+69150(?move_to_last@ELIST2_ITERATOR@tesseract@@QEAAPEAVELIST2_LINK@2@XZ)
       2466  9A1 00006C08 ?move_to_last@ELIST_ITERATOR@tesseract@@QEAAPEAVELIST_LINK@2@XZ = @ILT+23555(?move_to_last@ELIST_ITERATOR@tesseract@@QEAAPEAVELIST_LINK@2@XZ)
       2467  9A2 000165C7 ?move_top_edge@TBOX@tesseract@@QEAAXF@Z = @ILT+87490(?move_top_edge@TBOX@tesseract@@QEAAXF@Z)
       2468  9A3 00002D3D ?mutable_float_array@NetworkIO@tesseract@@QEAAPEAV?$GENERIC_2D_ARRAY@M@2@XZ = @ILT+7480(?mutable_float_array@NetworkIO@tesseract@@QEAAPEAV?$GENERIC_2D_ARRAY@M@2@XZ)
       2469  9A4 0000CBC6 ?mutable_pix_binary@Tesseract@tesseract@@QEAAPEAVImage@2@XZ = @ILT+48065(?mutable_pix_binary@Tesseract@tesseract@@QEAAPEAVImage@2@XZ)
       2470  9A5 0001D15B ?mutable_textord@Tesseract@tesseract@@QEAAPEAVTextord@2@XZ = @ILT+115030(?mutable_textord@Tesseract@tesseract@@QEAAPEAVTextord@2@XZ)
       2471  9A6 0000FABF ?name@BLOCK@tesseract@@QEBAPEBDXZ = @ILT+60090(?name@BLOCK@tesseract@@QEBAPEBDXZ)
       2472  9A7 00004D68 ?name@Network@tesseract@@QEBAAEBV?$basic_string@DU?$char_traits@D@std@@V?$allocator@D@2@@std@@XZ = @ILT+15715(?name@Network@tesseract@@QEBAAEBV?$basic_string@DU?$char_traits@D@std@@V?$allocator@D@2@@std@@XZ)
       2473  9A8 00014713 ?near_point@Wordrec@tesseract@@QEAA_NPEAUEDGEPT@2@00PEAPEAU32@@Z = @ILT+79630(?near_point@Wordrec@tesseract@@QEAA_NPEAUEDGEPT@2@00PEAPEAU32@@Z)
       2474  9A9 00005E0C ?nearest_neighbor_above@ColPartition@tesseract@@QEBAPEAV12@XZ = @ILT+19975(?nearest_neighbor_above@ColPartition@tesseract@@QEBAPEAV12@XZ)
       2475  9AA 0001A870 ?nearest_neighbor_below@ColPartition@tesseract@@QEBAPEAV12@XZ = @ILT+104555(?nearest_neighbor_below@ColPartition@tesseract@@QEBAPEAV12@XZ)
       2476  9AB 00001AD2 ?nearest_pt_on_line@FCOORD@tesseract@@QEBA?AV12@AEBV12@0@Z = @ILT+2765(?nearest_pt_on_line@FCOORD@tesseract@@QEBA?AV12@AEBV12@0@Z)
       2477  9AC 000123C8 ?needs_to_backprop@Network@tesseract@@QEBA_NXZ = @ILT+70595(?needs_to_backprop@Network@tesseract@@QEBA_NXZ)
       2478  9AD 00002888 ?new_dawg_node@Trie@tesseract@@IEAA_JXZ = @ILT+6275(?new_dawg_node@Trie@tesseract@@IEAA_JXZ)
       2479  9AE 00013336 ?new_max_point@Wordrec@tesseract@@QEAAXPEAUEDGEPT@2@PEAV?$GenericHeap@U?$KDPairInc@MPEAUEDGEPT@tesseract@@@tesseract@@@2@@Z = @ILT+74545(?new_max_point@Wordrec@tesseract@@QEAAXPEAUEDGEPT@2@PEAV?$GenericHeap@U?$KDPairInc@MPEAUEDGEPT@tesseract@@@tesseract@@@2@@Z)
       2480  9AF 00014367 ?new_min_point@Wordrec@tesseract@@QEAAXPEAUEDGEPT@2@PEAV?$GenericHeap@U?$KDPairInc@MPEAUEDGEPT@tesseract@@@tesseract@@@2@@Z = @ILT+78690(?new_min_point@Wordrec@tesseract@@QEAAXPEAUEDGEPT@2@PEAV?$GenericHeap@U?$KDPairInc@MPEAUEDGEPT@tesseract@@@tesseract@@@2@@Z)
       2481  9B0 0001C3C8 ?next@TessResultRenderer@tesseract@@QEAAPEAV12@XZ = @ILT+111555(?next@TessResultRenderer@tesseract@@QEAAPEAV12@XZ)
       2482  9B1 00002E19 ?next_block@PAGE_RES_IT@tesseract@@QEBAPEAVBLOCK_RES@2@XZ = @ILT+7700(?next_block@PAGE_RES_IT@tesseract@@QEBAPEAVBLOCK_RES@2@XZ)
       2483  9B2 00011FA4 ?next_node@SquishedDawg@tesseract@@UEBA_J_J@Z = @ILT+69535(?next_node@SquishedDawg@tesseract@@UEBA_J_J@Z)
       2484  9B3 0001B923 ?next_node@Trie@tesseract@@UEBA_J_J@Z = @ILT+108830(?next_node@Trie@tesseract@@UEBA_J_J@Z)
       2485  9B4 00008990 ?next_node_from_edge_rec@Dawg@tesseract@@IEBA_JAEB_K@Z = @ILT+31115(?next_node_from_edge_rec@Dawg@tesseract@@IEBA_JAEB_K@Z)
       2486  9B5 0000BF73 ?next_row@PAGE_RES_IT@tesseract@@QEBAPEAVROW_RES@2@XZ = @ILT+44910(?next_row@PAGE_RES_IT@tesseract@@QEBAPEAVROW_RES@2@XZ)
       2487  9B6 0000B3B6 ?next_word@PAGE_RES_IT@tesseract@@QEBAPEAVWERD_RES@2@XZ = @ILT+41905(?next_word@PAGE_RES_IT@tesseract@@QEBAPEAVWERD_RES@2@XZ)
       2488  9B7 00004AC5 ?noise_outlines@Tesseract@tesseract@@QEAA_NPEAUTWERD@2@@Z = @ILT+15040(?noise_outlines@Tesseract@tesseract@@QEAA_NPEAUTWERD@2@@Z)
       2489  9B8 0000D922 ?non_0_digit@Tesseract@tesseract@@QEAA_NAEBVUNICHARSET@2@H@Z = @ILT+51485(?non_0_digit@Tesseract@tesseract@@QEAA_NAEBVUNICHARSET@2@H@Z)
       2490  9B9 0001AD89 ?non_O_upper@Tesseract@tesseract@@QEAA_NAEBVUNICHARSET@2@H@Z = @ILT+105860(?non_O_upper@Tesseract@tesseract@@QEAA_NAEBVUNICHARSET@2@H@Z)
       2491  9BA 0001B31F ?normalise@FCOORD@tesseract@@QEAA_NXZ = @ILT+107290(?normalise@FCOORD@tesseract@@QEAA_NXZ)
       2492  9BB 00013453 ?normed_ids@UNICHARSET@tesseract@@QEBAAEBV?$vector@HV?$allocator@H@std@@@std@@H@Z = @ILT+74830(?normed_ids@UNICHARSET@tesseract@@QEBAAEBV?$vector@HV?$allocator@H@std@@@std@@H@Z)
       2493  9BC 00D59A50 ?nr_created_windows_@ScrollView@tesseract@@0HA = ?nr_created_windows_@ScrollView@tesseract@@0HA (private: static int tesseract::ScrollView::nr_created_windows_)
       2494  9BD 000084E5 ?null_box@TBOX@tesseract@@QEBA_NXZ = @ILT+29920(?null_box@TBOX@tesseract@@QEBA_NXZ)
       2495  9BE 0001AAF5 ?null_char@LSTMRecognizer@tesseract@@QEBAHXZ = @ILT+105200(?null_char@LSTMRecognizer@tesseract@@QEBAHXZ)
       2496  9BF 00C84188 ?null_script@UNICHARSET@tesseract@@0PEBDEB = ?null_script@UNICHARSET@tesseract@@0PEBDEB (private: static char const * const tesseract::UNICHARSET::null_script)
       2497  9C0 0000BE88 ?null_sid@UNICHARSET@tesseract@@QEBAHXZ = @ILT+44675(?null_sid@UNICHARSET@tesseract@@QEBAHXZ)
       2498  9C1 00016F04 ?num_features@TrainingSample@tesseract@@QEBAIXZ = @ILT+89855(?num_features@TrainingSample@tesseract@@QEBAIXZ)
       2499  9C2 00018E12 ?num_forward_edges@SquishedDawg@tesseract@@AEBAH_J@Z = @ILT+97805(?num_forward_edges@SquishedDawg@tesseract@@AEBAH_J@Z)
       2500  9C3 000172A6 ?num_micro_features@TrainingSample@tesseract@@QEBAIXZ = @ILT+90785(?num_micro_features@TrainingSample@tesseract@@QEBAIXZ)
       2501  9C4 000094EE ?num_sub_langs@Tesseract@tesseract@@QEBAHXZ = @ILT+34025(?num_sub_langs@Tesseract@tesseract@@QEBAHXZ)
       2502  9C5 000053B7 ?num_weights@Network@tesseract@@QEBAHXZ = @ILT+17330(?num_weights@Network@tesseract@@QEBAHXZ)
       2503  9C6 0000C4F0 ?oem@TessBaseAPI@tesseract@@QEBA?AW4OcrEngineMode@2@XZ = @ILT+46315(?oem@TessBaseAPI@tesseract@@QEBA?AW4OcrEngineMode@2@XZ)
       2504  9C7 0001A96F ?one_ell_conflict@Tesseract@tesseract@@QEAA_NPEAVWERD_RES@2@_N@Z = @ILT+104810(?one_ell_conflict@Tesseract@tesseract@@QEAA_NPEAVWERD_RES@2@_N@Z)
       2505  9C8 00002D06 ?out_list@C_BLOB@tesseract@@QEAAPEAVC_OUTLINE_LIST@2@XZ = @ILT+7425(?out_list@C_BLOB@tesseract@@QEAAPEAVC_OUTLINE_LIST@2@XZ)
       2506  9C9 00013697 ?outer_area@C_BLOB@tesseract@@QEAAHXZ = @ILT+75410(?outer_area@C_BLOB@tesseract@@QEAAHXZ)
       2507  9CA 0000B249 ?outline_length@TrainingSample@tesseract@@QEBAHXZ = @ILT+41540(?outline_length@TrainingSample@tesseract@@QEBAHXZ)
       2508  9CB 00012E2C ?output_pass@Tesseract@tesseract@@QEAAXAEAVPAGE_RES_IT@2@PEBVTBOX@2@@Z = @ILT+73255(?output_pass@Tesseract@tesseract@@QEAAXAEAVPAGE_RES_IT@2@PEBVTBOX@2@@Z)
       2509  9CC 00003DDC ?overlap@POLY_BLOCK@tesseract@@QEAA_NPEAV12@@Z = @ILT+11735(?overlap@POLY_BLOCK@tesseract@@QEAA_NPEAV12@@Z)
       2510  9CD 000067E4 ?overlap@QSPLINE@tesseract@@QEAA_NPEAV12@N@Z = @ILT+22495(?overlap@QSPLINE@tesseract@@QEAA_NPEAV12@N@Z)
       2511  9CE 0001B3B5 ?overlap@TBOX@tesseract@@QEBA_NAEBV12@@Z = @ILT+107440(?overlap@TBOX@tesseract@@QEBA_NAEBV12@@Z)
       2512  9CF 00015406 ?overlap_fraction@TBOX@tesseract@@QEBANAEBV12@@Z = @ILT+82945(?overlap_fraction@TBOX@tesseract@@QEBANAEBV12@@Z)
       2513  9D0 00017BD9 ?owns_blobs@ColPartition@tesseract@@QEBA_NXZ = @ILT+93140(?owns_blobs@ColPartition@tesseract@@QEBA_NXZ)
       2514  9D1 000164A5 ?pad@TBOX@tesseract@@QEAAXHH@Z = @ILT+87200(?pad@TBOX@tesseract@@QEAAXHH@Z)
       2515  9D2 00013A39 ?page_num@TrainingSample@tesseract@@QEBAHXZ = @ILT+76340(?page_num@TrainingSample@tesseract@@QEBAHXZ)
       2516  9D3 00003ECC ?page_number@ImageData@tesseract@@QEBAHXZ = @ILT+11975(?page_number@ImageData@tesseract@@QEBAHXZ)
       2517  9D4 00017364 ?para_list@BLOCK@tesseract@@QEAAPEAVPARA_LIST@2@XZ = @ILT+90975(?para_list@BLOCK@tesseract@@QEAAPEAVPARA_LIST@2@XZ)
       2518  9D5 00009BEC ?params@CCUtil@tesseract@@QEAAPEAUParamsVectors@2@XZ = @ILT+35815(?params@CCUtil@tesseract@@QEAAPEAUParamsVectors@2@XZ)
       2519  9D6 0000CB30 ?parse_from_string@CHAR_FRAGMENT@tesseract@@SAPEAV12@PEBD@Z = @ILT+47915(?parse_from_string@CHAR_FRAGMENT@tesseract@@SAPEAV12@PEBD@Z)
       2520  9D7 0001B00E ?pattern_loop_edge@Dawg@tesseract@@UEBA_J_JH_N@Z = @ILT+106505(?pattern_loop_edge@Dawg@tesseract@@UEBA_J_JH_N@Z)
       2521  9D8 0001A6E5 ?pattern_loop_edge@Trie@tesseract@@UEBA_J_JH_N@Z = @ILT+104160(?pattern_loop_edge@Trie@tesseract@@UEBA_J_JH_N@Z)
       2522  9D9 0001B941 ?pearson@LLSQ@tesseract@@QEBANXZ = @ILT+108860(?pearson@LLSQ@tesseract@@QEBANXZ)
       2523  9DA 00013E58 ?perimeter@C_BLOB@tesseract@@QEAAHXZ = @ILT+77395(?perimeter@C_BLOB@tesseract@@QEAAHXZ)
       2524  9DB 000105C3 ?permute_choices@Dict@tesseract@@QEAAXPEBDAEBV?$vector@PEAVBLOB_CHOICE_LIST@tesseract@@V?$allocator@PEAVBLOB_CHOICE_LIST@tesseract@@@std@@@std@@HPEBUCHAR_FRAGMENT_INFO@2@PEAVWERD_CHOICE@2@QEAMPEAM3PEAHPEAX@Z = @ILT+62910(?permute_choices@Dict@tesseract@@QEAAXPEBDAEBV?$vector@PEAVBLOB_CHOICE_LIST@tesseract@@V?$allocator@PEAVBLOB_CHOICE_LIST@tesseract@@@std@@@std@@HPEBUCHAR_FRAGMENT_INFO@2@PEAVWERD_CHOICE@2@QEAMPEAM3PEAHPEAX@Z)
       2525  9DC 000169CD ?permuter@Dawg@tesseract@@QEBA?AW4PermuterType@2@XZ = @ILT+88520(?permuter@Dawg@tesseract@@QEBA?AW4PermuterType@2@XZ)
       2526  9DD 0001457E ?permuter@WERD_CHOICE@tesseract@@QEBAEXZ = @ILT+79225(?permuter@WERD_CHOICE@tesseract@@QEBAEXZ)
       2527  9DE 0001041A ?permuter_name@WERD_CHOICE@tesseract@@QEBAPEBDXZ = @ILT+62485(?permuter_name@WERD_CHOICE@tesseract@@QEBAPEBDXZ)
       2528  9DF 00009395 ?permuter_name@WERD_CHOICE@tesseract@@SAPEBDE@Z = @ILT+33680(?permuter_name@WERD_CHOICE@tesseract@@SAPEBDE@Z)
       2529  9E0 00007270 ?pgeditor_main@Tesseract@tesseract@@QEAAXHHPEAVPAGE_RES@2@@Z = @ILT+25195(?pgeditor_main@Tesseract@tesseract@@QEAAXHHPEAVPAGE_RES@2@@Z)
       2530  9E1 0000C1AD ?pick_close_point@Wordrec@tesseract@@QEAAPEAUEDGEPT@2@PEAU32@0PEAH@Z = @ILT+45480(?pick_close_point@Wordrec@tesseract@@QEAAPEAUEDGEPT@2@PEAU32@0PEAH@Z)
       2531  9E2 0001AB40 ?pick_good_seam@Wordrec@tesseract@@QEAAPEAVSEAM@2@PEAUTBLOB@2@@Z = @ILT+105275(?pick_good_seam@Wordrec@tesseract@@QEAAPEAVSEAM@2@PEAUTBLOB@2@@Z)
       2532  9E3 00001AFF ?pile_count@STATS@tesseract@@QEBAHH@Z = @ILT+2810(?pile_count@STATS@tesseract@@QEBAHH@Z)
       2533  9E4 0001B900 ?pix@DENORM@tesseract@@QEBA?AVImage@2@XZ = @ILT+108795(?pix@DENORM@tesseract@@QEBA?AVImage@2@XZ)
       2534  9E5 00012FC1 ?pix_binary@Tesseract@tesseract@@QEBA?AVImage@2@XZ = @ILT+73660(?pix_binary@Tesseract@tesseract@@QEBA?AVImage@2@XZ)
       2535  9E6 00015253 ?pix_grey@Tesseract@tesseract@@QEBA?AVImage@2@XZ = @ILT+82510(?pix_grey@Tesseract@tesseract@@QEBA?AVImage@2@XZ)
       2536  9E7 00012D5A ?pix_original@Tesseract@tesseract@@QEBA?AVImage@2@XZ = @ILT+73045(?pix_original@Tesseract@tesseract@@QEBA?AVImage@2@XZ)
       2537  9E8 00010E7E ?plot@C_BLOB@tesseract@@QEAAXPEAVScrollView@2@W4Color@32@1@Z = @ILT+65145(?plot@C_BLOB@tesseract@@QEAAXPEAVScrollView@2@W4Color@32@1@Z)
       2538  9E9 000176A2 ?plot@POLY_BLOCK@tesseract@@QEAAXPEAVScrollView@2@H@Z = @ILT+91805(?plot@POLY_BLOCK@tesseract@@QEAAXPEAVScrollView@2@H@Z)
       2539  9EA 00014A15 ?plot@QSPLINE@tesseract@@QEBAXPEAVScrollView@2@W4Color@32@@Z = @ILT+80400(?plot@QSPLINE@tesseract@@QEBAXPEAVScrollView@2@W4Color@32@@Z)
       2540  9EB 00001BA9 ?plot@QSPLINE@tesseract@@QEBAXVImage@2@@Z = @ILT+2980(?plot@QSPLINE@tesseract@@QEBAXVImage@2@@Z)
       2541  9EC 00008A71 ?plot@STATS@tesseract@@QEBAXPEAVScrollView@2@MMMMW4Color@32@@Z = @ILT+31340(?plot@STATS@tesseract@@QEBAXPEAVScrollView@2@MMMMW4Color@32@@Z)
       2542  9ED 00013192 ?plot@TBOX@tesseract@@QEBAXPEAVScrollView@2@@Z = @ILT+74125(?plot@TBOX@tesseract@@QEBAXPEAVScrollView@2@@Z)
       2543  9EE 0000F4D9 ?plot@TBOX@tesseract@@QEBAXPEAVScrollView@2@W4Color@32@1@Z = @ILT+58580(?plot@TBOX@tesseract@@QEBAXPEAVScrollView@2@W4Color@32@1@Z)
       2544  9EF 0001A81B ?plot@WERD@tesseract@@QEAAXPEAVScrollView@2@@Z = @ILT+104470(?plot@WERD@tesseract@@QEAAXPEAVScrollView@2@@Z)
       2545  9F0 00013278 ?plot@WERD@tesseract@@QEAAXPEAVScrollView@2@W4Color@32@@Z = @ILT+74355(?plot@WERD@tesseract@@QEAAXPEAVScrollView@2@W4Color@32@@Z)
       2546  9F1 000076DA ?plot_graded_blobs@TO_BLOCK@tesseract@@QEAAXPEAVScrollView@2@@Z = @ILT+26325(?plot_graded_blobs@TO_BLOCK@tesseract@@QEAAXPEAVScrollView@2@@Z)
       2547  9F2 000143DF ?plot_noise_blobs@TO_BLOCK@tesseract@@QEAAXPEAVScrollView@2@@Z = @ILT+78810(?plot_noise_blobs@TO_BLOCK@tesseract@@QEAAXPEAVScrollView@2@@Z)
       2548  9F3 0001D359 ?plot_normed@C_BLOB@tesseract@@QEAAXAEBVDENORM@2@W4Color@ScrollView@2@1PEAV52@@Z = @ILT+115540(?plot_normed@C_BLOB@tesseract@@QEAAXAEBVDENORM@2@W4Color@ScrollView@2@1PEAV52@@Z)
       2549  9F4 0000EE17 ?plot_rej_blobs@WERD@tesseract@@QEAAXPEAVScrollView@2@@Z = @ILT+56850(?plot_rej_blobs@WERD@tesseract@@QEAAXPEAVScrollView@2@@Z)
       2550  9F5 00010E15 ?plotline@STATS@tesseract@@QEBAXPEAVScrollView@2@MMMMW4Color@32@@Z = @ILT+65040(?plotline@STATS@tesseract@@QEBAXPEAVScrollView@2@MMMMW4Color@32@@Z)
       2551  9F6 000014F1 ?point_priority@Wordrec@tesseract@@QEAAMPEAUEDGEPT@2@@Z = @ILT+1260(?point_priority@Wordrec@tesseract@@QEAAMPEAUEDGEPT@2@@Z)
       2552  9F7 00010136 ?points@POLY_BLOCK@tesseract@@QEAAPEAVICOORDELT_LIST@2@XZ = @ILT+61745(?points@POLY_BLOCK@tesseract@@QEAAPEAVICOORDELT_LIST@2@XZ)
       2553  9F8 00005F24 ?post_load_setup@UNICHARSET@tesseract@@QEAAXXZ = @ILT+20255(?post_load_setup@UNICHARSET@tesseract@@QEAAXXZ)
       2554  9F9 0000D2E7 ?potential_word_crunch@Tesseract@tesseract@@QEAA_NPEAVWERD_RES@2@W4GARBAGE_LEVEL@2@_N@Z = @ILT+49890(?potential_word_crunch@Tesseract@tesseract@@QEAA_NPEAVWERD_RES@2@W4GARBAGE_LEVEL@2@_N@Z)
       2555  9FA 00006735 ?predecessor@DENORM@tesseract@@QEBAPEBV12@XZ = @ILT+22320(?predecessor@DENORM@tesseract@@QEBAPEBV12@XZ)
       2556  9FB 00007405 ?prefix_in_dawg@Dawg@tesseract@@QEBA_NAEBVWERD_CHOICE@2@_N@Z = @ILT+25600(?prefix_in_dawg@Dawg@tesseract@@QEBA_NAEBVWERD_CHOICE@2@_N@Z)
       2557  9FC 00005E9D ?prev_block@PAGE_RES_IT@tesseract@@QEBAPEAVBLOCK_RES@2@XZ = @ILT+20120(?prev_block@PAGE_RES_IT@tesseract@@QEBAPEAVBLOCK_RES@2@XZ)
       2558  9FD 00019817 ?prev_row@PAGE_RES_IT@tesseract@@QEBAPEAVROW_RES@2@XZ = @ILT+100370(?prev_row@PAGE_RES_IT@tesseract@@QEBAPEAVROW_RES@2@XZ)
       2559  9FE 00010CF3 ?prev_word@PAGE_RES_IT@tesseract@@QEBAPEAVWERD_RES@2@XZ = @ILT+64750(?prev_word@PAGE_RES_IT@tesseract@@QEBAPEAVWERD_RES@2@XZ)
       2560  9FF 00005763 ?print@BLOCK@tesseract@@QEAAXPEAU_iobuf@@_N@Z = @ILT+18270(?print@BLOCK@tesseract@@QEAAXPEAU_iobuf@@_N@Z)
       2561  A00 0000303A ?print@STATS@tesseract@@QEBAXXZ = @ILT+8245(?print@STATS@tesseract@@QEBAXXZ)
       2562  A01 00007F8B ?print@TBOX@tesseract@@QEBAXXZ = @ILT+28550(?print@TBOX@tesseract@@QEBAXXZ)
       2563  A02 000026FD ?print@WERD@tesseract@@QEBAXXZ = @ILT+5880(?print@WERD@tesseract@@QEBAXXZ)
       2564  A03 0001A825 ?print@WERD_CHOICE@tesseract@@QEBAXPEBD@Z = @ILT+104480(?print@WERD_CHOICE@tesseract@@QEBAXPEBD@Z)
       2565  A04 000085E9 ?print@WERD_CHOICE@tesseract@@QEBAXXZ = @ILT+30180(?print@WERD_CHOICE@tesseract@@QEBAXXZ)
       2566  A05 0000FEB6 ?print_all@SquishedDawg@tesseract@@AEAAXPEBD@Z = @ILT+61105(?print_all@SquishedDawg@tesseract@@AEAAXPEBD@Z)
       2567  A06 00012E77 ?print_all@Trie@tesseract@@IEAAXPEBDH@Z = @ILT+73330(?print_all@Trie@tesseract@@IEAAXPEBDH@Z)
       2568  A07 0000FD08 ?print_edge@SquishedDawg@tesseract@@AEBAX_J@Z = @ILT+60675(?print_edge@SquishedDawg@tesseract@@AEBAX_J@Z)
       2569  A08 0000D567 ?print_edge_rec@Trie@tesseract@@IEBAXAEB_K@Z = @ILT+50530(?print_edge_rec@Trie@tesseract@@IEBAXAEB_K@Z)
       2570  A09 0000FD49 ?print_node@SquishedDawg@tesseract@@UEBAX_JH@Z = @ILT+60740(?print_node@SquishedDawg@tesseract@@UEBAX_JH@Z)
       2571  A0A 00005A15 ?print_node@Trie@tesseract@@UEBAX_JH@Z = @ILT+18960(?print_node@Trie@tesseract@@UEBAX_JH@Z)
       2572  A0B 000013C5 ?print_rows@TO_BLOCK@tesseract@@QEAAXXZ = @ILT+960(?print_rows@TO_BLOCK@tesseract@@QEAAXXZ)
       2573  A0C 0000C0B3 ?print_state@WERD_CHOICE@tesseract@@QEBAXPEBD@Z = @ILT+45230(?print_state@WERD_CHOICE@tesseract@@QEBAXPEBD@Z)
       2574  A0D 000196D2 ?print_summary@STATS@tesseract@@QEBAXXZ = @ILT+100045(?print_summary@STATS@tesseract@@QEBAXXZ)
       2575  A0E 0001613A ?print_to_str@TBOX@tesseract@@QEBAXAEAV?$basic_string@DU?$char_traits@D@std@@V?$allocator@D@2@@std@@@Z = @ILT+86325(?print_to_str@TBOX@tesseract@@QEBAXAEAV?$basic_string@DU?$char_traits@D@std@@V?$allocator@D@2@@std@@@Z)
       2576  A0F 0000E304 ?prioritize_points@Wordrec@tesseract@@QEAAXPEAUTESSLINE@2@PEAV?$GenericHeap@U?$KDPairInc@MPEAUEDGEPT@tesseract@@@tesseract@@@2@@Z = @ILT+54015(?prioritize_points@Wordrec@tesseract@@QEAAXPEAUTESSLINE@2@PEAV?$GenericHeap@U?$KDPairInc@MPEAUEDGEPT@tesseract@@@tesseract@@@2@@Z)
       2577  A10 000130D4 ?process_cmd_win_event@Tesseract@tesseract@@QEAA_NHPEAD@Z = @ILT+73935(?process_cmd_win_event@Tesseract@tesseract@@QEAA_NHPEAD@Z)
       2578  A11 000060D2 ?process_image_event@Tesseract@tesseract@@QEAAXAEBUSVEvent@2@@Z = @ILT+20685(?process_image_event@Tesseract@tesseract@@QEAAXAEBUSVEvent@2@@Z)
       2579  A12 00005CA9 ?process_selected_words@Tesseract@tesseract@@QEAAXPEAVPAGE_RES@2@AEAVTBOX@2@P812@EAA_NPEAVPAGE_RES_IT@2@@Z@Z = @ILT+19620(?process_selected_words@Tesseract@tesseract@@QEAAXPEAVPAGE_RES@2@AEAVTBOX@2@P812@EAA_NPEAVPAGE_RES_IT@2@@Z@Z)
       2580  A13 0001929F ?program_editdown@Wordrec@tesseract@@QEAAXH@Z = @ILT+98970(?program_editdown@Wordrec@tesseract@@QEAAXH@Z)
       2581  A14 000182B4 ?program_editup@Wordrec@tesseract@@QEAAXAEBV?$basic_string@DU?$char_traits@D@std@@V?$allocator@D@2@@std@@PEAVTessdataManager@2@1@Z = @ILT+94895(?program_editup@Wordrec@tesseract@@QEAAXAEBV?$basic_string@DU?$char_traits@D@std@@V?$allocator@D@2@@std@@PEAVTessdataManager@2@1@Z)
       2582  A15 0000A8CB ?projection@ColumnFinder@tesseract@@QEBAPEBVTextlineProjection@2@XZ = @ILT+39110(?projection@ColumnFinder@tesseract@@QEBAPEBVTextlineProjection@2@XZ)
       2583  A16 00005B32 ?prop@BLOCK@tesseract@@QEBA_NXZ = @ILT+19245(?prop@BLOCK@tesseract@@QEBA_NXZ)
       2584  A17 0001C35A ?pt_to_pt_dist@FCOORD@tesseract@@QEBAMAEBV12@@Z = @ILT+111445(?pt_to_pt_dist@FCOORD@tesseract@@QEBAMAEBV12@@Z)
       2585  A18 000170CB ?pt_to_pt_sqdist@FCOORD@tesseract@@QEBAMAEBV12@@Z = @ILT+90310(?pt_to_pt_sqdist@FCOORD@tesseract@@QEBAMAEBV12@@Z)
       2586  A19 000112CF ?punct_stripped@WERD_CHOICE@tesseract@@QEBAXPEAH0@Z = @ILT+66250(?punct_stripped@WERD_CHOICE@tesseract@@QEBAXPEAH0@Z)
       2587  A1A 00011496 ?push@tesseract@@YAPEAUlist_rec@1@PEAU21@PEAX@Z = @ILT+66705(?push@tesseract@@YAPEAUlist_rec@1@PEAU21@PEAX@Z)
       2588  A1B 0000486D ?push_last@tesseract@@YAPEAUlist_rec@1@PEAU21@PEAX@Z = @ILT+14440(?push_last@tesseract@@YAPEAUlist_rec@1@PEAU21@PEAX@Z)
       2589  A1C 000077FC ?quality_based_rejection@Tesseract@tesseract@@QEAAXAEAVPAGE_RES_IT@2@_N@Z = @ILT+26615(?quality_based_rejection@Tesseract@tesseract@@QEAAXAEAVPAGE_RES_IT@2@_N@Z)
       2590  A1D 00015811 ?rating@WERD_CHOICE@tesseract@@QEBAMXZ = @ILT+83980(?rating@WERD_CHOICE@tesseract@@QEBAMXZ)
       2591  A1E 000092DC ?re_rotation@BLOCK@tesseract@@QEBA?AVFCOORD@2@XZ = @ILT+33495(?re_rotation@BLOCK@tesseract@@QEBA?AVFCOORD@2@XZ)
       2592  A1F 00015BCC ?read_and_add_word_list@Trie@tesseract@@QEAA_NPEBDAEBVUNICHARSET@2@W4RTLReversePolicy@12@@Z = @ILT+84935(?read_and_add_word_list@Trie@tesseract@@QEAA_NPEBDAEBVUNICHARSET@2@W4RTLReversePolicy@12@@Z)
       2593  A20 000136EC ?read_config_file@Tesseract@tesseract@@QEAAXPEBDW4SetParamConstraint@2@@Z = @ILT+75495(?read_config_file@Tesseract@tesseract@@QEAAXPEBDW4SetParamConstraint@2@@Z)
       2594  A21 0001073A ?read_pattern_list@Trie@tesseract@@QEAA_NPEBDAEBVUNICHARSET@2@@Z = @ILT+63285(?read_pattern_list@Trie@tesseract@@QEAA_NPEBDAEBVUNICHARSET@2@@Z)
       2595  A22 0000C1E4 ?read_squished_dawg@SquishedDawg@tesseract@@AEAA_NPEAVTFile@2@@Z = @ILT+45535(?read_squished_dawg@SquishedDawg@tesseract@@AEAA_NPEAVTFile@2@@Z)
       2596  A23 0001BA0E ?read_word_list@Trie@tesseract@@QEAA_NPEBDPEAV?$vector@V?$basic_string@DU?$char_traits@D@std@@V?$allocator@D@2@@std@@V?$allocator@V?$basic_string@DU?$char_traits@D@std@@V?$allocator@D@2@@std@@@2@@std@@@Z = @ILT+109065(?read_word_list@Trie@tesseract@@QEAA_NPEBDPEAV?$vector@V?$basic_string@DU?$char_traits@D@std@@V?$allocator@D@2@@std@@V?$allocator@V?$basic_string@DU?$char_traits@D@std@@V?$allocator@D@2@@std@@@2@@std@@@Z)
       2597  A24 000162F2 ?recog_all_words@Tesseract@tesseract@@QEAA_NPEAVPAGE_RES@2@PEAVETEXT_DESC@2@PEBVTBOX@2@PEBDH@Z = @ILT+86765(?recog_all_words@Tesseract@tesseract@@QEAA_NPEAVPAGE_RES@2@PEAVETEXT_DESC@2@PEBVTBOX@2@PEBDH@Z)
       2598  A25 0000BF37 ?recog_interactive@Tesseract@tesseract@@QEAA_NPEAVPAGE_RES_IT@2@@Z = @ILT+44850(?recog_interactive@Tesseract@tesseract@@QEAA_NPEAVPAGE_RES_IT@2@@Z)
       2599  A26 000101F4 ?recog_pseudo_word@Tesseract@tesseract@@QEAAXPEAVPAGE_RES@2@AEAVTBOX@2@@Z = @ILT+61935(?recog_pseudo_word@Tesseract@tesseract@@QEAAXPEAVPAGE_RES@2@AEAVTBOX@2@@Z)
       2600  A27 00011C9D ?recog_training_segmented@Tesseract@tesseract@@QEAAXPEBDPEAVPAGE_RES@2@PECVETEXT_DESC@2@PEAU_iobuf@@@Z = @ILT+68760(?recog_training_segmented@Tesseract@tesseract@@QEAAXPEBDPEAVPAGE_RES@2@PECVETEXT_DESC@2@PEAU_iobuf@@@Z)
       2601  A28 0001990C ?recog_word@Tesseract@tesseract@@QEAAXPEAVWERD_RES@2@@Z = @ILT+100615(?recog_word@Tesseract@tesseract@@QEAAXPEAVWERD_RES@2@@Z)
       2602  A29 0000C310 ?recog_word_recursive@Tesseract@tesseract@@QEAAXPEAVWERD_RES@2@@Z = @ILT+45835(?recog_word_recursive@Tesseract@tesseract@@QEAAXPEAVWERD_RES@2@@Z)
       2603  A2A 0001C887 ?reduce_lettered_edges@Trie@tesseract@@IEAA_N_JH0PEAV?$vector@_KV?$allocator@_K@std@@@std@@PEA_N@Z = @ILT+112770(?reduce_lettered_edges@Trie@tesseract@@IEAA_N_JH0PEAV?$vector@_KV?$allocator@_K@std@@@std@@PEA_N@Z)
       2604  A2B 000059AC ?reduce_node_input@Trie@tesseract@@IEAAX_JPEA_N@Z = @ILT+18855(?reduce_node_input@Trie@tesseract@@IEAAX_JPEA_N@Z)
       2605  A2C 0000F614 ?reflect_in_y_axis@POLY_BLOCK@tesseract@@QEAAXXZ = @ILT+58895(?reflect_in_y_axis@POLY_BLOCK@tesseract@@QEAAXXZ)
       2606  A2D 00012E0E ?reflect_polygon_in_y_axis@BLOCK@tesseract@@QEAAXXZ = @ILT+73225(?reflect_polygon_in_y_axis@BLOCK@tesseract@@QEAAXXZ)
       2607  A2E 000102F3 ?rej_cblob_list@WERD@tesseract@@QEAAPEAVC_BLOB_LIST@2@XZ = @ILT+62190(?rej_cblob_list@WERD@tesseract@@QEAAPEAVC_BLOB_LIST@2@XZ)
       2608  A2F 0000592A ?rej_stat_word@PAGE_RES_IT@tesseract@@QEAAXXZ = @ILT+18725(?rej_stat_word@PAGE_RES_IT@tesseract@@QEAAXXZ)
       2609  A30 0001D05C ?reject_I_1_L@Tesseract@tesseract@@QEAAXPEAVWERD_RES@2@@Z = @ILT+114775(?reject_I_1_L@Tesseract@tesseract@@QEAAXPEAVWERD_RES@2@@Z)
       2610  A31 000091D8 ?reject_blobs@BLOCK@tesseract@@QEAAPEAVC_BLOB_LIST@2@XZ = @ILT+33235(?reject_blobs@BLOCK@tesseract@@QEAAPEAVC_BLOB_LIST@2@XZ)
       2611  A32 00010C1C ?reject_edge_blobs@Tesseract@tesseract@@QEAAXPEAVWERD_RES@2@@Z = @ILT+64535(?reject_edge_blobs@Tesseract@tesseract@@QEAAXPEAVWERD_RES@2@@Z)
       2612  A33 00017BD4 ?reject_mostly_rejects@Tesseract@tesseract@@QEAAXPEAVWERD_RES@2@@Z = @ILT+93135(?reject_mostly_rejects@Tesseract@tesseract@@QEAAXPEAVWERD_RES@2@@Z)
       2613  A34 0000DC29 ?rejection_passes@Tesseract@tesseract@@QEAAXPEAVPAGE_RES@2@PEAVETEXT_DESC@2@PEBVTBOX@2@PEBD@Z = @ILT+52260(?rejection_passes@Tesseract@tesseract@@QEAAXPEAVPAGE_RES@2@PEAVETEXT_DESC@2@PEBVTBOX@2@PEBD@Z)
       2614  A35 0001017C ?remove@LLSQ@tesseract@@QEAAXNN@Z = @ILT+61815(?remove@LLSQ@tesseract@@QEAAXNN@Z)
       2615  A36 00012C15 ?remove_edge@Trie@tesseract@@IEAAX_J0_NH@Z = @ILT+72720(?remove_edge@Trie@tesseract@@IEAAX_J0_NH@Z)
       2616  A37 0001A14F ?remove_edge_linkage@Trie@tesseract@@IEAAX_J0H_NH@Z = @ILT+102730(?remove_edge_linkage@Trie@tesseract@@IEAAX_J0H_NH@Z)
       2617  A38 00002383 ?remove_last_unichar_id@WERD_CHOICE@tesseract@@QEAAXXZ = @ILT+4990(?remove_last_unichar_id@WERD_CHOICE@tesseract@@QEAAXXZ)
       2618  A39 00006A7D ?remove_unichar_id@WERD_CHOICE@tesseract@@QEAAXH@Z = @ILT+23160(?remove_unichar_id@WERD_CHOICE@tesseract@@QEAAXH@Z)
       2619  A3A 00006D0C ?remove_unichar_ids@WERD_CHOICE@tesseract@@QEAAXHH@Z = @ILT+23815(?remove_unichar_ids@WERD_CHOICE@tesseract@@QEAAXHH@Z)
       2620  A3B 00002D33 ?render@C_BLOB@tesseract@@QEAA?AVImage@2@XZ = @ILT+7470(?render@C_BLOB@tesseract@@QEAA?AVImage@2@XZ)
       2621  A3C 00002A63 ?render_mask@BLOCK@tesseract@@QEAA?AVImage@2@PEAVTBOX@2@@Z = @ILT+6750(?render_mask@BLOCK@tesseract@@QEAA?AVImage@2@PEAVTBOX@2@@Z)
       2622  A3D 0001ADED ?render_outline@C_BLOB@tesseract@@QEAA?AVImage@2@XZ = @ILT+105960(?render_outline@C_BLOB@tesseract@@QEAA?AVImage@2@XZ)
       2623  A3E 00014B69 ?repeated_nonalphanum_wd@Tesseract@tesseract@@QEAA_NPEAVWERD_RES@2@PEAVROW@2@@Z = @ILT+80740(?repeated_nonalphanum_wd@Tesseract@tesseract@@QEAA_NPEAVWERD_RES@2@PEAVROW@2@@Z)
       2624  A3F 00009A70 ?reset_hyphen_vars@Dict@tesseract@@QEAAX_N@Z = @ILT+35435(?reset_hyphen_vars@Dict@tesseract@@QEAAX_N@Z)
       2625  A40 00002194 ?reskew@Tesseract@tesseract@@QEBAAEBVFCOORD@2@XZ = @ILT+4495(?reskew@Tesseract@tesseract@@QEBAAEBVFCOORD@2@XZ)
       2626  A41 000178FF ?restart_page@PAGE_RES_IT@tesseract@@QEAAPEAVWERD_RES@2@XZ = @ILT+92410(?restart_page@PAGE_RES_IT@tesseract@@QEAAPEAVWERD_RES@2@XZ)
       2627  A42 00005033 ?restart_page_with_empties@PAGE_RES_IT@tesseract@@QEAAPEAVWERD_RES@2@XZ = @ILT+16430(?restart_page_with_empties@PAGE_RES_IT@tesseract@@QEAAPEAVWERD_RES@2@XZ)
       2628  A43 0001CFA8 ?restart_row@PAGE_RES_IT@tesseract@@QEAAPEAVWERD_RES@2@XZ = @ILT+114595(?restart_row@PAGE_RES_IT@tesseract@@QEAAPEAVWERD_RES@2@XZ)
       2629  A44 00015D9D ?restricted_bounding_box@BLOCK@tesseract@@QEBA?AVTBOX@2@_N0@Z = @ILT+85400(?restricted_bounding_box@BLOCK@tesseract@@QEBA?AVTBOX@2@_N0@Z)
       2630  A45 00002D6A ?restricted_bounding_box@WERD@tesseract@@QEBA?AVTBOX@2@_N0@Z = @ILT+7525(?restricted_bounding_box@WERD@tesseract@@QEBA?AVTBOX@2@_N0@Z)
       2631  A46 0000B299 ?reverse_and_mirror_unichar_ids@WERD_CHOICE@tesseract@@QEAAXXZ = @ILT+41620(?reverse_and_mirror_unichar_ids@WERD_CHOICE@tesseract@@QEAAXXZ)
       2632  A47 00001B77 ?right@TBOX@tesseract@@QEBAFXZ = @ILT+2930(?right@TBOX@tesseract@@QEBAFXZ)
       2633  A48 0000B320 ?right_key@ColPartition@tesseract@@QEBAHXZ = @ILT+41755(?right_key@ColPartition@tesseract@@QEBAHXZ)
       2634  A49 00001839 ?right_key_tab@ColPartition@tesseract@@QEBA_NXZ = @ILT+2100(?right_key_tab@ColPartition@tesseract@@QEBA_NXZ)
       2635  A4A 0000853F ?right_margin@ColPartition@tesseract@@QEBAHXZ = @ILT+30010(?right_margin@ColPartition@tesseract@@QEBAHXZ)
       2636  A4B 00012E31 ?right_to_left@BLOCK@tesseract@@QEBA_NXZ = @ILT+73260(?right_to_left@BLOCK@tesseract@@QEBA_NXZ)
       2637  A4C 000029AA ?right_to_left@Tesseract@tesseract@@QEBA_NXZ = @ILT+6565(?right_to_left@Tesseract@tesseract@@QEBA_NXZ)
       2638  A4D 0000C04F ?rms@LLSQ@tesseract@@QEBANNN@Z = @ILT+45130(?rms@LLSQ@tesseract@@QEBANNN@Z)
       2639  A4E 0000521D ?rms_orth@LLSQ@tesseract@@QEBANAEBVFCOORD@2@@Z = @ILT+16920(?rms_orth@LLSQ@tesseract@@QEBANAEBVFCOORD@2@@Z)
       2640  A4F 000092FA ?rotate@BLOCK@tesseract@@QEAAXAEBVFCOORD@2@@Z = @ILT+33525(?rotate@BLOCK@tesseract@@QEAAXAEBVFCOORD@2@@Z)
       2641  A50 000015FF ?rotate@C_BLOB@tesseract@@QEAAXAEBVFCOORD@2@@Z = @ILT+1530(?rotate@C_BLOB@tesseract@@QEAAXAEBVFCOORD@2@@Z)
       2642  A51 00011333 ?rotate@FCOORD@tesseract@@QEAAXV12@@Z = @ILT+66350(?rotate@FCOORD@tesseract@@QEAAXV12@@Z)
       2643  A52 00012BDE ?rotate@POLY_BLOCK@tesseract@@QEAAXVFCOORD@2@@Z = @ILT+72665(?rotate@POLY_BLOCK@tesseract@@QEAAXVFCOORD@2@@Z)
       2644  A53 00003ED6 ?rotate@TBOX@tesseract@@QEAAXAEBVFCOORD@2@@Z = @ILT+11985(?rotate@TBOX@tesseract@@QEAAXAEBVFCOORD@2@@Z)
       2645  A54 00009F70 ?rotate@TO_BLOCK@tesseract@@QEAAXAEBVFCOORD@2@@Z = @ILT+36715(?rotate@TO_BLOCK@tesseract@@QEAAXAEBVFCOORD@2@@Z)
       2646  A55 000196A0 ?rotate_large@TBOX@tesseract@@QEAAXAEBVFCOORD@2@@Z = @ILT+99995(?rotate_large@TBOX@tesseract@@QEAAXAEBVFCOORD@2@@Z)
       2647  A56 0000954D ?row@PAGE_RES_IT@tesseract@@QEBAPEAVROW_RES@2@XZ = @ILT+34120(?row@PAGE_RES_IT@tesseract@@QEBAPEAVROW_RES@2@XZ)
       2648  A57 00016B6C ?row_count@StructuredTable@tesseract@@QEBAHXZ = @ILT+88935(?row_count@StructuredTable@tesseract@@QEBAHXZ)
       2649  A58 00006B3B ?row_height@StructuredTable@tesseract@@QEBAHH@Z = @ILT+23350(?row_height@StructuredTable@tesseract@@QEBAHH@Z)
       2650  A59 00006686 ?row_list@BLOCK@tesseract@@QEAAPEAVROW_LIST@2@XZ = @ILT+22145(?row_list@BLOCK@tesseract@@QEAAPEAVROW_LIST@2@XZ)
       2651  A5A 00019CE5 ?safe_dict_word@Tesseract@tesseract@@QEAAFPEBVWERD_RES@2@@Z = @ILT+101600(?safe_dict_word@Tesseract@tesseract@@QEAAFPEBVWERD_RES@2@@Z)
       2652  A5B 000094DF ?sample_index@TrainingSample@tesseract@@QEBAHXZ = @ILT+34010(?sample_index@TrainingSample@tesseract@@QEBAHXZ)
       2653  A5C 000079E6 ?sample_iteration@LSTMRecognizer@tesseract@@QEBAHXZ = @ILT+27105(?sample_iteration@LSTMRecognizer@tesseract@@QEBAHXZ)
       2654  A5D 00016A5E ?save_to_file@UNICHARSET@tesseract@@QEBA_NPEAU_iobuf@@@Z = @ILT+88665(?save_to_file@UNICHARSET@tesseract@@QEBA_NPEAU_iobuf@@@Z)
       2655  A5E 00019DF3 ?save_to_file@UNICHARSET@tesseract@@QEBA_NPEAVTFile@2@@Z = @ILT+101870(?save_to_file@UNICHARSET@tesseract@@QEBA_NPEAVTFile@2@@Z)
       2656  A5F 000057F4 ?save_to_file@UNICHARSET@tesseract@@QEBA_NQEBD@Z = @ILT+18415(?save_to_file@UNICHARSET@tesseract@@QEBA_NQEBD@Z)
       2657  A60 00010825 ?save_to_string@UNICHARSET@tesseract@@QEBA_NAEAV?$basic_string@DU?$char_traits@D@std@@V?$allocator@D@2@@std@@@Z = @ILT+63520(?save_to_string@UNICHARSET@tesseract@@QEBA_NAEAV?$basic_string@DU?$char_traits@D@std@@V?$allocator@D@2@@std@@@Z)
       2658  A61 0000D495 ?scale@TBOX@tesseract@@QEAAXM@Z = @ILT+50320(?scale@TBOX@tesseract@@QEAAXM@Z)
       2659  A62 0001A03C ?scale@TBOX@tesseract@@QEAAXVFCOORD@2@@Z = @ILT+102455(?scale@TBOX@tesseract@@QEAAXVFCOORD@2@@Z)
       2660  A63 000024E6 ?scaled_color@Tesseract@tesseract@@QEBA?AVImage@2@XZ = @ILT+5345(?scaled_color@Tesseract@tesseract@@QEBA?AVImage@2@XZ)
       2661  A64 0000F4C0 ?scaled_factor@Tesseract@tesseract@@QEBAHXZ = @ILT+58555(?scaled_factor@Tesseract@tesseract@@QEBAHXZ)
       2662  A65 00013174 ?script_has_upper_lower@UNICHARSET@tesseract@@QEBA_NXZ = @ILT+74095(?script_has_upper_lower@UNICHARSET@tesseract@@QEBA_NXZ)
       2663  A66 0000614F ?script_has_xheight@UNICHARSET@tesseract@@QEBA_NXZ = @ILT+20810(?script_has_xheight@UNICHARSET@tesseract@@QEBA_NXZ)
       2664  A67 00015B0E ?script_id@WERD@tesseract@@QEBAHXZ = @ILT+84745(?script_id@WERD@tesseract@@QEBAHXZ)
       2665  A68 00011AEF ?script_pos_pass@Tesseract@tesseract@@QEAAXPEAVPAGE_RES@2@@Z = @ILT+68330(?script_pos_pass@Tesseract@tesseract@@QEAAXPEAVPAGE_RES@2@@Z)
       2666  A69 00016ECD ?sd@STATS@tesseract@@QEBANXZ = @ILT+89800(?sd@STATS@tesseract@@QEBANXZ)
       2667  A6A 0000DC10 ?segmentTimestepsByCharacters@RecodeBeamSearch@tesseract@@QEAAXXZ = @ILT+52235(?segmentTimestepsByCharacters@RecodeBeamSearch@tesseract@@QEAAXXZ)
       2668  A6B 0001C1AC ?select_blob_to_split@Wordrec@tesseract@@QEAAHAEBV?$vector@PEAVBLOB_CHOICE@tesseract@@V?$allocator@PEAVBLOB_CHOICE@tesseract@@@std@@@std@@M_N@Z = @ILT+111015(?select_blob_to_split@Wordrec@tesseract@@QEAAHAEBV?$vector@PEAVBLOB_CHOICE@tesseract@@V?$allocator@PEAVBLOB_CHOICE@tesseract@@@std@@@std@@M_N@Z)
       2669  A6C 0001B6E9 ?select_blob_to_split_from_fixpt@Wordrec@tesseract@@QEAAHPEAV?$vector@UDANGERR_INFO@tesseract@@V?$allocator@UDANGERR_INFO@tesseract@@@std@@@std@@@Z = @ILT+108260(?select_blob_to_split_from_fixpt@Wordrec@tesseract@@QEAAHPEAV?$vector@UDANGERR_INFO@tesseract@@V?$allocator@UDANGERR_INFO@tesseract@@@std@@@std@@@Z)
       2670  A6D 00013EA3 ?set_adjust_factor@WERD_CHOICE@tesseract@@QEAAXM@Z = @ILT+77470(?set_adjust_factor@WERD_CHOICE@tesseract@@QEAAXM@Z)
       2671  A6E 000137E6 ?set_advance_stats@UNICHARSET@tesseract@@QEAAXHMM@Z = @ILT+75745(?set_advance_stats@UNICHARSET@tesseract@@QEAAXHMM@Z)
       2672  A6F 000066AE ?set_all@CHAR_FRAGMENT@tesseract@@QEAAXPEBDHH_N@Z = @ILT+22185(?set_all@CHAR_FRAGMENT@tesseract@@QEAAXPEBDHH_N@Z)
       2673  A70 000132C3 ?set_bearing_stats@UNICHARSET@tesseract@@QEAAXHMM@Z = @ILT+74430(?set_bearing_stats@UNICHARSET@tesseract@@QEAAXHMM@Z)
       2674  A71 00008404 ?set_black_and_whitelist@UNICHARSET@tesseract@@QEAAXPEBD00@Z = @ILT+29695(?set_black_and_whitelist@UNICHARSET@tesseract@@QEAAXPEBD00@Z)
       2675  A72 00006DB1 ?set_blanks@WERD@tesseract@@QEAAXE@Z = @ILT+23980(?set_blanks@WERD@tesseract@@QEAAXE@Z)
       2676  A73 0001A109 ?set_blob_choice@WERD_CHOICE@tesseract@@QEAAXHHPEBVBLOB_CHOICE@2@@Z = @ILT+102660(?set_blob_choice@WERD_CHOICE@tesseract@@QEAAXHHPEBVBLOB_CHOICE@2@@Z)
       2677  A74 0000E3A4 ?set_blob_type@ColPartition@tesseract@@QEAAXW4BlobRegionType@2@@Z = @ILT+54175(?set_blob_type@ColPartition@tesseract@@QEAAXW4BlobRegionType@2@@Z)
       2678  A75 0000562D ?set_block@DENORM@tesseract@@QEAAXPEBVBLOCK@2@@Z = @ILT+17960(?set_block@DENORM@tesseract@@QEAAXPEBVBLOCK@2@@Z)
       2679  A76 00019B5F ?set_block_owned@ColPartition@tesseract@@QEAAX_N@Z = @ILT+101210(?set_block_owned@ColPartition@tesseract@@QEAAX_N@Z)
       2680  A77 0000401B ?set_bottom@TBOX@tesseract@@QEAAXH@Z = @ILT+12310(?set_bottom@TBOX@tesseract@@QEAAXH@Z)
       2681  A78 000146BE ?set_bottom_spacing@ColPartition@tesseract@@QEAAXH@Z = @ILT+79545(?set_bottom_spacing@ColPartition@tesseract@@QEAAXH@Z)
       2682  A79 0001CF44 ?set_bounding_box@StructuredTable@tesseract@@QEAAXAEBVTBOX@2@@Z = @ILT+114495(?set_bounding_box@StructuredTable@tesseract@@QEAAXAEBVTBOX@2@@Z)
       2683  A7A 00019E8E ?set_bounding_box@TrainingSample@tesseract@@QEAAXAEBVTBOX@2@@Z = @ILT+102025(?set_bounding_box@TrainingSample@tesseract@@QEAAXAEBVTBOX@2@@Z)
       2684  A7B 0000D3BE ?set_cell_over_xheight@BLOCK@tesseract@@QEAAXM@Z = @ILT+50105(?set_cell_over_xheight@BLOCK@tesseract@@QEAAXM@Z)
       2685  A7C 00001640 ?set_certainty@WERD_CHOICE@tesseract@@QEAAXM@Z = @ILT+1595(?set_certainty@WERD_CHOICE@tesseract@@QEAAXM@Z)
       2686  A7D 000138FE ?set_cjk_script@ColumnFinder@tesseract@@QEAAX_N@Z = @ILT+76025(?set_cjk_script@ColumnFinder@tesseract@@QEAAX_N@Z)
       2687  A7E 00012ECC ?set_class_id@TrainingSample@tesseract@@QEAAXH@Z = @ILT+73415(?set_class_id@TrainingSample@tesseract@@QEAAXH@Z)
       2688  A7F 000149A2 ?set_classify_rotation@BLOCK@tesseract@@QEAAXAEBVFCOORD@2@@Z = @ILT+80285(?set_classify_rotation@BLOCK@tesseract@@QEAAXAEBVFCOORD@2@@Z)
       2689  A80 00012C7E ?set_dangerous_ambig_found_@WERD_CHOICE@tesseract@@QEAAX_N@Z = @ILT+72825(?set_dangerous_ambig_found_@WERD_CHOICE@tesseract@@QEAAX_N@Z)
       2690  A81 00008733 ?set_destination_index@Shape@tesseract@@QEAAXH@Z = @ILT+30510(?set_destination_index@Shape@tesseract@@QEAAXH@Z)
       2691  A82 00017A21 ?set_direction@UNICHARSET@tesseract@@QEAAXHW4Direction@12@@Z = @ILT+92700(?set_direction@UNICHARSET@tesseract@@QEAAXHW4Direction@12@@Z)
       2692  A83 0000FA1A ?set_display_flag@WERD@tesseract@@QEAAXE_N@Z = @ILT+59925(?set_display_flag@WERD@tesseract@@QEAAXE_N@Z)
       2693  A84 00012CB5 ?set_done@Tesseract@tesseract@@QEAAXPEAVWERD_RES@2@F@Z = @ILT+72880(?set_done@Tesseract@tesseract@@QEAAXPEAVWERD_RES@2@F@Z)
       2694  A85 00002A8B ?set_empty_edge@SquishedDawg@tesseract@@AEAAX_J@Z = @ILT+6790(?set_empty_edge@SquishedDawg@tesseract@@AEAAX_J@Z)
       2695  A86 0000B424 ?set_first_column@ColPartition@tesseract@@QEAAXH@Z = @ILT+42015(?set_first_column@ColPartition@tesseract@@QEAAXH@Z)
       2696  A87 00011BD0 ?set_flag@WERD@tesseract@@QEAAXW4WERD_FLAGS@2@_N@Z = @ILT+68555(?set_flag@WERD@tesseract@@QEAAXW4WERD_FLAGS@2@_N@Z)
       2697  A88 0000CC2A ?set_flow@ColPartition@tesseract@@QEAAXW4BlobTextFlowType@2@@Z = @ILT+48165(?set_flow@ColPartition@tesseract@@QEAAXW4BlobTextFlowType@2@@Z)
       2698  A89 0000C013 ?set_font_class@BLOCK@tesseract@@QEAAXF@Z = @ILT+45070(?set_font_class@BLOCK@tesseract@@QEAAXF@Z)
       2699  A8A 000106EF ?set_font_id@TrainingSample@tesseract@@QEAAXH@Z = @ILT+63210(?set_font_id@TrainingSample@tesseract@@QEAAXH@Z)
       2700  A8B 000049AD ?set_global_median_blob_width@TableFinder@tesseract@@IEAAXH@Z = @ILT+14760(?set_global_median_blob_width@TableFinder@tesseract@@IEAAXH@Z)
       2701  A8C 00008440 ?set_global_median_ledding@TableFinder@tesseract@@IEAAXH@Z = @ILT+29755(?set_global_median_ledding@TableFinder@tesseract@@IEAAXH@Z)
       2702  A8D 0000FE98 ?set_global_median_xheight@TableFinder@tesseract@@IEAAXH@Z = @ILT+61075(?set_global_median_xheight@TableFinder@tesseract@@IEAAXH@Z)
       2703  A8E 0001A23F ?set_hyphen_word@Dict@tesseract@@QEAAXAEBVWERD_CHOICE@2@AEBVDawgPositionVector@2@@Z = @ILT+102970(?set_hyphen_word@Dict@tesseract@@QEAAXAEBVWERD_CHOICE@2@AEBVDawgPositionVector@2@@Z)
       2704  A8F 000194FC ?set_imagefilename@ImageData@tesseract@@QEAAXAEBV?$basic_string@DU?$char_traits@D@std@@V?$allocator@D@2@@std@@@Z = @ILT+99575(?set_imagefilename@ImageData@tesseract@@QEAAXAEBV?$basic_string@DU?$char_traits@D@std@@V?$allocator@D@2@@std@@@Z)
       2705  A90 00019812 ?set_inside_table_column@ColPartition@tesseract@@QEAAX_N@Z = @ILT+100365(?set_inside_table_column@ColPartition@tesseract@@QEAAX_N@Z)
       2706  A91 00013D18 ?set_int_mode@NetworkIO@tesseract@@QEAAX_N@Z = @ILT+77075(?set_int_mode@NetworkIO@tesseract@@QEAAX_N@Z)
       2707  A92 00012774 ?set_inverse@DENORM@tesseract@@QEAAX_N@Z = @ILT+71535(?set_inverse@DENORM@tesseract@@QEAAX_N@Z)
       2708  A93 00008B6B ?set_is_error@TrainingSample@tesseract@@QEAAX_N@Z = @ILT+31590(?set_is_error@TrainingSample@tesseract@@QEAAX_N@Z)
       2709  A94 00014EA7 ?set_isalpha@UNICHARSET@tesseract@@QEAAXH_N@Z = @ILT+81570(?set_isalpha@UNICHARSET@tesseract@@QEAAXH_N@Z)
       2710  A95 00004598 ?set_isdigit@UNICHARSET@tesseract@@QEAAXH_N@Z = @ILT+13715(?set_isdigit@UNICHARSET@tesseract@@QEAAXH_N@Z)
       2711  A96 0000DC2E ?set_islower@UNICHARSET@tesseract@@QEAAXH_N@Z = @ILT+52265(?set_islower@UNICHARSET@tesseract@@QEAAXH_N@Z)
       2712  A97 0001CC2E ?set_isngram@UNICHARSET@tesseract@@QEAAXH_N@Z = @ILT+113705(?set_isngram@UNICHARSET@tesseract@@QEAAXH_N@Z)
       2713  A98 0000E06B ?set_ispunctuation@UNICHARSET@tesseract@@QEAAXH_N@Z = @ILT+53350(?set_ispunctuation@UNICHARSET@tesseract@@QEAAXH_N@Z)
       2714  A99 00014BC8 ?set_isupper@UNICHARSET@tesseract@@QEAAXH_N@Z = @ILT+80835(?set_isupper@UNICHARSET@tesseract@@QEAAXH_N@Z)
       2715  A9A 00016C70 ?set_language@ImageData@tesseract@@QEAAXAEBV?$basic_string@DU?$char_traits@D@std@@V?$allocator@D@2@@std@@@Z = @ILT+89195(?set_language@ImageData@tesseract@@QEAAXAEBV?$basic_string@DU?$char_traits@D@std@@V?$allocator@D@2@@std@@@Z)
       2716  A9B 0000821F ?set_last_column@ColPartition@tesseract@@QEAAXH@Z = @ILT+29210(?set_last_column@ColPartition@tesseract@@QEAAXH@Z)
       2717  A9C 0001D40D ?set_left@TBOX@tesseract@@QEAAXH@Z = @ILT+115720(?set_left@TBOX@tesseract@@QEAAXH@Z)
       2718  A9D 00008AAD ?set_left_margin@ColPartition@tesseract@@QEAAXH@Z = @ILT+31400(?set_left_margin@ColPartition@tesseract@@QEAAXH@Z)
       2719  A9E 000011B3 ?set_left_to_right_language@TableFinder@tesseract@@QEAAX_N@Z = @ILT+430(?set_left_to_right_language@TableFinder@tesseract@@QEAAX_N@Z)
       2720  A9F 0000AC63 ?set_length@WERD_CHOICE@tesseract@@QEAAXH@Z = @ILT+40030(?set_length@WERD_CHOICE@tesseract@@QEAAXH@Z)
       2721  AA0 0000D47C ?set_line_grid@StructuredTable@tesseract@@QEAAXPEAVColPartitionGrid@2@@Z = @ILT+50295(?set_line_grid@StructuredTable@tesseract@@QEAAXPEAVColPartitionGrid@2@@Z)
       2722  AA1 0000884B ?set_line_grid@TableRecognizer@tesseract@@QEAAXPEAVColPartitionGrid@2@@Z = @ILT+30790(?set_line_grid@TableRecognizer@tesseract@@QEAAXPEAVColPartitionGrid@2@@Z)
       2723  AA2 0000B221 ?set_marker_flag_in_edge_rec@Dawg@tesseract@@IEAAXPEA_K@Z = @ILT+41500(?set_marker_flag_in_edge_rec@Dawg@tesseract@@IEAAXPEA_K@Z)
       2724  AA3 00017B16 ?set_max_dist@TrainingSample@tesseract@@QEAAXN@Z = @ILT+92945(?set_max_dist@TrainingSample@tesseract@@QEAAXN@Z)
       2725  AA4 000069AB ?set_max_text_height@StructuredTable@tesseract@@QEAAXH@Z = @ILT+22950(?set_max_text_height@StructuredTable@tesseract@@QEAAXH@Z)
       2726  AA5 0000BBEA ?set_max_text_height@TableRecognizer@tesseract@@QEAAXH@Z = @ILT+44005(?set_max_text_height@TableRecognizer@tesseract@@QEAAXH@Z)
       2727  AA6 00003391 ?set_median_height@ColPartition@tesseract@@QEAAXH@Z = @ILT+9100(?set_median_height@ColPartition@tesseract@@QEAAXH@Z)
       2728  AA7 00001EEC ?set_median_size@BLOCK@tesseract@@QEAAXHH@Z = @ILT+3815(?set_median_size@BLOCK@tesseract@@QEAAXHH@Z)
       2729  AA8 00018A02 ?set_median_width@ColPartition@tesseract@@QEAAXH@Z = @ILT+96765(?set_median_width@ColPartition@tesseract@@QEAAXH@Z)
       2730  AA9 0001D520 ?set_min_height@TableRecognizer@tesseract@@QEAAXH@Z = @ILT+115995(?set_min_height@TableRecognizer@tesseract@@QEAAXH@Z)
       2731  AAA 0000E516 ?set_min_orientation_margin@TessBaseAPI@tesseract@@QEAAXN@Z = @ILT+54545(?set_min_orientation_margin@TessBaseAPI@tesseract@@QEAAXN@Z)
       2732  AAB 00010140 ?set_min_width@TableRecognizer@tesseract@@QEAAXH@Z = @ILT+61755(?set_min_width@TableRecognizer@tesseract@@QEAAXH@Z)
       2733  AAC 0000E0F2 ?set_mirror@UNICHARSET@tesseract@@QEAAXHH@Z = @ILT+53485(?set_mirror@UNICHARSET@tesseract@@QEAAXHH@Z)
       2734  AAD 000193BC ?set_natural@CHAR_FRAGMENT@tesseract@@QEAAX_N@Z = @ILT+99255(?set_natural@CHAR_FRAGMENT@tesseract@@QEAAX_N@Z)
       2735  AAE 000058C6 ?set_nearest_neighbor_above@ColPartition@tesseract@@QEAAXPEAV12@@Z = @ILT+18625(?set_nearest_neighbor_above@ColPartition@tesseract@@QEAAXPEAV12@@Z)
       2736  AAF 0000F8CB ?set_nearest_neighbor_below@ColPartition@tesseract@@QEAAXPEAV12@@Z = @ILT+59590(?set_nearest_neighbor_below@ColPartition@tesseract@@QEAAXPEAV12@@Z)
       2737  AB0 00019A24 ?set_next_node@SquishedDawg@tesseract@@AEAAX_J0@Z = @ILT+100895(?set_next_node@SquishedDawg@tesseract@@AEAAX_J0@Z)
       2738  AB1 00015258 ?set_next_node_in_edge_rec@Dawg@tesseract@@IEAAXPEA_K_J@Z = @ILT+82515(?set_next_node_in_edge_rec@Dawg@tesseract@@IEAAXPEA_K_J@Z)
       2739  AB2 000120FD ?set_normed@UNICHARSET@tesseract@@QEAAXHPEBD@Z = @ILT+69880(?set_normed@UNICHARSET@tesseract@@QEAAXHPEBD@Z)
       2740  AB3 000168E7 ?set_normed_ids@UNICHARSET@tesseract@@QEAAXH@Z = @ILT+88290(?set_normed_ids@UNICHARSET@tesseract@@QEAAXH@Z)
       2741  AB4 00013F70 ?set_other_case@UNICHARSET@tesseract@@QEAAXHH@Z = @ILT+77675(?set_other_case@UNICHARSET@tesseract@@QEAAXHH@Z)
       2742  AB5 00006C7B ?set_owns_blobs@ColPartition@tesseract@@QEAAX_N@Z = @ILT+23670(?set_owns_blobs@ColPartition@tesseract@@QEAAX_N@Z)
       2743  AB6 000188EF ?set_page_num@TrainingSample@tesseract@@QEAAXH@Z = @ILT+96490(?set_page_num@TrainingSample@tesseract@@QEAAXH@Z)
       2744  AB7 0001590B ?set_page_number@ImageData@tesseract@@QEAAXH@Z = @ILT+84230(?set_page_number@ImageData@tesseract@@QEAAXH@Z)
       2745  AB8 00005EFC ?set_pass1@Wordrec@tesseract@@QEAAXXZ = @ILT+20215(?set_pass1@Wordrec@tesseract@@QEAAXXZ)
       2746  AB9 00017193 ?set_pass2@Wordrec@tesseract@@QEAAXXZ = @ILT+90510(?set_pass2@Wordrec@tesseract@@QEAAXXZ)
       2747  ABA 00006799 ?set_permuter@WERD_CHOICE@tesseract@@QEAAXE@Z = @ILT+22420(?set_permuter@WERD_CHOICE@tesseract@@QEAAXE@Z)
       2748  ABB 00001E5B ?set_pix@DENORM@tesseract@@QEAAXVImage@2@@Z = @ILT+3670(?set_pix@DENORM@tesseract@@QEAAXVImage@2@@Z)
       2749  ABC 00013647 ?set_pix_grey@Tesseract@tesseract@@QEAAXVImage@2@@Z = @ILT+75330(?set_pix_grey@Tesseract@tesseract@@QEAAXVImage@2@@Z)
       2750  ABD 00017238 ?set_pix_original@Tesseract@tesseract@@QEAAXVImage@2@@Z = @ILT+90675(?set_pix_original@Tesseract@tesseract@@QEAAXVImage@2@@Z)
       2751  ABE 00019290 ?set_pix_thresholds@Tesseract@tesseract@@QEAAXVImage@2@@Z = @ILT+98955(?set_pix_thresholds@Tesseract@tesseract@@QEAAXVImage@2@@Z)
       2752  ABF 00001A87 ?set_pos@CHAR_FRAGMENT@tesseract@@QEAAXH@Z = @ILT+2690(?set_pos@CHAR_FRAGMENT@tesseract@@QEAAXH@Z)
       2753  AC0 0000D9A4 ?set_range@STATS@tesseract@@QEAA_NHH@Z = @ILT+51615(?set_range@STATS@tesseract@@QEAA_NHH@Z)
       2754  AC1 000194A7 ?set_ranges_empty@UNICHARSET@tesseract@@QEAAXXZ = @ILT+99490(?set_ranges_empty@UNICHARSET@tesseract@@QEAAXXZ)
       2755  AC2 0000CBBC ?set_rating@WERD_CHOICE@tesseract@@QEAAXM@Z = @ILT+48055(?set_rating@WERD_CHOICE@tesseract@@QEAAXM@Z)
       2756  AC3 0000CC39 ?set_re_rotation@BLOCK@tesseract@@QEAAXAEBVFCOORD@2@@Z = @ILT+48180(?set_re_rotation@BLOCK@tesseract@@QEAAXAEBVFCOORD@2@@Z)
       2757  AC4 0001944D ?set_resolution@TableFinder@tesseract@@QEAAXH@Z = @ILT+99400(?set_resolution@TableFinder@tesseract@@QEAAXH@Z)
       2758  AC5 00009FBB ?set_right@TBOX@tesseract@@QEAAXH@Z = @ILT+36790(?set_right@TBOX@tesseract@@QEAAXH@Z)
       2759  AC6 0001690A ?set_right_margin@ColPartition@tesseract@@QEAAXH@Z = @ILT+88325(?set_right_margin@ColPartition@tesseract@@QEAAXH@Z)
       2760  AC7 00011793 ?set_right_to_left@BLOCK@tesseract@@QEAAX_N@Z = @ILT+67470(?set_right_to_left@BLOCK@tesseract@@QEAAX_N@Z)
       2761  AC8 000193EE ?set_sample_index@TrainingSample@tesseract@@QEAAXH@Z = @ILT+99305(?set_sample_index@TrainingSample@tesseract@@QEAAXH@Z)
       2762  AC9 0001837C ?set_script@UNICHARSET@tesseract@@QEAAXHPEBD@Z = @ILT+95095(?set_script@UNICHARSET@tesseract@@QEAAXHPEBD@Z)
       2763  ACA 00017AC6 ?set_script_id@WERD@tesseract@@QEAAXH@Z = @ILT+92865(?set_script_id@WERD@tesseract@@QEAAXH@Z)
       2764  ACB 00019493 ?set_side_step@ColPartition@tesseract@@QEAAXH@Z = @ILT+99470(?set_side_step@ColPartition@tesseract@@QEAAXH@Z)
       2765  ACC 000098EA ?set_skew@BLOCK@tesseract@@QEAAXAEBVFCOORD@2@@Z = @ILT+35045(?set_skew@BLOCK@tesseract@@QEAAXAEBVFCOORD@2@@Z)
       2766  ACD 0000792D ?set_source_resolution@Tesseract@tesseract@@QEAAXH@Z = @ILT+26920(?set_source_resolution@Tesseract@tesseract@@QEAAXH@Z)
       2767  ACE 000057A9 ?set_space_above@ColPartition@tesseract@@QEAAXH@Z = @ILT+18340(?set_space_above@ColPartition@tesseract@@QEAAXH@Z)
       2768  ACF 0001B126 ?set_space_below@ColPartition@tesseract@@QEAAXH@Z = @ILT+106785(?set_space_below@ColPartition@tesseract@@QEAAXH@Z)
       2769  AD0 0000FF60 ?set_space_to_left@ColPartition@tesseract@@QEAAXH@Z = @ILT+61275(?set_space_to_left@ColPartition@tesseract@@QEAAXH@Z)
       2770  AD1 0000CAEA ?set_space_to_right@ColPartition@tesseract@@QEAAXH@Z = @ILT+47845(?set_space_to_right@ColPartition@tesseract@@QEAAXH@Z)
       2771  AD2 0000E0B1 ?set_stats@BLOCK@tesseract@@QEAAX_NFFF@Z = @ILT+53420(?set_stats@BLOCK@tesseract@@QEAAX_NFFF@Z)
       2772  AD3 00002545 ?set_stride_map@NetworkIO@tesseract@@QEAAXAEBVStrideMap@2@@Z = @ILT+5440(?set_stride_map@NetworkIO@tesseract@@QEAAXAEBVStrideMap@2@@Z)
       2773  AD4 0001CD0A ?set_subtract@CLIST@tesseract@@QEAAXP6AHPEBX0@Z_NPEAV12@3@Z = @ILT+113925(?set_subtract@CLIST@tesseract@@QEAAXP6AHPEBX0@Z_NPEAV12@3@Z)
       2774  AD5 0000F1E6 ?set_swap@TFile@tesseract@@QEAAX_N@Z = @ILT+57825(?set_swap@TFile@tesseract@@QEAAX_N@Z)
       2775  AD6 000081A7 ?set_table_type@ColPartition@tesseract@@QEAAXXZ = @ILT+29090(?set_table_type@ColPartition@tesseract@@QEAAXXZ)
       2776  AD7 000130A7 ?set_text@WERD@tesseract@@QEAAXPEBD@Z = @ILT+73890(?set_text@WERD@tesseract@@QEAAXPEBD@Z)
       2777  AD8 00005FD8 ?set_text_grid@StructuredTable@tesseract@@QEAAXPEAVColPartitionGrid@2@@Z = @ILT+20435(?set_text_grid@StructuredTable@tesseract@@QEAAXPEAVColPartitionGrid@2@@Z)
       2778  AD9 00017DAF ?set_text_grid@TableRecognizer@tesseract@@QEAAXPEAVColPartitionGrid@2@@Z = @ILT+93610(?set_text_grid@TableRecognizer@tesseract@@QEAAXPEAVColPartitionGrid@2@@Z)
       2779  ADA 00016BF8 ?set_to_given_coords@TBOX@tesseract@@QEAAXHHHH@Z = @ILT+89075(?set_to_given_coords@TBOX@tesseract@@QEAAXHHHH@Z)
       2780  ADB 0000B4CE ?set_to_list@CLIST_ITERATOR@tesseract@@QEAAXPEAVCLIST@2@@Z = @ILT+42185(?set_to_list@CLIST_ITERATOR@tesseract@@QEAAXPEAVCLIST@2@@Z)
       2781  ADC 0001BA4A ?set_to_list@ELIST2_ITERATOR@tesseract@@QEAAXPEAVELIST2@2@@Z = @ILT+109125(?set_to_list@ELIST2_ITERATOR@tesseract@@QEAAXPEAVELIST2@2@@Z)
       2782  ADD 000027CA ?set_to_list@ELIST_ITERATOR@tesseract@@QEAAXPEAVELIST@2@@Z = @ILT+6085(?set_to_list@ELIST_ITERATOR@tesseract@@QEAAXPEAVELIST@2@@Z)
       2783  ADE 0001AFC8 ?set_top@TBOX@tesseract@@QEAAXH@Z = @ILT+106435(?set_top@TBOX@tesseract@@QEAAXH@Z)
       2784  ADF 0000999E ?set_top_bottom@UNICHARSET@tesseract@@QEAAXHHHHH@Z = @ILT+35225(?set_top_bottom@UNICHARSET@tesseract@@QEAAXHHHHH@Z)
       2785  AE0 0001570D ?set_top_spacing@ColPartition@tesseract@@QEAAXH@Z = @ILT+83720(?set_top_spacing@ColPartition@tesseract@@QEAAXH@Z)
       2786  AE1 0000600A ?set_total@CHAR_FRAGMENT@tesseract@@QEAAXH@Z = @ILT+20485(?set_total@CHAR_FRAGMENT@tesseract@@QEAAXH@Z)
       2787  AE2 0000767B ?set_type@ColPartition@tesseract@@QEAAXW4PolyBlockType@2@@Z = @ILT+26230(?set_type@ColPartition@tesseract@@QEAAXW4PolyBlockType@2@@Z)
       2788  AE3 000119CD ?set_unichar@CHAR_FRAGMENT@tesseract@@QEAAXPEBD@Z = @ILT+68040(?set_unichar@CHAR_FRAGMENT@tesseract@@QEAAXPEBD@Z)
       2789  AE4 0000D783 ?set_unichar_id@WERD_CHOICE@tesseract@@QEAAXHH@Z = @ILT+51070(?set_unichar_id@WERD_CHOICE@tesseract@@QEAAXHH@Z)
       2790  AE5 0000D77E ?set_unichar_id@WERD_CHOICE@tesseract@@QEAAXHHMMH@Z = @ILT+51065(?set_unichar_id@WERD_CHOICE@tesseract@@QEAAXHHMMH@Z)
       2791  AE6 0000EEE4 ?set_unichars_in_script_order@WERD_CHOICE@tesseract@@QEAA_N_N@Z = @ILT+57055(?set_unichars_in_script_order@WERD_CHOICE@tesseract@@QEAA_N_N@Z)
       2792  AE7 0000566E ?set_unicharset@ShapeTable@tesseract@@QEAAXAEBVUNICHARSET@2@@Z = @ILT+18025(?set_unicharset@ShapeTable@tesseract@@QEAAXAEBVUNICHARSET@2@@Z)
       2793  AE8 00005E61 ?set_unlv_suspects@Tesseract@tesseract@@QEAAXPEAVWERD_RES@2@@Z = @ILT+20060(?set_unlv_suspects@Tesseract@tesseract@@QEAAXPEAVWERD_RES@2@@Z)
       2794  AE9 00015E5B ?set_vertical@ColPartition@tesseract@@QEAAXAEBVICOORD@2@@Z = @ILT+85590(?set_vertical@ColPartition@tesseract@@QEAAXAEBVICOORD@2@@Z)
       2795  AEA 00012FF8 ?set_weight@TrainingSample@tesseract@@QEAAXN@Z = @ILT+73715(?set_weight@TrainingSample@tesseract@@QEAAXN@Z)
       2796  AEB 0000B186 ?set_width_stats@UNICHARSET@tesseract@@QEAAXHMM@Z = @ILT+41345(?set_width_stats@UNICHARSET@tesseract@@QEAAXHMM@Z)
       2797  AEC 00013C37 ?set_word_fonts@Tesseract@tesseract@@QEAAXPEAVWERD_RES@2@@Z = @ILT+76850(?set_word_fonts@Tesseract@tesseract@@QEAAXPEAVWERD_RES@2@@Z)
       2798  AED 00008C51 ?set_working_set@ColPartition@tesseract@@QEAAXPEAVWorkingPartSet@2@@Z = @ILT+31820(?set_working_set@ColPartition@tesseract@@QEAAXPEAVWorkingPartSet@2@@Z)
       2799  AEE 00001F5F ?set_x@FCOORD@tesseract@@QEAAXM@Z = @ILT+3930(?set_x@FCOORD@tesseract@@QEAAXM@Z)
       2800  AEF 00005D58 ?set_x_heights@WERD_CHOICE@tesseract@@QEAAXMM@Z = @ILT+19795(?set_x_heights@WERD_CHOICE@tesseract@@QEAAXMM@Z)
       2801  AF0 0001CA53 ?set_xheight@BLOCK@tesseract@@QEAAXH@Z = @ILT+113230(?set_xheight@BLOCK@tesseract@@QEAAXH@Z)
       2802  AF1 000041F6 ?set_y@FCOORD@tesseract@@QEAAXM@Z = @ILT+12785(?set_y@FCOORD@tesseract@@QEAAXM@Z)
       2803  AF2 0000BA41 ?shallow_clear@CLIST@tesseract@@QEAAXXZ = @ILT+43580(?shallow_clear@CLIST@tesseract@@QEAAXXZ)
       2804  AF3 0000687A ?shallow_copy@CLIST@tesseract@@QEAAXPEAV12@@Z = @ILT+22645(?shallow_copy@CLIST@tesseract@@QEAAXPEAV12@@Z)
       2805  AF4 0000C536 ?shallow_copy@ELIST2@tesseract@@QEAAXPEAV12@@Z = @ILT+46385(?shallow_copy@ELIST2@tesseract@@QEAAXPEAV12@@Z)
       2806  AF5 0001CE27 ?shallow_copy@ELIST@tesseract@@QEAAXPEAV12@@Z = @ILT+114210(?shallow_copy@ELIST@tesseract@@QEAAXPEAV12@@Z)
       2807  AF6 00017EF9 ?shallow_copy@WERD@tesseract@@QEAAPEAV12@XZ = @ILT+93940(?shallow_copy@WERD@tesseract@@QEAAPEAV12@XZ)
       2808  AF7 000049BC ?shallow_copy@WERD_CHOICE@tesseract@@QEBA?AV12@HH@Z = @ILT+14775(?shallow_copy@WERD_CHOICE@tesseract@@QEBA?AV12@HH@Z)
       2809  AF8 00013CE6 ?shape_table@Classify@tesseract@@QEBAPEBVShapeTable@2@XZ = @ILT+77025(?shape_table@Classify@tesseract@@QEBAPEBVShapeTable@2@XZ)
       2810  AF9 00009336 ?singleton@CLIST@tesseract@@QEBA_NXZ = @ILT+33585(?singleton@CLIST@tesseract@@QEBA_NXZ)
       2811  AFA 0000EAB1 ?singleton@ELIST2@tesseract@@QEBA_NXZ = @ILT+55980(?singleton@ELIST2@tesseract@@QEBA_NXZ)
       2812  AFB 00016063 ?singleton@ELIST@tesseract@@QEBA_NXZ = @ILT+86110(?singleton@ELIST@tesseract@@QEBA_NXZ)
       2813  AFC 0000F353 ?size@BitVector@tesseract@@QEBAHXZ = @ILT+58190(?size@BitVector@tesseract@@QEBAHXZ)
       2814  AFD 00004048 ?size@Shape@tesseract@@QEBAHXZ = @ILT+12355(?size@Shape@tesseract@@QEBAHXZ)
       2815  AFE 00011D8D ?size@UNICHARSET@tesseract@@QEBAHXZ = @ILT+69000(?size@UNICHARSET@tesseract@@QEBAHXZ)
       2816  AFF 0001A929 ?skew@BLOCK@tesseract@@QEBA?AVFCOORD@2@XZ = @ILT+104740(?skew@BLOCK@tesseract@@QEBA?AVFCOORD@2@XZ)
       2817  B00 00015960 ?smooth@STATS@tesseract@@QEAAXH@Z = @ILT+84315(?smooth@STATS@tesseract@@QEAAXH@Z)
       2818  B01 00007FF9 ?sort@CLIST@tesseract@@QEAAXP6AHPEBX0@Z@Z = @ILT+28660(?sort@CLIST@tesseract@@QEAAXP6AHPEBX0@Z@Z)
       2819  B02 000054A2 ?sort@CLIST_ITERATOR@tesseract@@QEAAXP6AHPEBX0@Z@Z = @ILT+17565(?sort@CLIST_ITERATOR@tesseract@@QEAAXP6AHPEBX0@Z@Z)
       2820  B03 00019F60 ?sort@ELIST2@tesseract@@QEAAXP6AHPEBX0@Z@Z = @ILT+102235(?sort@ELIST2@tesseract@@QEAAXP6AHPEBX0@Z@Z)
       2821  B04 0001B6B2 ?sort@ELIST2_ITERATOR@tesseract@@QEAAXP6AHPEBX0@Z@Z = @ILT+108205(?sort@ELIST2_ITERATOR@tesseract@@QEAAXP6AHPEBX0@Z@Z)
       2822  B05 00004BB5 ?sort@ELIST@tesseract@@QEAAXP6AHPEBX0@Z@Z = @ILT+15280(?sort@ELIST@tesseract@@QEAAXP6AHPEBX0@Z@Z)
       2823  B06 0001911E ?sort@ELIST_ITERATOR@tesseract@@QEAAXP6AHPEBX0@Z@Z = @ILT+98585(?sort@ELIST_ITERATOR@tesseract@@QEAAXP6AHPEBX0@Z@Z)
       2824  B07 00010B04 ?sort_edges@Trie@tesseract@@IEAAXPEAV?$vector@_KV?$allocator@_K@std@@@std@@@Z = @ILT+64255(?sort_edges@Trie@tesseract@@IEAAXPEAV?$vector@_KV?$allocator@_K@std@@@std@@@Z)
       2825  B08 0000BCEE ?sort_rows@BLOCK@tesseract@@QEAAXXZ = @ILT+44265(?sort_rows@BLOCK@tesseract@@QEAAXXZ)
       2826  B09 00011DC4 ?source_resolution@Tesseract@tesseract@@QEBAHXZ = @ILT+69055(?source_resolution@Tesseract@tesseract@@QEBAHXZ)
       2827  B0A 0001992F ?space@BLOCK@tesseract@@QEBAFXZ = @ILT+100650(?space@BLOCK@tesseract@@QEBAFXZ)
       2828  B0B 0000146F ?space@WERD@tesseract@@QEBAEXZ = @ILT+1130(?space@WERD@tesseract@@QEBAEXZ)
       2829  B0C 00011D92 ?space_above@ColPartition@tesseract@@QEBAHXZ = @ILT+69005(?space_above@ColPartition@tesseract@@QEBAHXZ)
       2830  B0D 00006F55 ?space_above@StructuredTable@tesseract@@QEBAHXZ = @ILT+24400(?space_above@StructuredTable@tesseract@@QEBAHXZ)
       2831  B0E 0001CBA2 ?space_below@ColPartition@tesseract@@QEBAHXZ = @ILT+113565(?space_below@ColPartition@tesseract@@QEBAHXZ)
       2832  B0F 0000D24C ?space_below@StructuredTable@tesseract@@QEBAHXZ = @ILT+49735(?space_below@StructuredTable@tesseract@@QEBAHXZ)
       2833  B10 0000F2B8 ?space_to_left@ColPartition@tesseract@@QEBAHXZ = @ILT+58035(?space_to_left@ColPartition@tesseract@@QEBAHXZ)
       2834  B11 0000F024 ?space_to_right@ColPartition@tesseract@@QEBAHXZ = @ILT+57375(?space_to_right@ColPartition@tesseract@@QEBAHXZ)
       2835  B12 00017175 ?spec@Network@tesseract@@UEBA?AV?$basic_string@DU?$char_traits@D@std@@V?$allocator@D@2@@std@@XZ = @ILT+90480(?spec@Network@tesseract@@UEBA?AV?$basic_string@DU?$char_traits@D@std@@V?$allocator@D@2@@std@@XZ)
       2836  B13 000194CA ?spline_index@QSPLINE@tesseract@@AEBAHN@Z = @ILT+99525(?spline_index@QSPLINE@tesseract@@AEBAHN@Z)
       2837  B14 00004CF0 ?split_and_recog_word@Tesseract@tesseract@@QEAAXPEAVWERD_RES@2@@Z = @ILT+15595(?split_and_recog_word@Tesseract@tesseract@@QEAAXPEAVWERD_RES@2@@Z)
       2838  B15 000093D6 ?split_word@Tesseract@tesseract@@QEBAXPEAVWERD_RES@2@HPEAPEAV32@PEAPEAUBlamerBundle@2@@Z = @ILT+33745(?split_word@Tesseract@tesseract@@QEBAXPEAVWERD_RES@2@HPEAPEAV32@PEAPEAUBlamerBundle@2@@Z)
       2839  B16 000152B7 ?sqlength@FCOORD@tesseract@@QEBAMXZ = @ILT+82610(?sqlength@FCOORD@tesseract@@QEBAMXZ)
       2840  B17 00D59D2D ?sse_available_@SIMDDetect@tesseract@@0_NA = ?sse_available_@SIMDDetect@tesseract@@0_NA (private: static bool tesseract::SIMDDetect::sse_available_)
       2841  B18 0000D81E ?start_page@PAGE_RES_IT@tesseract@@QEAAPEAVWERD_RES@2@_N@Z = @ILT+51225(?start_page@PAGE_RES_IT@tesseract@@QEAAPEAVWERD_RES@2@_N@Z)
       2842  B19 000182C3 ?state@WERD_CHOICE@tesseract@@QEBAHH@Z = @ILT+94910(?state@WERD_CHOICE@tesseract@@QEBAHH@Z)
       2843  B1A 00018EF3 ?step@QSPLINE@tesseract@@QEAANNN@Z = @ILT+98030(?step@QSPLINE@tesseract@@QEAANNN@Z)
       2844  B1B 00012454 ?step@UNICHARSET@tesseract@@QEBAHPEBD@Z = @ILT+70735(?step@UNICHARSET@tesseract@@QEBAHPEBD@Z)
       2845  B1C 00D59A58 ?stream_@ScrollView@tesseract@@0PEAVSVNetwork@2@EA = ?stream_@ScrollView@tesseract@@0PEAVSVNetwork@2@EA (private: static class tesseract::SVNetwork * tesseract::ScrollView::stream_)
       2846  B1D 000153CF ?stride_map@NetworkIO@tesseract@@QEBAAEBVStrideMap@2@XZ = @ILT+82890(?stride_map@NetworkIO@tesseract@@QEBAAEBVStrideMap@2@XZ)
       2847  B1E 00019B00 ?string_and_lengths@WERD_CHOICE@tesseract@@QEBAXPEAV?$basic_string@DU?$char_traits@D@std@@V?$allocator@D@2@@std@@0@Z = @ILT+101115(?string_and_lengths@WERD_CHOICE@tesseract@@QEBAXPEAV?$basic_string@DU?$char_traits@D@std@@V?$allocator@D@2@@std@@0@Z)
       2848  B1F 0000703B ?swap@TessdataManager@tesseract@@QEBA_NXZ = @ILT+24630(?swap@TessdataManager@tesseract@@QEBA_NXZ)
       2849  B20 000130A2 ?terrible_word_crunch@Tesseract@tesseract@@QEAA_NPEAVWERD_RES@2@W4GARBAGE_LEVEL@2@@Z = @ILT+73885(?terrible_word_crunch@Tesseract@tesseract@@QEAA_NPEAVWERD_RES@2@W4GARBAGE_LEVEL@2@@Z)
       2850  B21 0000C3E2 ?tess_acceptable_word@Tesseract@tesseract@@QEAA_NPEAVWERD_RES@2@@Z = @ILT+46045(?tess_acceptable_word@Tesseract@tesseract@@QEAA_NPEAVWERD_RES@2@@Z)
       2851  B22 00009863 ?tess_add_doc_word@Tesseract@tesseract@@QEAAXPEAVWERD_CHOICE@2@@Z = @ILT+34910(?tess_add_doc_word@Tesseract@tesseract@@QEAAXPEAVWERD_CHOICE@2@@Z)
       2852  B23 000090A7 ?tess_segment_pass_n@Tesseract@tesseract@@QEAAXHPEAVWERD_RES@2@@Z = @ILT+32930(?tess_segment_pass_n@Tesseract@tesseract@@QEAAXHPEAVWERD_RES@2@@Z)
       2853  B24 00012C4C ?tesseract@TessBaseAPI@0@QEBAPEAVTesseract@0@XZ = @ILT+72775(?tesseract@TessBaseAPI@0@QEBAPEAVTesseract@0@XZ)
       2854  B25 0001A596 ?text@WERD@tesseract@@QEBAPEBDXZ = @ILT+103825(?text@WERD@tesseract@@QEBAPEBDXZ)
       2855  B26 00002EF5 ?textord@Tesseract@tesseract@@QEBAAEBVTextord@2@XZ = @ILT+7920(?textord@Tesseract@tesseract@@QEBAAEBVTextord@2@XZ)
       2856  B27 0000FBC8 ?tfscanf@@YAHPEAU_iobuf@@PEBDZZ = @ILT+60355(?tfscanf@@YAHPEAU_iobuf@@PEBDZZ)
       2857  B28 0001B0BD ?thai_sid@UNICHARSET@tesseract@@QEBAHXZ = @ILT+106680(?thai_sid@UNICHARSET@tesseract@@QEBAHXZ)
       2858  B29 000024C3 ?tilde_crunch@Tesseract@tesseract@@QEAAXAEAVPAGE_RES_IT@2@@Z = @ILT+5310(?tilde_crunch@Tesseract@tesseract@@QEAAXAEAVPAGE_RES_IT@2@@Z)
       2859  B2A 0001407E ?tilde_delete@Tesseract@tesseract@@QEAAXAEAVPAGE_RES_IT@2@@Z = @ILT+77945(?tilde_delete@Tesseract@tesseract@@QEAAXAEAVPAGE_RES_IT@2@@Z)
       2860  B2B 0001BAE5 ?title@TessResultRenderer@tesseract@@QEBAPEBDXZ = @ILT+109280(?title@TessResultRenderer@tesseract@@QEBAPEBDXZ)
       2861  B2C 0001906A ?to_direction@FCOORD@tesseract@@QEBAEXZ = @ILT+98405(?to_direction@FCOORD@tesseract@@QEBAEXZ)
       2862  B2D 0000D1F7 ?to_lower@UNICHARSET@tesseract@@QEBAHH@Z = @ILT+49650(?to_lower@UNICHARSET@tesseract@@QEBAHH@Z)
       2863  B2E 00004ECB ?to_string@CHAR_FRAGMENT@tesseract@@QEBA?AV?$basic_string@DU?$char_traits@D@std@@V?$allocator@D@2@@std@@XZ = @ILT+16070(?to_string@CHAR_FRAGMENT@tesseract@@QEBA?AV?$basic_string@DU?$char_traits@D@std@@V?$allocator@D@2@@std@@XZ)
       2864  B2F 0000BBC2 ?to_string@CHAR_FRAGMENT@tesseract@@SA?AV?$basic_string@DU?$char_traits@D@std@@V?$allocator@D@2@@std@@PEBDHH_N@Z = @ILT+43965(?to_string@CHAR_FRAGMENT@tesseract@@SA?AV?$basic_string@DU?$char_traits@D@std@@V?$allocator@D@2@@std@@PEBDHH_N@Z)
       2865  B30 0000DFE4 ?to_upper@UNICHARSET@tesseract@@QEBAHH@Z = @ILT+53215(?to_upper@UNICHARSET@tesseract@@QEBAHH@Z)
       2866  B31 00012BAC ?tolerance@ParagraphModel@tesseract@@QEBAHXZ = @ILT+72615(?tolerance@ParagraphModel@tesseract@@QEBAHXZ)
       2867  B32 0000D855 ?top@TBOX@tesseract@@QEBAFXZ = @ILT+51280(?top@TBOX@tesseract@@QEBAFXZ)
       2868  B33 00001F05 ?top_bottom_useful@UNICHARSET@tesseract@@QEBA_NXZ = @ILT+3840(?top_bottom_useful@UNICHARSET@tesseract@@QEBA_NXZ)
       2869  B34 000059FC ?top_n_modes@STATS@tesseract@@QEBAHHAEAV?$vector@U?$KDPairInc@MH@tesseract@@V?$allocator@U?$KDPairInc@MH@tesseract@@@std@@@std@@@Z = @ILT+18935(?top_n_modes@STATS@tesseract@@QEBAHHAEAV?$vector@U?$KDPairInc@MH@tesseract@@V?$allocator@U?$KDPairInc@MH@tesseract@@@std@@@std@@@Z)
       2870  B35 00012553 ?top_spacing@ColPartition@tesseract@@QEBAHXZ = @ILT+70990(?top_spacing@ColPartition@tesseract@@QEBAHXZ)
       2871  B36 0000B046 ?topleft@TBOX@tesseract@@QEBA?AVICOORD@2@XZ = @ILT+41025(?topleft@TBOX@tesseract@@QEBA?AVICOORD@2@XZ)
       2872  B37 0000D292 ?topright@TBOX@tesseract@@QEBAAEBVICOORD@2@XZ = @ILT+49805(?topright@TBOX@tesseract@@QEBAAEBVICOORD@2@XZ)
       2873  B38 0001315B ?tprintf@tesseract@@YAXPEBDZZ = @ILT+74070(?tprintf@tesseract@@YAXPEBDZZ)
       2874  B39 00012184 ?training_iteration@LSTMRecognizer@tesseract@@QEBAHXZ = @ILT+70015(?training_iteration@LSTMRecognizer@tesseract@@QEBAHXZ)
       2875  B3A 0000F21D ?transcription@ImageData@tesseract@@QEBAAEBV?$basic_string@DU?$char_traits@D@std@@V?$allocator@D@2@@std@@XZ = @ILT+57880(?transcription@ImageData@tesseract@@QEBAAEBV?$basic_string@DU?$char_traits@D@std@@V?$allocator@D@2@@std@@XZ)
       2876  B3B 000054AC ?trie_to_dawg@Trie@tesseract@@QEAAPEAVSquishedDawg@2@XZ = @ILT+17575(?trie_to_dawg@Trie@tesseract@@QEAAPEAVSquishedDawg@2@XZ)
       2877  B3C 0000D35F ?tright@GridBase@tesseract@@QEBAAEBVICOORD@2@XZ = @ILT+50010(?tright@GridBase@tesseract@@QEBAAEBVICOORD@2@XZ)
       2878  B3D 0001BB8F ?tright@TableFinder@tesseract@@IEBAAEBVICOORD@2@XZ = @ILT+109450(?tright@TableFinder@tesseract@@IEBAAEBVICOORD@2@XZ)
       2879  B3E 0000A55B ?true_bounding_box@WERD@tesseract@@QEBA?AVTBOX@2@XZ = @ILT+38230(?true_bounding_box@WERD@tesseract@@QEBA?AVTBOX@2@XZ)
       2880  B3F 00007892 ?try_point_pairs@Wordrec@tesseract@@QEAAXQEAPEAUEDGEPT@2@FPEAV?$GenericHeap@U?$KDPtrPairInc@MVSEAM@tesseract@@@tesseract@@@2@PEAV?$GenericHeap@U?$KDPtrPairDec@MVSEAM@tesseract@@@tesseract@@@2@PEAPEAVSEAM@2@PEAUTBLOB@2@@Z = @ILT+26765(?try_point_pairs@Wordrec@tesseract@@QEAAXQEAPEAUEDGEPT@2@FPEAV?$GenericHeap@U?$KDPtrPairInc@MVSEAM@tesseract@@@tesseract@@@2@PEAV?$GenericHeap@U?$KDPtrPairDec@MVSEAM@tesseract@@@tesseract@@@2@PEAPEAVSEAM@2@PEAUTBLOB@2@@Z)
       2881  B40 0000E9CB ?try_vertical_splits@Wordrec@tesseract@@QEAAXQEAPEAUEDGEPT@2@FPEAVEDGEPT_CLIST@2@PEAV?$GenericHeap@U?$KDPtrPairInc@MVSEAM@tesseract@@@tesseract@@@2@PEAV?$GenericHeap@U?$KDPtrPairDec@MVSEAM@tesseract@@@tesseract@@@2@PEAPEAVSEAM@2@PEAUTBLOB@2@@Z = @ILT+55750(?try_vertical_splits@Wordrec@tesseract@@QEAAXQEAPEAUEDGEPT@2@FPEAVEDGEPT_CLIST@2@PEAV?$GenericHeap@U?$KDPtrPairInc@MVSEAM@tesseract@@@tesseract@@@2@PEAV?$GenericHeap@U?$KDPtrPairDec@MVSEAM@tesseract@@@tesseract@@@2@PEAPEAVSEAM@2@PEAUTBLOB@2@@Z)
       2882  B41 00014FFB ?type@ColPartition@tesseract@@QEBA?AW4PolyBlockType@2@XZ = @ILT+81910(?type@ColPartition@tesseract@@QEBA?AW4PolyBlockType@2@XZ)
       2883  B42 0001D480 ?type@Dawg@tesseract@@QEBA?AW4DawgType@2@XZ = @ILT+115835(?type@Dawg@tesseract@@QEBA?AW4DawgType@2@XZ)
       2884  B43 0000C5A4 ?type@Network@tesseract@@QEBA?AW4NetworkType@2@XZ = @ILT+46495(?type@Network@tesseract@@QEBA?AW4NetworkType@2@XZ)
       2885  B44 0000E62E ?unichar_id@WERD_CHOICE@tesseract@@QEBAHH@Z = @ILT+54825(?unichar_id@WERD_CHOICE@tesseract@@QEBAHH@Z)
       2886  B45 000112F7 ?unichar_id_from_edge_rec@Dawg@tesseract@@IEBAHAEB_K@Z = @ILT+66290(?unichar_id_from_edge_rec@Dawg@tesseract@@IEBAHAEB_K@Z)
       2887  B46 00019367 ?unichar_id_to_patterns@Dawg@tesseract@@UEBAXHAEBVUNICHARSET@2@PEAV?$vector@HV?$allocator@H@std@@@std@@@Z = @ILT+99170(?unichar_id_to_patterns@Dawg@tesseract@@UEBAXHAEBVUNICHARSET@2@PEAV?$vector@HV?$allocator@H@std@@@std@@@Z)
       2888  B47 0001D511 ?unichar_id_to_patterns@Trie@tesseract@@UEBAXHAEBVUNICHARSET@2@PEAV?$vector@HV?$allocator@H@std@@@std@@@Z = @ILT+115980(?unichar_id_to_patterns@Trie@tesseract@@UEBAXHAEBVUNICHARSET@2@PEAV?$vector@HV?$allocator@H@std@@@std@@@Z)
       2889  B48 00002180 ?unichar_ids@WERD_CHOICE@tesseract@@QEBAAEBV?$vector@HV?$allocator@H@std@@@std@@XZ = @ILT+4475(?unichar_ids@WERD_CHOICE@tesseract@@QEBAAEBV?$vector@HV?$allocator@H@std@@@std@@XZ)
       2890  B49 00007F63 ?unichar_ids_of@SquishedDawg@tesseract@@UEBAX_JPEAV?$vector@UNodeChild@tesseract@@V?$allocator@UNodeChild@tesseract@@@std@@@std@@_N@Z = @ILT+28510(?unichar_ids_of@SquishedDawg@tesseract@@UEBAX_JPEAV?$vector@UNodeChild@tesseract@@V?$allocator@UNodeChild@tesseract@@@std@@@std@@_N@Z)
       2891  B4A 0000BD16 ?unichar_ids_of@Trie@tesseract@@UEBAX_JPEAV?$vector@UNodeChild@tesseract@@V?$allocator@UNodeChild@tesseract@@@std@@@std@@_N@Z = @ILT+44305(?unichar_ids_of@Trie@tesseract@@UEBAX_JPEAV?$vector@UNodeChild@tesseract@@V?$allocator@UNodeChild@tesseract@@@std@@@std@@_N@Z)
       2892  B4B 00007FAE ?unichar_insert@UNICHARSET@tesseract@@QEAAXQEBD@Z = @ILT+28585(?unichar_insert@UNICHARSET@tesseract@@QEAAXQEBD@Z)
       2893  B4C 00009F11 ?unichar_insert@UNICHARSET@tesseract@@QEAAXQEBDW4OldUncleanUnichars@2@@Z = @ILT+36620(?unichar_insert@UNICHARSET@tesseract@@QEAAXQEBDW4OldUncleanUnichars@2@@Z)
       2894  B4D 00006DB6 ?unichar_insert_backwards_compatible@UNICHARSET@tesseract@@QEAAXQEBD@Z = @ILT+23985(?unichar_insert_backwards_compatible@UNICHARSET@tesseract@@QEAAXQEBD@Z)
       2895  B4E 00004F61 ?unichar_lengths@WERD_CHOICE@tesseract@@QEBAAEBV?$basic_string@DU?$char_traits@D@std@@V?$allocator@D@2@@std@@XZ = @ILT+16220(?unichar_lengths@WERD_CHOICE@tesseract@@QEBAAEBV?$basic_string@DU?$char_traits@D@std@@V?$allocator@D@2@@std@@XZ)
       2896  B4F 00012594 ?unichar_string@WERD_CHOICE@tesseract@@QEAAAEAV?$basic_string@DU?$char_traits@D@std@@V?$allocator@D@2@@std@@XZ = @ILT+71055(?unichar_string@WERD_CHOICE@tesseract@@QEAAAEAV?$basic_string@DU?$char_traits@D@std@@V?$allocator@D@2@@std@@XZ)
       2897  B50 0001C9E5 ?unichar_string@WERD_CHOICE@tesseract@@QEBAAEBV?$basic_string@DU?$char_traits@D@std@@V?$allocator@D@2@@std@@XZ = @ILT+113120(?unichar_string@WERD_CHOICE@tesseract@@QEBAAEBV?$basic_string@DU?$char_traits@D@std@@V?$allocator@D@2@@std@@XZ)
       2898  B51 00013057 ?unichar_to_id@UNICHARMAP@tesseract@@QEBAHQEBDH@Z = @ILT+73810(?unichar_to_id@UNICHARMAP@tesseract@@QEBAHQEBDH@Z)
       2899  B52 0000AEC0 ?unichar_to_id@UNICHARSET@tesseract@@QEBAHQEBD@Z = @ILT+40635(?unichar_to_id@UNICHARSET@tesseract@@QEBAHQEBD@Z)
       2900  B53 000028E2 ?unichar_to_id@UNICHARSET@tesseract@@QEBAHQEBDH@Z = @ILT+6365(?unichar_to_id@UNICHARSET@tesseract@@QEBAHQEBDH@Z)
       2901  B54 00004BB0 ?unichars_in_script_order@WERD_CHOICE@tesseract@@QEBA_NXZ = @ILT+15275(?unichars_in_script_order@WERD_CHOICE@tesseract@@QEBA_NXZ)
       2902  B55 00015870 ?unicharset@ShapeTable@tesseract@@QEBAAEBVUNICHARSET@2@XZ = @ILT+84075(?unicharset@ShapeTable@tesseract@@QEBAAEBVUNICHARSET@2@XZ)
       2903  B56 0000E2CD ?unicharset@WERD_CHOICE@tesseract@@QEBAPEBVUNICHARSET@2@XZ = @ILT+53960(?unicharset@WERD_CHOICE@tesseract@@QEBAPEBVUNICHARSET@2@XZ)
       2904  B57 0001C75B ?unrej_good_chs@Tesseract@tesseract@@QEAAXPEAVWERD_RES@2@@Z = @ILT+112470(?unrej_good_chs@Tesseract@tesseract@@QEAAXPEAVWERD_RES@2@@Z)
       2905  B58 00013B65 ?unrej_good_quality_words@Tesseract@tesseract@@QEAAXAEAVPAGE_RES_IT@2@@Z = @ILT+76640(?unrej_good_quality_words@Tesseract@tesseract@@QEAAXAEAVPAGE_RES_IT@2@@Z)
       2906  B59 00011AF4 ?unrotate@FCOORD@tesseract@@QEAAXAEBV12@@Z = @ILT+68335(?unrotate@FCOORD@tesseract@@QEAAXAEBV12@@Z)
       2907  B5A 0001C715 ?update_best_choice@Dict@tesseract@@QEAAXAEBVWERD_CHOICE@2@PEAV32@@Z = @ILT+112400(?update_best_choice@Dict@tesseract@@QEAAXAEBVWERD_CHOICE@2@PEAV32@@Z)
       2908  B5B 00012341 ?upper_partners@ColPartition@tesseract@@QEAAPEAVColPartition_CLIST@2@XZ = @ILT+70460(?upper_partners@ColPartition@tesseract@@QEAAPEAVColPartition_CLIST@2@XZ)
       2909  B5C 0000AC27 ?utf8@UNICHAR@tesseract@@QEBAPEBDXZ = @ILT+39970(?utf8@UNICHAR@tesseract@@QEBAPEBDXZ)
       2910  B5D 00018B24 ?utf8_data@const_iterator@UNICHAR@tesseract@@QEBAPEBDXZ = @ILT+97055(?utf8_data@const_iterator@UNICHAR@tesseract@@QEBAPEBDXZ)
       2911  B5E 0000B8D4 ?utf8_len@UNICHAR@tesseract@@QEBAHXZ = @ILT+43215(?utf8_len@UNICHAR@tesseract@@QEBAHXZ)
       2912  B5F 0000A1D2 ?utf8_len@const_iterator@UNICHAR@tesseract@@QEBAHXZ = @ILT+37325(?utf8_len@const_iterator@UNICHAR@tesseract@@QEBAHXZ)
       2913  B60 00013B74 ?utf8_step@UNICHAR@tesseract@@SAHPEBD@Z = @ILT+76655(?utf8_step@UNICHAR@tesseract@@SAHPEBD@Z)
       2914  B61 0001A771 ?utf8_str@UNICHAR@tesseract@@QEBAPEADXZ = @ILT+104300(?utf8_str@UNICHAR@tesseract@@QEBAPEADXZ)
       2915  B62 0000E1A6 ?valid_bigram@Dict@tesseract@@QEBA_NAEBVWERD_CHOICE@2@0@Z = @ILT+53665(?valid_bigram@Dict@tesseract@@QEBA_NAEBVWERD_CHOICE@2@0@Z)
       2916  B63 0000A0F1 ?valid_punctuation@Dict@tesseract@@QEAA_NAEBVWERD_CHOICE@2@@Z = @ILT+37100(?valid_punctuation@Dict@tesseract@@QEAA_NAEBVWERD_CHOICE@2@@Z)
       2917  B64 0001C693 ?valid_word@Dict@tesseract@@QEBAHAEBVWERD_CHOICE@2@@Z = @ILT+112270(?valid_word@Dict@tesseract@@QEBAHAEBVWERD_CHOICE@2@@Z)
       2918  B65 0000DEDB ?valid_word@Dict@tesseract@@QEBAHAEBVWERD_CHOICE@2@_N@Z = @ILT+52950(?valid_word@Dict@tesseract@@QEBAHAEBVWERD_CHOICE@2@_N@Z)
       2919  B66 0000E589 ?valid_word@Dict@tesseract@@QEBAHPEBD@Z = @ILT+54660(?valid_word@Dict@tesseract@@QEBAHPEBD@Z)
       2920  B67 0000ADD5 ?valid_word_or_number@Dict@tesseract@@QEBAHAEBVWERD_CHOICE@2@@Z = @ILT+40400(?valid_word_or_number@Dict@tesseract@@QEBAHAEBVWERD_CHOICE@2@@Z)
       2921  B68 000091C4 ?valid_word_permuter@Dict@tesseract@@SA_NE_N@Z = @ILT+33215(?valid_word_permuter@Dict@tesseract@@SA_NE_N@Z)
       2922  B69 0000A3B2 ?vector_fit@LLSQ@tesseract@@QEBA?AVFCOORD@2@XZ = @ILT+37805(?vector_fit@LLSQ@tesseract@@QEBA?AVFCOORD@2@XZ)
       2923  B6A 0000610E ?vectors@TabFind@tesseract@@IEAAPEAVTabVector_LIST@2@XZ = @ILT+20745(?vectors@TabFind@tesseract@@IEAAPEAVTabVector_LIST@2@XZ)
       2924  B6B 00004818 ?vertical_projection_point@Wordrec@tesseract@@QEAAXPEAUEDGEPT@2@0PEAPEAU32@PEAVEDGEPT_CLIST@2@@Z = @ILT+14355(?vertical_projection_point@Wordrec@tesseract@@QEAAXPEAUEDGEPT@2@0PEAPEAU32@PEAVEDGEPT_CLIST@2@@Z)
       2925  B6C 0000E9A3 ?weight@TrainingSample@tesseract@@QEBANXZ = @ILT+55710(?weight@TrainingSample@tesseract@@QEBANXZ)
       2926  B6D 0000D229 ?weights@ParamsModel@tesseract@@QEBAAEBV?$vector@MV?$allocator@M@std@@@std@@XZ = @ILT+49700(?weights@ParamsModel@tesseract@@QEBAAEBV?$vector@MV?$allocator@M@std@@@std@@XZ)
       2927  B6E 0000462E ?weights_for_pass@ParamsModel@tesseract@@QEBAAEBV?$vector@MV?$allocator@M@std@@@std@@W4PassEnum@12@@Z = @ILT+13865(?weights_for_pass@ParamsModel@tesseract@@QEBAAEBV?$vector@MV?$allocator@M@std@@@std@@W4PassEnum@12@@Z)
       2928  B6F 000163E2 ?width@TBOX@tesseract@@QEBAFXZ = @ILT+87005(?width@TBOX@tesseract@@QEBAFXZ)
       2929  B70 0000E052 ?winding_number@POLY_BLOCK@tesseract@@QEAAFAEBVICOORD@2@@Z = @ILT+53325(?winding_number@POLY_BLOCK@tesseract@@QEAAFAEBVICOORD@2@@Z)
       2930  B71 0000119F ?word@PAGE_RES_IT@tesseract@@QEBAPEAVWERD_RES@2@XZ = @ILT+410(?word@PAGE_RES_IT@tesseract@@QEBAPEAVWERD_RES@2@XZ)
       2931  B72 00013D6D ?word_adaptable@Tesseract@tesseract@@QEAA_NPEAVWERD_RES@2@G@Z = @ILT+77160(?word_adaptable@Tesseract@tesseract@@QEAA_NPEAVWERD_RES@2@G@Z)
       2932  B73 0000880A ?word_blank_and_set_display@Tesseract@tesseract@@QEAA_NPEAVPAGE_RES_IT@2@@Z = @ILT+30725(?word_blank_and_set_display@Tesseract@tesseract@@QEAA_NPEAVPAGE_RES_IT@2@@Z)
       2933  B74 0000C8C4 ?word_bln_display@Tesseract@tesseract@@QEAA_NPEAVPAGE_RES_IT@2@@Z = @ILT+47295(?word_bln_display@Tesseract@tesseract@@QEAA_NPEAVPAGE_RES_IT@2@@Z)
       2934  B75 00017C56 ?word_blob_quality@Tesseract@tesseract@@QEAAFPEAVWERD_RES@2@@Z = @ILT+93265(?word_blob_quality@Tesseract@tesseract@@QEAAFPEAVWERD_RES@2@@Z)
